
/home/ning/111222/bl-mt798x/atf-20220606-637ba581b/build-ram/mt7981/release/bl31/bl31.elf：     文件格式 elf64-littleaarch64
/home/ning/111222/bl-mt798x/atf-20220606-637ba581b/build-ram/mt7981/release/bl31/bl31.elf
体系结构：aarch64， 标志 0x00000112：
EXEC_P, HAS_SYMS, D_PAGED
起始地址 0x0000000043001000

程序头：
    LOAD off    0x0000000000000000 vaddr 0x0000000043000000 paddr 0x0000000043000000 align 2**16
         filesz 0x000000000000805d memsz 0x000000000000f000 flags rwx
   STACK off    0x0000000000000000 vaddr 0x0000000000000000 paddr 0x0000000000000000 align 2**4
         filesz 0x0000000000000000 memsz 0x0000000000000000 flags rw-
私有标志 = 0x0：

节：
Idx Name          Size      VMA               LMA               File off  Algn
  0 ro            00007000  0000000043001000  0000000043001000  00001000  2**11
                  CONTENTS, ALLOC, LOAD, CODE
  1 .data         0000005d  0000000043008000  0000000043008000  00008000  2**3
                  CONTENTS, ALLOC, LOAD, DATA
  2 stacks        00001000  0000000043008080  0000000043008080  0000805d  2**6
                  ALLOC
  3 .bss          00000c00  0000000043009080  0000000043009080  0000805d  2**6
                  ALLOC
  4 xlat_table    00004000  000000004300a000  000000004300a000  0000805d  2**12
                  ALLOC
  5 coherent_ram  00001000  000000004300e000  000000004300e000  0000805d  2**12
                  ALLOC
  6 .debug_info   00021131  0000000000000000  0000000000000000  0000805d  2**0
                  CONTENTS, READONLY, DEBUGGING, OCTETS
  7 .debug_abbrev 00007ffc  0000000000000000  0000000000000000  0002918e  2**0
                  CONTENTS, READONLY, DEBUGGING, OCTETS
  8 .debug_loclists 0000d3f6  0000000000000000  0000000000000000  0003118a  2**0
                  CONTENTS, READONLY, DEBUGGING, OCTETS
  9 .debug_aranges 000022e0  0000000000000000  0000000000000000  0003e580  2**4
                  CONTENTS, READONLY, DEBUGGING, OCTETS
 10 .debug_rnglists 00001f59  0000000000000000  0000000000000000  00040860  2**0
                  CONTENTS, READONLY, DEBUGGING, OCTETS
 11 .debug_line   0000c789  0000000000000000  0000000000000000  000427b9  2**0
                  CONTENTS, READONLY, DEBUGGING, OCTETS
 12 .debug_str    00006e6c  0000000000000000  0000000000000000  0004ef42  2**0
                  CONTENTS, READONLY, DEBUGGING, OCTETS
 13 .debug_line_str 00000cb4  0000000000000000  0000000000000000  00055dae  2**0
                  CONTENTS, READONLY, DEBUGGING, OCTETS
 14 .comment      0000004f  0000000000000000  0000000000000000  00056a62  2**0
                  CONTENTS, READONLY
 15 .debug_ranges 00000a20  0000000000000000  0000000000000000  00056ac0  2**4
                  CONTENTS, READONLY, DEBUGGING, OCTETS
 16 .debug_frame  00000db8  0000000000000000  0000000000000000  000574e0  2**3
                  CONTENTS, READONLY, DEBUGGING, OCTETS
 17 .debug_loc    000011cd  0000000000000000  0000000000000000  00058298  2**0
                  CONTENTS, READONLY, DEBUGGING, OCTETS
SYMBOL TABLE:
0000000043001000 l    d  ro	0000000000000000 ro
0000000043008000 l    d  .data	0000000000000000 .data
0000000043008080 l    d  stacks	0000000000000000 stacks
0000000043009080 l    d  .bss	0000000000000000 .bss
000000004300a000 l    d  xlat_table	0000000000000000 xlat_table
000000004300e000 l    d  coherent_ram	0000000000000000 coherent_ram
0000000000000000 l    d  .debug_info	0000000000000000 .debug_info
0000000000000000 l    d  .debug_abbrev	0000000000000000 .debug_abbrev
0000000000000000 l    d  .debug_loclists	0000000000000000 .debug_loclists
0000000000000000 l    d  .debug_aranges	0000000000000000 .debug_aranges
0000000000000000 l    d  .debug_rnglists	0000000000000000 .debug_rnglists
0000000000000000 l    d  .debug_line	0000000000000000 .debug_line
0000000000000000 l    d  .debug_str	0000000000000000 .debug_str
0000000000000000 l    d  .debug_line_str	0000000000000000 .debug_line_str
0000000000000000 l    d  .comment	0000000000000000 .comment
0000000000000000 l    d  .debug_ranges	0000000000000000 .debug_ranges
0000000000000000 l    d  .debug_frame	0000000000000000 .debug_frame
0000000000000000 l    d  .debug_loc	0000000000000000 .debug_loc
0000000000000000 l    df *ABS*	0000000000000000 bl31_entrypoint.o
0000000000000000 l    df *ABS*	0000000000000000 bl31_context_mgmt.c
0000000000000000 l    df *ABS*	0000000000000000 bl31_main.c
00000000430067c0 l     O ro	0000000000000010 psci_args.0
0000000043008058 l     O .data	0000000000000004 next_image_type
00000000430095a0 l     O .bss	0000000000000008 bl32_init
0000000000000000 l    df *ABS*	0000000000000000 interrupt_mgmt.c
00000000430095a8 l     O .bss	0000000000000060 intr_type_descs
0000000000000000 l    df *ABS*	0000000000000000 runtime_svc.c
0000000000000000 l    df *ABS*	0000000000000000 gicdv3_helpers.c
0000000000000000 l    df *ABS*	0000000000000000 gicv3_helpers.c
0000000000000000 l    df *ABS*	0000000000000000 gicv3_main.c
0000000043001774 l     F ro	000000000000000c gicd_wait_for_pending_write
0000000043001774 l     F ro	000000000000000c gicr_wait_for_upstream_pending_write
0000000000000000 l    df *ABS*	0000000000000000 delay_timer.c
0000000043009610 l     O .bss	0000000000000008 timer_ops
0000000000000000 l    df *ABS*	0000000000000000 context_mgmt.c
0000000000000000 l    df *ABS*	0000000000000000 spe.c
0000000043001cf4 l     F ro	000000000000002c spe_drain_buffers_hook
0000000000000000 l    df *ABS*	0000000000000000 bakery_lock_coherent.c
0000000000000000 l    df *ABS*	0000000000000000 psci_common.c
0000000043001e48 l     F ro	0000000000000034 psci_set_req_local_pwr_state
0000000043009c64 l     O .bss	0000000000000004 psci_req_local_pwr_states
0000000000000000 l    df *ABS*	0000000000000000 psci_main.c
0000000000000000 l    df *ABS*	0000000000000000 psci_mem_protect.c
0000000000000000 l    df *ABS*	0000000000000000 psci_off.c
0000000000000000 l    df *ABS*	0000000000000000 psci_on.c
0000000000000000 l    df *ABS*	0000000000000000 psci_setup.c
0000000043009120 l     O .bss	0000000000000480 psci_ns_context
0000000000000000 l    df *ABS*	0000000000000000 psci_suspend.c
0000000000000000 l    df *ABS*	0000000000000000 psci_system_off.c
0000000000000000 l    df *ABS*	0000000000000000 plat_gicv3.c
0000000043006e42 l     O ro	0000000000000004 CSWTCH.11
0000000000000000 l    df *ABS*	0000000000000000 mtk_efuse.c
0000000043009aa0 l     O .bss	0000000000000114 mtk_efuse_field
0000000000000000 l    df *ABS*	0000000000000000 mt_gpt.c
0000000043006e46 l     O ro	000000000000000c gpt_soc_data
0000000000000000 l    df *ABS*	0000000000000000 mtk_plat_common.c
0000000043009648 l     O .bss	0000000000000028 k_info
0000000043009c68 l     O .bss	0000000000000001 kernel_boot_once_flag.0
0000000000000000 l    df *ABS*	0000000000000000 mtk_sip_svc.c
0000000043007178 l     O ro	0000000000000020 __svc_desc_mediatek_sip_svc
0000000000000000 l    df *ABS*	0000000000000000 platform_common.c
0000000000000000 l    df *ABS*	0000000000000000 bl31_plat_setup.c
00000000430096f8 l     O .bss	0000000000000058 bl32_ep_info
00000000430096a0 l     O .bss	0000000000000058 bl33_ep_info
0000000043009670 l     O .bss	0000000000000030 console.0
0000000000000000 l    df *ABS*	0000000000000000 mtspmc.c
0000000043006e3a l     O ro	0000000000000008 CSWTCH.20
0000000000000000 l    df *ABS*	0000000000000000 cpuxgpt.c
0000000000000000 l    df *ABS*	0000000000000000 timer.c
0000000043003ef0 l     F ro	0000000000000020 get_timer_value
0000000043008000 l     O .data	0000000000000028 gpt4
0000000043009750 l     O .bss	0000000000000010 ops
0000000000000000 l    df *ABS*	0000000000000000 rng.c
0000000043009bb8 l     O .bss	0000000000000004 rng_lock
0000000000000000 l    df *ABS*	0000000000000000 plat_mt_gic.c
00000000430040f0 l     F ro	0000000000000004 mt_mpidr_to_core_pos
0000000000000000 l    df *ABS*	0000000000000000 plat_pm.c
0000000043004180 l     F ro	0000000000000024 plat_cpu_standby
00000000430041a4 l     F ro	000000000000005c plat_power_domain_suspend_finish
00000000430097a8 l     O .bss	00000000000000a0 dormant_data
0000000043004200 l     F ro	0000000000000014 plat_get_sys_suspend_power_state
0000000043004214 l     F ro	0000000000000054 plat_validate_power_state
0000000043004268 l     F ro	000000000000007c plat_system_reset2
00000000430042e4 l     F ro	0000000000000068 plat_system_reset
000000004300434c l     F ro	0000000000000014 plat_system_off
0000000043004360 l     F ro	000000000000006c plat_power_domain_suspend
00000000430043cc l     F ro	0000000000000014 plat_power_domain_off
00000000430043e0 l     F ro	0000000000000060 plat_power_domain_on
00000000430097a0 l     O .bss	0000000000000008 secure_entrypoint
0000000043009770 l     O .bss	0000000000000030 console.0
0000000043004468 l     F ro	0000000000000048 plat_power_domain_on_finish
0000000043006890 l     O ro	00000000000000a8 plat_plat_pm_ops
0000000000000000 l    df *ABS*	0000000000000000 plat_sip_calls.c
0000000043009bbc l     O .bss	0000000000000020 efuse_buffer.0
0000000000000000 l    df *ABS*	0000000000000000 plat_topology.c
0000000000000000 l    df *ABS*	0000000000000000 arm_arch_svc_setup.c
00000000430046bc l     F ro	000000000000013c arm_arch_svc_smc_handler
0000000043007198 l     O ro	0000000000000020 __svc_desc_arm_arch_svc
0000000000000000 l    df *ABS*	0000000000000000 std_svc_setup.c
00000000430047f8 l     F ro	00000000000000b8 std_svc_smc_handler
00000000430048b0 l     F ro	0000000000000024 std_svc_setup
00000000430071b8 l     O ro	0000000000000020 __svc_desc_std_svc
0000000000000000 l    df *ABS*	0000000000000000 bl_common.c
0000000000000000 l    df *ABS*	0000000000000000 tf_log.c
0000000043009bdc l     O .bss	0000000000000004 max_log_level
0000000000000000 l    df *ABS*	0000000000000000 multi_console.c
0000000000000000 l    df *ABS*	0000000000000000 plat_log_common.c
0000000043006938 l     O ro	0000000000000028 plat_prefix_str
0000000000000000 l    df *ABS*	0000000000000000 plat_common.c
0000000000000000 l    df *ABS*	0000000000000000 xlat_tables_common.c
0000000043004b20 l     F ro	00000000000001dc init_xlation_table_inner
0000000043009a70 l     O .bss	0000000000000008 ap1_mask
0000000043009a78 l     O .bss	0000000000000008 execute_never_mask
0000000043009be0 l     O .bss	0000000000000004 next_xlat
000000004300a000 l     O xlat_table	0000000000004000 xlat_tables
0000000043009850 l     O .bss	0000000000000220 mmap
0000000043009a88 l     O .bss	0000000000000008 xlat_max_pa
0000000043009a80 l     O .bss	0000000000000008 xlat_max_va
0000000000000000 l    df *ABS*	0000000000000000 xlat_tables.c
0000000043009100 l     O .bss	0000000000000020 base_xlation_table
0000000043009a90 l     O .bss	0000000000000008 tcr_ps_bits
0000000000000000 l    df *ABS*	0000000000000000 crash_reporting.o
0000000000000000 l    df *ABS*	0000000000000000 ea_delegate.o
0000000000000008 l       *ABS*	0000000000000000 CPU_MIDR_SIZE
0000000000000008 l       *ABS*	0000000000000000 CPU_EXTRA1_FUNC_SIZE
0000000000000008 l       *ABS*	0000000000000000 CPU_EXTRA2_FUNC_SIZE
0000000000000008 l       *ABS*	0000000000000000 CPU_EXTRA3_FUNC_SIZE
0000000000000008 l       *ABS*	0000000000000000 CPU_E_HANDLER_FUNC_SIZE
0000000000000008 l       *ABS*	0000000000000000 CPU_RESET_FUNC_SIZE
0000000000000010 l       *ABS*	0000000000000000 CPU_PWR_DWN_OPS_SIZE
0000000000000000 l       *ABS*	0000000000000000 CPU_ERRATA_FUNC_SIZE
0000000000000000 l       *ABS*	0000000000000000 CPU_ERRATA_LOCK_SIZE
0000000000000000 l       *ABS*	0000000000000000 CPU_ERRATA_PRINTED_SIZE
0000000000000000 l       *ABS*	0000000000000000 CPU_REG_DUMP_SIZE
0000000000000000 l       *ABS*	0000000000000000 CPU_MIDR
0000000000000008 l       *ABS*	0000000000000000 CPU_RESET_FUNC
0000000000000010 l       *ABS*	0000000000000000 CPU_EXTRA1_FUNC
0000000000000018 l       *ABS*	0000000000000000 CPU_EXTRA2_FUNC
0000000000000020 l       *ABS*	0000000000000000 CPU_EXTRA3_FUNC
0000000000000028 l       *ABS*	0000000000000000 CPU_E_HANDLER_FUNC
0000000000000030 l       *ABS*	0000000000000000 CPU_PWR_DWN_OPS
0000000000000040 l       *ABS*	0000000000000000 CPU_ERRATA_FUNC
0000000000000040 l       *ABS*	0000000000000000 CPU_ERRATA_LOCK
0000000000000040 l       *ABS*	0000000000000000 CPU_ERRATA_PRINTED
0000000000000040 l       *ABS*	0000000000000000 CPU_REG_DUMP
0000000000000040 l       *ABS*	0000000000000000 CPU_OPS_SIZE
0000000043005070 l     F ro	0000000000000068 ea_proceed
0000000043005068 l     F ro	0000000000000004 delegate_sync_ea
000000004300506c l     F ro	0000000000000004 delegate_async_ea
0000000000000000 l    df *ABS*	0000000000000000 runtime_exceptions.o
0000000043007b90 l       ro	0000000000000000 exp_from_EL3
00000000430050d8 l       ro	0000000000000000 smc_handler32
00000000430050dc l       ro	0000000000000000 smc_handler64
0000000043007cec l       ro	0000000000000000 interrupt_exit_irq_aarch64
0000000043007d6c l       ro	0000000000000000 interrupt_exit_fiq_aarch64
0000000043007eec l       ro	0000000000000000 interrupt_exit_irq_aarch32
0000000043007f6c l       ro	0000000000000000 interrupt_exit_fiq_aarch32
00000000430050d8 l     F ro	000000000000008c smc_handler
000000004300514c l       ro	0000000000000000 smc_prohibited
0000000043005140 l       ro	0000000000000000 smc_unknown
0000000000000000 l    df *ABS*	0000000000000000 aem_generic.o
0000000000000008 l       *ABS*	0000000000000000 CPU_MIDR_SIZE
0000000000000008 l       *ABS*	0000000000000000 CPU_EXTRA1_FUNC_SIZE
0000000000000008 l       *ABS*	0000000000000000 CPU_EXTRA2_FUNC_SIZE
0000000000000008 l       *ABS*	0000000000000000 CPU_EXTRA3_FUNC_SIZE
0000000000000008 l       *ABS*	0000000000000000 CPU_E_HANDLER_FUNC_SIZE
0000000000000008 l       *ABS*	0000000000000000 CPU_RESET_FUNC_SIZE
0000000000000010 l       *ABS*	0000000000000000 CPU_PWR_DWN_OPS_SIZE
0000000000000000 l       *ABS*	0000000000000000 CPU_ERRATA_FUNC_SIZE
0000000000000000 l       *ABS*	0000000000000000 CPU_ERRATA_LOCK_SIZE
0000000000000000 l       *ABS*	0000000000000000 CPU_ERRATA_PRINTED_SIZE
0000000000000000 l       *ABS*	0000000000000000 CPU_REG_DUMP_SIZE
0000000000000000 l       *ABS*	0000000000000000 CPU_MIDR
0000000000000008 l       *ABS*	0000000000000000 CPU_RESET_FUNC
0000000000000010 l       *ABS*	0000000000000000 CPU_EXTRA1_FUNC
0000000000000018 l       *ABS*	0000000000000000 CPU_EXTRA2_FUNC
0000000000000020 l       *ABS*	0000000000000000 CPU_EXTRA3_FUNC
0000000000000028 l       *ABS*	0000000000000000 CPU_E_HANDLER_FUNC
0000000000000030 l       *ABS*	0000000000000000 CPU_PWR_DWN_OPS
0000000000000040 l       *ABS*	0000000000000000 CPU_ERRATA_FUNC
0000000000000040 l       *ABS*	0000000000000000 CPU_ERRATA_LOCK
0000000000000040 l       *ABS*	0000000000000000 CPU_ERRATA_PRINTED
0000000000000040 l       *ABS*	0000000000000000 CPU_REG_DUMP
0000000000000040 l       *ABS*	0000000000000000 CPU_OPS_SIZE
0000000043005164 l     F ro	0000000000000034 aem_generic_core_pwr_dwn
0000000043005198 l     F ro	0000000000000018 aem_generic_cluster_pwr_dwn
0000000000000000 l    df *ABS*	0000000000000000 cortex_a53.o
0000000000000008 l       *ABS*	0000000000000000 CPU_MIDR_SIZE
0000000000000008 l       *ABS*	0000000000000000 CPU_EXTRA1_FUNC_SIZE
0000000000000008 l       *ABS*	0000000000000000 CPU_EXTRA2_FUNC_SIZE
0000000000000008 l       *ABS*	0000000000000000 CPU_EXTRA3_FUNC_SIZE
0000000000000008 l       *ABS*	0000000000000000 CPU_E_HANDLER_FUNC_SIZE
0000000000000008 l       *ABS*	0000000000000000 CPU_RESET_FUNC_SIZE
0000000000000010 l       *ABS*	0000000000000000 CPU_PWR_DWN_OPS_SIZE
0000000000000000 l       *ABS*	0000000000000000 CPU_ERRATA_FUNC_SIZE
0000000000000000 l       *ABS*	0000000000000000 CPU_ERRATA_LOCK_SIZE
0000000000000000 l       *ABS*	0000000000000000 CPU_ERRATA_PRINTED_SIZE
0000000000000000 l       *ABS*	0000000000000000 CPU_REG_DUMP_SIZE
0000000000000000 l       *ABS*	0000000000000000 CPU_MIDR
0000000000000008 l       *ABS*	0000000000000000 CPU_RESET_FUNC
0000000000000010 l       *ABS*	0000000000000000 CPU_EXTRA1_FUNC
0000000000000018 l       *ABS*	0000000000000000 CPU_EXTRA2_FUNC
0000000000000020 l       *ABS*	0000000000000000 CPU_EXTRA3_FUNC
0000000000000028 l       *ABS*	0000000000000000 CPU_E_HANDLER_FUNC
0000000000000030 l       *ABS*	0000000000000000 CPU_PWR_DWN_OPS
0000000000000040 l       *ABS*	0000000000000000 CPU_ERRATA_FUNC
0000000000000040 l       *ABS*	0000000000000000 CPU_ERRATA_LOCK
0000000000000040 l       *ABS*	0000000000000000 CPU_ERRATA_PRINTED
0000000000000040 l       *ABS*	0000000000000000 CPU_REG_DUMP
0000000000000040 l       *ABS*	0000000000000000 CPU_OPS_SIZE
00000000430051b0 l     F ro	0000000000000014 cortex_a53_disable_dcache
00000000430051c4 l     F ro	0000000000000018 cortex_a53_disable_smp
00000000430051dc l     F ro	0000000000000020 errata_a53_826319_wa
00000000430051fc l     F ro	0000000000000008 check_errata_826319
0000000043005204 l     F ro	000000000000001c a53_disable_non_temporal_hint
0000000043005220 l     F ro	0000000000000008 check_errata_disable_non_temporal_hint
0000000043005228 l     F ro	000000000000001c errata_a53_855873_wa
0000000043005244 l     F ro	0000000000000008 check_errata_855873
000000004300524c l     F ro	0000000000000038 cortex_a53_reset_func
0000000043005284 l     F ro	0000000000000018 cortex_a53_core_pwr_dwn
000000004300529c l     F ro	0000000000000024 cortex_a53_cluster_pwr_dwn
0000000000000000 l    df *ABS*	0000000000000000 cpu_helpers.o
0000000000000008 l       *ABS*	0000000000000000 CPU_MIDR_SIZE
0000000000000008 l       *ABS*	0000000000000000 CPU_EXTRA1_FUNC_SIZE
0000000000000008 l       *ABS*	0000000000000000 CPU_EXTRA2_FUNC_SIZE
0000000000000008 l       *ABS*	0000000000000000 CPU_EXTRA3_FUNC_SIZE
0000000000000008 l       *ABS*	0000000000000000 CPU_E_HANDLER_FUNC_SIZE
0000000000000008 l       *ABS*	0000000000000000 CPU_RESET_FUNC_SIZE
0000000000000010 l       *ABS*	0000000000000000 CPU_PWR_DWN_OPS_SIZE
0000000000000000 l       *ABS*	0000000000000000 CPU_ERRATA_FUNC_SIZE
0000000000000000 l       *ABS*	0000000000000000 CPU_ERRATA_LOCK_SIZE
0000000000000000 l       *ABS*	0000000000000000 CPU_ERRATA_PRINTED_SIZE
0000000000000000 l       *ABS*	0000000000000000 CPU_REG_DUMP_SIZE
0000000000000000 l       *ABS*	0000000000000000 CPU_MIDR
0000000000000008 l       *ABS*	0000000000000000 CPU_RESET_FUNC
0000000000000010 l       *ABS*	0000000000000000 CPU_EXTRA1_FUNC
0000000000000018 l       *ABS*	0000000000000000 CPU_EXTRA2_FUNC
0000000000000020 l       *ABS*	0000000000000000 CPU_EXTRA3_FUNC
0000000000000028 l       *ABS*	0000000000000000 CPU_E_HANDLER_FUNC
0000000000000030 l       *ABS*	0000000000000000 CPU_PWR_DWN_OPS
0000000000000040 l       *ABS*	0000000000000000 CPU_ERRATA_FUNC
0000000000000040 l       *ABS*	0000000000000000 CPU_ERRATA_LOCK
0000000000000040 l       *ABS*	0000000000000000 CPU_ERRATA_PRINTED
0000000000000040 l       *ABS*	0000000000000000 CPU_REG_DUMP
0000000000000040 l       *ABS*	0000000000000000 CPU_OPS_SIZE
0000000043005360 l       ro	0000000000000000 search_def_ptr
0000000000000000 l    df *ABS*	0000000000000000 context.o
00000000430055ac l       ro	0000000000000000 sve_not_enabled
0000000000000000 l    df *ABS*	0000000000000000 cpu_data.o
0000000000000000 l    df *ABS*	0000000000000000 spinlock.o
00000000430055fc l       ro	0000000000000000 l1
0000000043005600 l       ro	0000000000000000 l2
0000000000000000 l    df *ABS*	0000000000000000 psci_helpers.o
0000000000000000 l    df *ABS*	0000000000000000 platform_mp_stack.o
0000000043008080 l       stacks	0000000000000000 platform_normal_stacks
0000000000000006 l       *ABS*	0000000000000000 TZ_COUNT
0000000000000000 l    df *ABS*	0000000000000000 hsuart.o
0000000043005774 l       ro	0000000000000000 init_fail
00000000430056fc l       ro	0000000000000000 set_baud_force_high_speed
0000000043005724 l       ro	0000000000000000 set_baud_low_speed
0000000043005738 l       ro	0000000000000000 set_divisor
000000004300578c l       ro	0000000000000000 no_char
00000000430057e4 l     F ro	0000000000000008 console_hsuart_getc
00000000430057ec l     F ro	0000000000000008 console_hsuart_putc
00000000430057f4 l     F ro	0000000000000008 console_hsuart_flush
0000000043005850 l       ro	0000000000000000 register_fail
0000000043005818 l       ro	0000000000000000 register_hsuart
0000000000000000 l    df *ABS*	0000000000000000 plat_helpers.o
0000000000000000 l    df *ABS*	0000000000000000 debug.o
0000000043007162 l       ro	0000000000000000 panic_msg
0000000043005900 l       ro	0000000000000000 panic_common
0000000043005928 l       ro	0000000000000000 _panic_handler
0000000000000000 l    df *ABS*	0000000000000000 cache_helpers.o
0000000043005964 l       ro	0000000000000000 exit_loop_civac
0000000043005950 l       ro	0000000000000000 loop_civac
000000004300599c l       ro	0000000000000000 exit_loop_cvac
0000000043005988 l       ro	0000000000000000 loop_cvac
00000000430059d4 l       ro	0000000000000000 exit_loop_ivac
00000000430059c0 l       ro	0000000000000000 loop_ivac
00000000430059d8 l     F ro	000000000000009c do_dcsw_op
0000000043005a70 l       ro	0000000000000000 exit
0000000043005a74 l       ro	0000000000000000 dcsw_loop_table
00000000430059f4 l       ro	0000000000000000 loop1
0000000043005a58 l       ro	0000000000000000 level_done
0000000043005a74 l       ro	0000000000000000 loop2_isw
0000000043005a78 l       ro	0000000000000000 loop3_isw
0000000043005a94 l       ro	0000000000000000 loop2_cisw
0000000043005a98 l       ro	0000000000000000 loop3_cisw
0000000043005ab4 l       ro	0000000000000000 loop2_csw
0000000043005ab8 l       ro	0000000000000000 loop3_csw
0000000000000000 l    df *ABS*	0000000000000000 misc_helpers.o
0000000043005b10 l     F ro	00000000000000e8 zeromem_dczva
0000000000000000 l    df *ABS*	0000000000000000 platform_helpers.o
0000000000000000 l    df *ABS*	0000000000000000 efuse_cmd.c
0000000043005c14 l     F ro	000000000000007c efuse_wait.constprop.4
0000000043006960 l     O ro	0000000000000480 efuse_info_set
0000000000000000 l    df *ABS*	0000000000000000 memcpy.c
0000000000000000 l    df *ABS*	0000000000000000 memmove.c
0000000000000000 l    df *ABS*	0000000000000000 memset.c
0000000000000000 l    df *ABS*	0000000000000000 printf.c
00000000430062b4 l     F ro	00000000000000dc unsigned_num_print
0000000000000000 l    df *ABS*	0000000000000000 putchar.c
0000000000000000 l    df *ABS*	0000000000000000 cpu_data_array.c
0000000043003954 g     F ro	00000000000000a8 mediatek_sip_handler
0000000043006794 g     F ro	000000000000002c putchar
00000000430057cc g     F ro	0000000000000018 console_hsuart_core_flush
00000000430015d4 g     F ro	000000000000001c gicv3_get_spi_limit
0000000043001c14 g     F ro	00000000000000c8 cm_prepare_el3_exit
000000004300392c g     F ro	0000000000000014 plat_is_smccc_feature_available
0000000043009c80 g       .bss	0000000000000000 __PMF_TIMESTAMP_START__
00000000430034b4  w    F ro	0000000000000034 plat_ic_get_pending_interrupt_type
0000000043001b78 g     F ro	000000000000007c cm_el1_sysregs_context_restore
00000000430027f0 g     F ro	0000000000000028 psci_migrate_info_up_cpu
000000004300f000 g       coherent_ram	0000000000000000 __BL31_END__
000000004300585c g     F ro	0000000000000008 write_cpuectlr
0000000043004998 g     F ro	0000000000000034 console_register
00000000430025a4 g     F ro	00000000000000e0 psci_cpu_suspend
000000004300f000 g       coherent_ram	0000000000000000 __COHERENT_RAM_END__
00000000430052c0 g     F ro	0000000000000020 reset_handler
0000000043007e00 g     F ro	0000000000000000 sync_exception_aarch32
0000000043005b08 g     F ro	0000000000000008 zeromem
00000000430058f8 g     F ro	0000000000000008 asm_print_newline
0000000043007298 g       ro	0000000000000000 __pubsub_psci_suspend_pwrdown_finish_end
0000000043003868 g     F ro	000000000000000c get_kernel_info_pc
0000000043002374 g     F ro	00000000000000f4 psci_validate_entry_point
00000000430048d4 g     F ro	0000000000000004 print_entry_point_info
00000000430011bc g     F ro	0000000000000014 cm_get_context
00000000430022fc g     F ro	0000000000000058 psci_release_pwr_domain_locks
0000000043004688 g     F ro	0000000000000034 plat_core_pos_by_mpidr
0000000043001e7c g     F ro	0000000000000028 psci_validate_power_state
0000000043008000 g       ro	0000000000000000 __RW_START__
0000000043003f78 g     F ro	0000000000000178 plat_get_rnd
0000000043003764 g     F ro	0000000000000018 mtk_gpt_reset
0000000043003300 g     F ro	00000000000000a0 psci_cpu_suspend_finish
000000004300a000 g       xlat_table	0000000000000000 __XLAT_TABLE_START__
0000000043003b80 g     F ro	0000000000000028 bl31_plat_get_next_image_ep_info
0000000043005ae8 g     F ro	0000000000000010 dcsw_op_level1
0000000043005900 g     F ro	0000000000000030 do_panic
000000004300620c g     F ro	0000000000000034 memmove
0000000043009be4 g     O .bss	0000000000000080 rt_svc_descs_indices
00000000430044b0 g     F ro	000000000000001c plat_setup_psci_ops
0000000043007a00 g     F ro	0000000000000000 sync_exception_sp_elx
0000000043001cdc g     F ro	0000000000000008 cm_prepare_el3_exit_ns
0000000043007800 g     F ro	0000000000000000 sync_exception_sp_el0
000000004300568c g     F ro	000000000000000c psci_power_down_wfi
0000000043005658 g     F ro	0000000000000034 psci_do_pwrup_cache_maintenance
0000000043002704 g     F ro	0000000000000058 psci_affinity_info
0000000043004ad4  w    F ro	0000000000000030 plat_log_get_prefix
000000004300275c g     F ro	000000000000007c psci_migrate
0000000043001568 g     F ro	000000000000006c gicv3_rdistif_base_addrs_probe
00000000430034e8 g     F ro	0000000000000054 mtk_efuse_get_len
000000004300364c g     F ro	0000000000000074 mtk_efuse_write
0000000043005574 g     F ro	0000000000000054 el3_exit
0000000043002e18 g     F ro	0000000000000338 psci_setup
0000000043004ecc g     F ro	0000000000000084 init_xlat_tables
0000000043004b04  w    F ro	0000000000000008 bl31_plat_runtime_setup
0000000043008000 g       .data	0000000000000000 __DATA_START__
000000004300e000 g     O coherent_ram	0000000000000008 psci_locks
0000000043003f10 g     F ro	0000000000000068 mtk_timer_init
0000000043003898 g     F ro	000000000000008c boot_to_kernel
0000000043005bfc  w    F ro	0000000000000004 plat_disable_acp
000000004300225c g     F ro	0000000000000034 psci_find_target_suspend_lvl
00000000430014e4 g     F ro	000000000000001c gicd_set_isenabler
0000000043002dfc g     F ro	000000000000001c psci_arch_setup
000000004300539c g     F ro	0000000000000020 check_wa_cve_2017_5715
00000000430033d8 g     F ro	0000000000000038 psci_system_reset
0000000043004130 g     F ro	0000000000000014 mt_gic_cpuif_enable
0000000043001500 g     F ro	0000000000000014 gicd_set_ipriorityr
00000000430061ec g     F ro	0000000000000020 memcpy
0000000043004440 g     F ro	0000000000000028 mtk_system_pwr_domain_resume
0000000043002354 g     F ro	0000000000000020 psci_validate_mpidr
0000000043002684 g     F ro	0000000000000078 psci_system_suspend
0000000043007b80 g     F ro	0000000000000000 serror_sp_elx
0000000043001b18 g     F ro	0000000000000030 cm_init_context_by_index
0000000043003d40 g     F ro	0000000000000028 set_cpu_retention_control
00000000430017ec g     F ro	0000000000000074 gicv3_distif_init
0000000043003c34 g     F ro	0000000000000028 bl31_prepare_kernel_entry
0000000043007880 g     F ro	0000000000000000 irq_sp_el0
0000000043005b10 g     F ro	00000000000000e8 zero_normalmem
0000000043001fec g     F ro	0000000000000040 psci_get_parent_pwr_domain_nodes
0000000043001780 g     F ro	000000000000006c gicv3_driver_init
0000000043007298 g     O ro	0000000000000008 __cb_func_spe_drain_buffers_hookcm_entering_secure_world
0000000043004b0c  w    F ro	0000000000000014 plat_ea_handler
00000000430033a0 g     F ro	0000000000000038 psci_system_off
00000000430072a0 g       ro	0000000000000000 __pubsub_cm_exited_secure_world_end
0000000043004ddc g     F ro	000000000000003c mmap_add
0000000043001120 g     F ro	000000000000009c bl31_warm_entrypoint
0000000043003af4 g     F ro	000000000000000c plat_get_syscnt_freq2
0000000043005c00  w    F ro	0000000000000008 plat_panic_handler
0000000043007178 g       ro	0000000000000000 __RT_SVC_DESCS_START__
0000000043009080 g       stacks	0000000000000000 __STACKS_END__
0000000043007298 g       ro	0000000000000000 __pubsub_psci_suspend_pwrdown_start_end
00000000430053bc g     F ro	0000000000000020 check_smccc_arch_wa3_applies
0000000043005968 g     F ro	0000000000000038 clean_dcache_range
00000000430052e0 g     F ro	0000000000000024 prepare_cpu_pwr_dwn
0000000043005504 g     F ro	0000000000000070 restore_gp_pmcr_pauth_regs
0000000043002468 g     F ro	00000000000000b4 psci_warmboot_entrypoint
000000004300154c g     F ro	000000000000001c gicv3_rdistif_mark_core_awake
00000000430072a0 g       ro	0000000000000000 __pubsub_cm_exited_normal_world_start
00000000430056b4  w    F ro	0000000000000010 plat_set_my_stack
00000000430011fc g     F ro	0000000000000030 cm_set_context_by_index
00000000430071d8 g       ro	0000000000000000 __RT_SVC_DESCS_END__
00000000430058c8 g     F ro	0000000000000030 asm_print_hex
0000000043003d00 g     F ro	0000000000000040 bl31_plat_arch_setup
00000000430012b4 g     F ro	0000000000000034 bl31_main
0000000043004cfc g     F ro	0000000000000004 print_mmap
0000000043009620 g     O .bss	0000000000000020 psci_cpu_pd_nodes
00000000430058b0 g     F ro	0000000000000018 asm_print_str
0000000043005c08  w    F ro	0000000000000004 bl31_plat_enable_mmu
000000004300196c g     F ro	0000000000000004 cm_init
00000000430058a4 g     F ro	000000000000000c plat_crash_console_flush
0000000043007800 g       ro	0000000000000000 runtime_exceptions
0000000043009760 g     O .bss	0000000000000010 rdistif_base_addrs
00000000430072a0 g       ro	0000000000000000 __pubsub_cm_exited_secure_world_start
000000004300251c g     F ro	0000000000000024 psci_spd_migrate_info
00000000430055dc g     F ro	0000000000000018 _cpu_data_by_index
0000000043002540 g     F ro	0000000000000004 psci_print_power_domain_map
0000000043008000 g       ro	0000000000000000 __RO_END_UNALIGNED__
00000000430044cc g     F ro	0000000000000028 plat_get_target_pwr_state
00000000430049d8 g     F ro	00000000000000a8 console_putc
0000000043001514 g     F ro	0000000000000014 gicd_write_icfgr
0000000043005c10  w    F ro	0000000000000004 plat_handle_el3_ea
0000000043001eb8 g     F ro	0000000000000070 psci_is_last_on_cpu
0000000043005878 g     F ro	0000000000000020 plat_crash_console_init
0000000043007e80 g     F ro	0000000000000000 irq_aarch32
0000000043005930 g     F ro	0000000000000038 flush_dcache_range
0000000043001960 g     F ro	000000000000000c timer_init
0000000043003c5c g     F ro	00000000000000a0 bl31_early_platform_setup2
00000000430071d8 g       ro	0000000000000000 __PMF_SVC_DESCS_END__
00000000430056c4 g     F ro	00000000000000b8 console_hsuart_init
0000000043008060 g       .data	0000000000000000 __RELA_END__
0000000043008060 g       .data	0000000000000000 __RELA_START__
00000000430035b4 g     F ro	0000000000000098 mtk_efuse_read
0000000043007980 g     F ro	0000000000000000 serror_sp_el0
0000000043006390 g     F ro	0000000000000404 vprintf
0000000043003704 g     F ro	0000000000000060 mtk_gpt_start
0000000043004fd0 g     F ro	0000000000000004 report_unhandled_exception
0000000043002d28 g     F ro	00000000000000d4 psci_cpu_on_finish
0000000043005ad4 g     F ro	0000000000000014 dcsw_op_all
000000004300353c g     F ro	000000000000003c mtk_efuse_send_data
00000000430026fc g     F ro	0000000000000008 psci_cpu_off
00000000430057fc g     F ro	0000000000000058 console_hsuart_register
0000000043005bf8  w    F ro	0000000000000004 plat_reset_handler
0000000043004fcc g     F ro	0000000000000004 enable_mmu_direct_el3
00000000430072a0 g       ro	0000000000000000 __pubsub_cm_entering_normal_world_end
0000000043005324 g     F ro	0000000000000040 get_cpu_ops_ptr
0000000043001000 g     F ro	0000000000000120 bl31_entrypoint
00000000430011d0 g     F ro	000000000000002c cm_get_context_by_index
0000000043003ba8 g     F ro	000000000000008c bl31_plat_get_next_kernel_ep_info
0000000043001b48 g     F ro	0000000000000030 cm_init_my_context
0000000043007d80 g     F ro	0000000000000000 serror_aarch64
00000000430055c8 g     F ro	0000000000000014 init_cpu_data_ptr
0000000043004fd4 g     F ro	0000000000000078 enter_lower_el_sync_ea
0000000043004eac g     F ro	000000000000000c xlat_arch_current_el
0000000043001688 g     F ro	00000000000000ec gicv3_secure_spis_config_props
0000000043001ce4 g     F ro	0000000000000010 spe_supported
0000000043002ac4 g     F ro	0000000000000104 psci_do_cpu_off
0000000043009a9c g     O .bss	0000000000000004 psci_caps
0000000043003b58 g     F ro	0000000000000028 platform_setup_cpu
0000000043005c90 g     F ro	0000000000000108 efuse_read
0000000043001970 g     F ro	00000000000001a8 cm_setup_context
0000000043001000 g       ro	0000000000000000 __BL31_START__
0000000043007a80 g     F ro	0000000000000000 irq_sp_elx
0000000043009c80 g       .bss	0000000000000000 __PMF_PERCPU_TIMESTAMP_END__
0000000043007900 g     F ro	0000000000000000 fiq_sp_el0
000000004300805d g       .data	0000000000000000 __DATA_END__
00000000430058cc g       ro	0000000000000000 asm_print_hex_bits
0000000043009c80 g       .bss	0000000000000000 __BASE_XLAT_TABLE_START__
000000004300149c g     F ro	0000000000000024 gicd_set_igrpmodr
00000000430071d8 g       ro	0000000000000000 __CPU_OPS_START__
00000000430018f8 g     F ro	0000000000000068 udelay
00000000430059a0 g     F ro	0000000000000038 inv_dcache_range
000000004300805c g     O .data	0000000000000001 console_state
00000000430028d4 g     F ro	000000000000014c psci_smc_handler
0000000043003150 g     F ro	00000000000001b0 psci_cpu_suspend_start
0000000043001f28 g     F ro	000000000000003c psci_init_req_local_pwr_states
00000000430072a0 g       ro	0000000000000000 __pubsub_cm_entering_secure_world_end
0000000043005364 g     F ro	0000000000000010 cpu_get_rev_var
0000000043002bc8 g     F ro	0000000000000160 psci_cpu_on_start
0000000043002220 g     F ro	000000000000003c psci_find_max_off_lvl
000000004300388c g     F ro	000000000000000c get_kernel_info_r2
0000000043001444 g     F ro	0000000000000034 gicd_set_icfgr
000000004300e008 g     O coherent_ram	0000000000000020 psci_non_cpu_pd_nodes
0000000043009c80 g       .bss	0000000000000000 __BSS_END__
0000000043007298 g       ro	0000000000000000 __CPU_OPS_END__
00000000430039fc g     F ro	000000000000007c sip_smc_handler
0000000043003840 g     F ro	0000000000000028 clean_top_32b_of_param
0000000043002544 g     F ro	0000000000000004 psci_do_pwrdown_sequence
000000004300561c g     F ro	000000000000003c psci_do_pwrdown_cache_maintenance
0000000043003874 g     F ro	000000000000000c get_kernel_info_r0
0000000043001bf4 g     F ro	0000000000000020 cm_set_next_eret_context
0000000043007298 g       ro	0000000000000000 __pubsub_cm_entering_secure_world_start
0000000043002548 g     F ro	000000000000005c psci_cpu_on
0000000043004e18 g     F ro	0000000000000094 init_xlation_table
000000004300124c g     F ro	0000000000000068 bl31_prepare_next_image_entry
000000004300e000 g       coherent_ram	0000000000000000 __COHERENT_RAM_START__
0000000043009a98 g     O .bss	0000000000000004 psci_plat_core_count
0000000043002870 g     F ro	0000000000000064 psci_features
0000000043007298 g       ro	0000000000000000 __GOT_END__
0000000043006240 g     F ro	0000000000000074 memset
00000000430071d8 g       ro	0000000000000000 __PARSER_LIB_DESCS_END__
0000000043001f64 g     F ro	0000000000000088 psci_get_target_local_pwr_states
00000000430072a0 g       ro	0000000000000000 __pubsub_cm_exited_normal_world_end
000000004300504c g     F ro	000000000000001c enter_lower_el_async_ea
0000000043009618 g     O .bss	0000000000000008 psci_plat_pm_ops
000000004300394c g     F ro	0000000000000008 plat_get_soc_revision
0000000043001238 g     F ro	0000000000000014 bl31_setup
00000000430036c0 g     F ro	0000000000000030 mtk_efuse_disable
0000000043007298 g       ro	0000000000000000 __pubsub_psci_suspend_pwrdown_start_start
00000000430044f4 g     F ro	000000000000002c mt_sip_set_authorized_sreg
0000000043007298 g       ro	0000000000000000 __GOT_START__
0000000043005050 g       ro	0000000000000000 handle_lower_el_async_ea
000000004300122c g     F ro	000000000000000c get_arm_std_svc_args
00000000430072a0 g       ro	0000000000000000 __pubsub_cm_entering_normal_world_start
0000000000000000 g       *ABS*	0000000000000000 __PERCPU_TIMESTAMP_SIZE__
0000000043001d68 g     F ro	00000000000000ac bakery_lock_get
0000000043003dd4 g     F ro	0000000000000114 spmc_cpu_corex_onoff
0000000043004b0c g     F ro	0000000000000014 plat_default_ea_handler
0000000043002a20 g     F ro	000000000000005c psci_mem_protect
00000000430071d8 g       ro	0000000000000000 __FCONF_POPULATOR_END__
0000000043001e14 g     F ro	0000000000000034 bakery_lock_release
0000000043001318 g     F ro	0000000000000024 get_interrupt_type_handler
0000000043003a78 g     F ro	000000000000007c plat_configure_mmu_el3
000000004300467c g     F ro	000000000000000c plat_get_power_domain_tree_desc
000000004300153c g     F ro	0000000000000010 gicd_write_ipriorityr
0000000043003924 g     F ro	0000000000000008 plat_get_spsr_for_bl33_entry
0000000043002818 g     F ro	0000000000000058 psci_node_hw_state
0000000043009c80 g       .bss	0000000000000000 __BASE_XLAT_TABLE_END__
0000000043005af8 g     F ro	0000000000000010 dcsw_op_level2
0000000043005304 g     F ro	0000000000000020 init_cpu_ops
0000000043003ee8 g     F ro	0000000000000008 generic_timer_backup
0000000043004a80 g     F ro	0000000000000054 console_flush
0000000043007b00 g     F ro	0000000000000000 fiq_sp_elx
0000000043008000 g       ro	0000000000000000 __RO_END__
0000000043007c00 g     F ro	0000000000000000 sync_exception_aarch64
0000000043007d00 g     F ro	0000000000000000 fiq_aarch64
000000004300715e g     O ro	0000000000000004 mtk_power_domain_tree_desc
00000000430049cc g     F ro	000000000000000c console_switch_state
0000000043005614 g     F ro	0000000000000008 spin_unlock
0000000043005488 g     F ro	000000000000007c prepare_el3_entry
0000000043009080 g       .bss	0000000000000000 __BSS_START__
0000000043001000 g       ro	0000000000000000 __RO_START__
00000000430036f0 g     F ro	0000000000000014 mtk_gpt_stop
0000000043009bb4 g     O .bss	0000000000000004 cpu_bitmask
0000000043001d20 g     F ro	0000000000000048 spe_enable
00000000430071d8 g       ro	0000000000000000 __PMF_SVC_DESCS_START__
0000000043005898 g     F ro	000000000000000c plat_crash_console_putc
0000000043009080 g     O .bss	0000000000000080 percpu_data
0000000043005388 g     F ro	0000000000000014 cpu_rev_var_hs
0000000043003d68 g     F ro	000000000000006c spmc_init
0000000043008028 g     O .data	0000000000000030 mt_gicv3_data
00000000430055f4 g     F ro	0000000000000020 spin_lock
000000004300496c g     F ro	000000000000002c console_is_registered
00000000430018ec g     F ro	000000000000000c gicv3_get_pending_interrupt_type
0000000043001ea4 g     F ro	0000000000000014 psci_query_sys_suspend_pwrstate
00000000430048d8 g     F ro	0000000000000094 tf_log
000000004300377c g     F ro	0000000000000064 mtk_gpt_init
0000000043007298 g       ro	0000000000000000 __pubsub_psci_cpu_on_finish_start
00000000430071d8 g       ro	0000000000000000 __FCONF_POPULATOR_START__
0000000043005374 g     F ro	0000000000000014 cpu_rev_var_ls
00000000430012e8 g     F ro	0000000000000030 get_scr_el3_from_routing_model
000000004300577c g     F ro	0000000000000018 console_hsuart_core_getc
0000000043003b00 g     F ro	0000000000000058 mt7981_disable_l2c_shared
000000004300f000 g       coherent_ram	0000000000000000 __RW_END__
0000000043004520 g     F ro	000000000000015c mediatek_plat_sip_handler
0000000043004eb8 g     F ro	0000000000000014 xlat_arch_get_xn_desc
000000004300e028 g       coherent_ram	0000000000000000 __COHERENT_RAM_END_UNALIGNED__
0000000043003cfc g     F ro	0000000000000004 bl31_platform_setup
0000000043005794 g     F ro	0000000000000038 console_hsuart_core_putc
0000000043005854 g     F ro	0000000000000008 read_cpuectlr
0000000043008080 g       stacks	0000000000000000 __STACKS_START__
00000000430020b0 g     F ro	0000000000000170 psci_do_state_coordination
0000000043003410 g     F ro	00000000000000a4 psci_system_reset2
0000000043004f50 g     F ro	000000000000007c enable_mmu_el3
0000000043003578 g     F ro	000000000000003c mtk_efuse_get_data
0000000043007f80 g     F ro	0000000000000000 serror_aarch32
0000000043005c0c  w    F ro	0000000000000004 plat_handle_double_fault
0000000043009c80 g       .bss	0000000000000000 __PMF_TIMESTAMP_END__
0000000043007298 g       ro	0000000000000000 __pubsub_psci_suspend_pwrdown_finish_start
00000000430015f0 g     F ro	0000000000000098 gicv3_spis_config_defaults
00000000430014c0 g     F ro	0000000000000024 gicd_clr_igrpmodr
000000004300e000 g       xlat_table	0000000000000000 __XLAT_TABLE_END__
0000000043005864 g     F ro	0000000000000014 plat_my_core_pos
0000000043004144 g     F ro	000000000000003c plat_mt_gic_init
000000004300133c g     F ro	0000000000000108 runtime_svc_init
0000000043007c80 g     F ro	0000000000000000 irq_aarch64
00000000430027d8 g     F ro	0000000000000018 psci_migrate_info_type
0000000043003880 g     F ro	000000000000000c get_kernel_info_r1
0000000043003940 g     F ro	000000000000000c plat_get_soc_version
00000000430067d0 g     O ro	00000000000000c0 plat_mmap
0000000043002a7c g     F ro	0000000000000048 psci_mem_chk_range
0000000043005900  w      ro	0000000000000000 el3_panic
0000000043001478 g     F ro	0000000000000024 gicd_clr_igroupr
0000000043009608 g     O .bss	0000000000000008 gicv3_driver_data
0000000043002290 g     F ro	000000000000006c psci_acquire_pwr_domain_locks
0000000043007298 g       ro	0000000000000000 __pubsub_psci_cpu_on_finish_end
00000000430053dc g     F ro	00000000000000ac el1_sysregs_context_restore
00000000430037e0 g     F ro	0000000000000060 mtk_gpt_get_counter
0000000043009848 g     O .bss	0000000000000008 console_list
000000004300202c g     F ro	0000000000000084 psci_set_pwr_domains_to_run
0000000043001860 g     F ro	000000000000008c gicv3_cpuif_enable
0000000043001528 g     F ro	0000000000000014 gicd_write_igroupr
0000000043004fd0 g       ro	0000000000000000 report_unhandled_interrupt
0000000043005d98 g     F ro	0000000000000454 efuse_write
0000000043007f00 g     F ro	0000000000000000 fiq_aarch32
00000000430040f4 g     F ro	000000000000003c mt_gic_rdistif_init
0000000043005698  w    F ro	000000000000001c plat_get_my_stack
0000000043004d00 g     F ro	00000000000000dc mmap_add_region
00000000430071d8 g       ro	0000000000000000 __PARSER_LIB_DESCS_START__
0000000043009640 g     O .bss	0000000000000008 psci_spd_pm



Disassembly of section ro:

0000000043001000 <bl31_entrypoint>:
    43001000:	aa0003f4 	mov	x20, x0
    43001004:	aa0103f5 	mov	x21, x1
    43001008:	aa0203f6 	mov	x22, x2
    4300100c:	aa0303f7 	mov	x23, x3
    43001010:	10033f80 	adr	x0, 43007800 <sync_exception_sp_el0>
    43001014:	d51ec000 	msr	vbar_el3, x0
    43001018:	d5033fdf 	isb
    4300101c:	940010a9 	bl	430052c0 <reset_handler>
    43001020:	d2820141 	mov	x1, #0x100a                	// #4106
    43001024:	d53e1000 	mrs	x0, sctlr_el3
    43001028:	aa010000 	orr	x0, x0, x1
    4300102c:	d51e1000 	msr	sctlr_el3, x0
    43001030:	d5033fdf 	isb
    43001034:	94001165 	bl	430055c8 <init_cpu_data_ptr>
    43001038:	d2804700 	mov	x0, #0x238                 	// #568
    4300103c:	d51e1100 	msr	scr_el3, x0
    43001040:	d2900000 	mov	x0, #0x8000                	// #32768
    43001044:	f2a01020 	movk	x0, #0x81, lsl #16
    43001048:	f2c00080 	movk	x0, #0x4, lsl #32
    4300104c:	d5380501 	mrs	x1, id_aa64dfr0_el1
    43001050:	d368ac21 	ubfx	x1, x1, #40, #4
    43001054:	b4000041 	cbz	x1, 4300105c <bl31_entrypoint+0x5c>
    43001058:	b26d0000 	orr	x0, x0, #0x80000
    4300105c:	d51e1320 	msr	mdcr_el3, x0
    43001060:	d2801c00 	mov	x0, #0xe0                  	// #224
    43001064:	d51b9c00 	msr	pmcr_el0, x0
    43001068:	d50344ff 	msr	daifclr, #0x4
    4300106c:	d2a80000 	mov	x0, #0x40000000            	// #1073741824
    43001070:	d5380501 	mrs	x1, id_aa64dfr0_el1
    43001074:	d3441c21 	ubfx	x1, x1, #4, #4
    43001078:	b4000041 	cbz	x1, 43001080 <bl31_entrypoint+0x80>
    4300107c:	b26c0000 	orr	x0, x0, #0x100000
    43001080:	d51e1140 	msr	cptr_el3, x0
    43001084:	f0000020 	adrp	x0, 43008000 <__RO_END_UNALIGNED__>
    43001088:	91000000 	add	x0, x0, #0x0
    4300108c:	d0000061 	adrp	x1, 4300f000 <__BL31_END__>
    43001090:	91000021 	add	x1, x1, #0x0
    43001094:	cb000021 	sub	x1, x1, x0
    43001098:	94001242 	bl	430059a0 <inv_dcache_range>
    4300109c:	90000040 	adrp	x0, 43009000 <__STACKS_START__+0xf80>
    430010a0:	91020000 	add	x0, x0, #0x80
    430010a4:	90000041 	adrp	x1, 43009000 <__STACKS_START__+0xf80>
    430010a8:	91320021 	add	x1, x1, #0xc80
    430010ac:	cb000021 	sub	x1, x1, x0
    430010b0:	94001296 	bl	43005b08 <zeromem>
    430010b4:	b0000060 	adrp	x0, 4300e000 <psci_locks>
    430010b8:	91000000 	add	x0, x0, #0x0
    430010bc:	b0000061 	adrp	x1, 4300e000 <psci_locks>
    430010c0:	9100a021 	add	x1, x1, #0x28
    430010c4:	cb000021 	sub	x1, x1, x0
    430010c8:	94001290 	bl	43005b08 <zeromem>
    430010cc:	d50040bf 	msr	spsel, #0x0
    430010d0:	94001179 	bl	430056b4 <plat_set_my_stack>
    430010d4:	aa1403e0 	mov	x0, x20
    430010d8:	aa1503e1 	mov	x1, x21
    430010dc:	aa1603e2 	mov	x2, x22
    430010e0:	aa1703e3 	mov	x3, x23
    430010e4:	94000055 	bl	43001238 <bl31_setup>
    430010e8:	94000073 	bl	430012b4 <bl31_main>
    430010ec:	f0000020 	adrp	x0, 43008000 <__RO_END_UNALIGNED__>
    430010f0:	91000000 	add	x0, x0, #0x0
    430010f4:	f0000021 	adrp	x1, 43008000 <__RO_END_UNALIGNED__>
    430010f8:	91017421 	add	x1, x1, #0x5d
    430010fc:	cb000021 	sub	x1, x1, x0
    43001100:	9400121a 	bl	43005968 <clean_dcache_range>
    43001104:	90000040 	adrp	x0, 43009000 <__STACKS_START__+0xf80>
    43001108:	91020000 	add	x0, x0, #0x80
    4300110c:	90000041 	adrp	x1, 43009000 <__STACKS_START__+0xf80>
    43001110:	91320021 	add	x1, x1, #0xc80
    43001114:	cb000021 	sub	x1, x1, x0
    43001118:	94001214 	bl	43005968 <clean_dcache_range>
    4300111c:	14001116 	b	43005574 <el3_exit>

0000000043001120 <bl31_warm_entrypoint>:
    43001120:	d2810600 	mov	x0, #0x830                 	// #2096
    43001124:	f2a618a0 	movk	x0, #0x30c5, lsl #16
    43001128:	d51e1000 	msr	sctlr_el3, x0
    4300112c:	d5033fdf 	isb
    43001130:	10033680 	adr	x0, 43007800 <sync_exception_sp_el0>
    43001134:	d51ec000 	msr	vbar_el3, x0
    43001138:	d5033fdf 	isb
    4300113c:	94001061 	bl	430052c0 <reset_handler>
    43001140:	d2820141 	mov	x1, #0x100a                	// #4106
    43001144:	d53e1000 	mrs	x0, sctlr_el3
    43001148:	aa010000 	orr	x0, x0, x1
    4300114c:	d51e1000 	msr	sctlr_el3, x0
    43001150:	d5033fdf 	isb
    43001154:	9400111d 	bl	430055c8 <init_cpu_data_ptr>
    43001158:	d2804700 	mov	x0, #0x238                 	// #568
    4300115c:	d51e1100 	msr	scr_el3, x0
    43001160:	d2900000 	mov	x0, #0x8000                	// #32768
    43001164:	f2a01020 	movk	x0, #0x81, lsl #16
    43001168:	f2c00080 	movk	x0, #0x4, lsl #32
    4300116c:	d5380501 	mrs	x1, id_aa64dfr0_el1
    43001170:	d368ac21 	ubfx	x1, x1, #40, #4
    43001174:	b4000041 	cbz	x1, 4300117c <bl31_warm_entrypoint+0x5c>
    43001178:	b26d0000 	orr	x0, x0, #0x80000
    4300117c:	d51e1320 	msr	mdcr_el3, x0
    43001180:	d2801c00 	mov	x0, #0xe0                  	// #224
    43001184:	d51b9c00 	msr	pmcr_el0, x0
    43001188:	d50344ff 	msr	daifclr, #0x4
    4300118c:	d2a80000 	mov	x0, #0x40000000            	// #1073741824
    43001190:	d5380501 	mrs	x1, id_aa64dfr0_el1
    43001194:	d3441c21 	ubfx	x1, x1, #4, #4
    43001198:	b4000041 	cbz	x1, 430011a0 <bl31_warm_entrypoint+0x80>
    4300119c:	b26c0000 	orr	x0, x0, #0x100000
    430011a0:	d51e1140 	msr	cptr_el3, x0
    430011a4:	d50040bf 	msr	spsel, #0x0
    430011a8:	94001143 	bl	430056b4 <plat_set_my_stack>
    430011ac:	d2800020 	mov	x0, #0x1                   	// #1
    430011b0:	94001296 	bl	43005c08 <bl31_plat_enable_mmu>
    430011b4:	940004ad 	bl	43002468 <psci_warmboot_entrypoint>
    430011b8:	140010ef 	b	43005574 <el3_exit>

00000000430011bc <cm_get_context>:
    430011bc:	d53ed041 	mrs	x1, tpidr_el3
    430011c0:	7100001f 	cmp	w0, #0x0
    430011c4:	9a9f07e0 	cset	x0, ne	// ne = any
    430011c8:	f8607820 	ldr	x0, [x1, x0, lsl #3]
    430011cc:	d65f03c0 	ret

00000000430011d0 <cm_get_context_by_index>:
    430011d0:	a9be7bfd 	stp	x29, x30, [sp, #-32]!
    430011d4:	910003fd 	mov	x29, sp
    430011d8:	f9000bf3 	str	x19, [sp, #16]
    430011dc:	2a0103f3 	mov	w19, w1
    430011e0:	940010ff 	bl	430055dc <_cpu_data_by_index>
    430011e4:	7100027f 	cmp	w19, #0x0
    430011e8:	9a9f07e1 	cset	x1, ne	// ne = any
    430011ec:	f9400bf3 	ldr	x19, [sp, #16]
    430011f0:	f8617800 	ldr	x0, [x0, x1, lsl #3]
    430011f4:	a8c27bfd 	ldp	x29, x30, [sp], #32
    430011f8:	d65f03c0 	ret

00000000430011fc <cm_set_context_by_index>:
    430011fc:	a9be7bfd 	stp	x29, x30, [sp, #-32]!
    43001200:	910003fd 	mov	x29, sp
    43001204:	a90153f3 	stp	x19, x20, [sp, #16]
    43001208:	aa0103f3 	mov	x19, x1
    4300120c:	2a0203f4 	mov	w20, w2
    43001210:	940010f3 	bl	430055dc <_cpu_data_by_index>
    43001214:	7100029f 	cmp	w20, #0x0
    43001218:	9a9f07e1 	cset	x1, ne	// ne = any
    4300121c:	f8217813 	str	x19, [x0, x1, lsl #3]
    43001220:	a94153f3 	ldp	x19, x20, [sp, #16]
    43001224:	a8c27bfd 	ldp	x29, x30, [sp], #32
    43001228:	d65f03c0 	ret

000000004300122c <get_arm_std_svc_args>:
    4300122c:	b0000020 	adrp	x0, 43006000 <efuse_write+0x268>
    43001230:	911f0000 	add	x0, x0, #0x7c0
    43001234:	d65f03c0 	ret

0000000043001238 <bl31_setup>:
    43001238:	a9bf7bfd 	stp	x29, x30, [sp, #-16]!
    4300123c:	910003fd 	mov	x29, sp
    43001240:	94000a87 	bl	43003c5c <bl31_early_platform_setup2>
    43001244:	a8c17bfd 	ldp	x29, x30, [sp], #16
    43001248:	14000aae 	b	43003d00 <bl31_plat_arch_setup>

000000004300124c <bl31_prepare_next_image_entry>:
    4300124c:	a9be7bfd 	stp	x29, x30, [sp, #-32]!
    43001250:	910003fd 	mov	x29, sp
    43001254:	a90153f3 	stp	x19, x20, [sp, #16]
    43001258:	d5380400 	mrs	x0, id_aa64pfr0_el1
    4300125c:	927c0c00 	and	x0, x0, #0xf0
    43001260:	f100401f 	cmp	x0, #0x10
    43001264:	54000061 	b.ne	43001270 <bl31_prepare_next_image_entry+0x24>  // b.any
    43001268:	94000e06 	bl	43004a80 <console_flush>
    4300126c:	940011a5 	bl	43005900 <do_panic>
    43001270:	f0000020 	adrp	x0, 43008000 <__RO_END_UNALIGNED__>
    43001274:	b9405813 	ldr	w19, [x0, #88]
    43001278:	2a1303e0 	mov	w0, w19
    4300127c:	94000a41 	bl	43003b80 <bl31_plat_get_next_image_ep_info>
    43001280:	aa0003f4 	mov	x20, x0
    43001284:	94000d94 	bl	430048d4 <print_entry_point_info>
    43001288:	aa1403e0 	mov	x0, x20
    4300128c:	9400022f 	bl	43001b48 <cm_init_my_context>
    43001290:	7100067f 	cmp	w19, #0x1
    43001294:	54000081 	b.ne	430012a4 <bl31_prepare_next_image_entry+0x58>  // b.any
    43001298:	a94153f3 	ldp	x19, x20, [sp, #16]
    4300129c:	a8c27bfd 	ldp	x29, x30, [sp], #32
    430012a0:	1400028f 	b	43001cdc <cm_prepare_el3_exit_ns>
    430012a4:	2a1303e0 	mov	w0, w19
    430012a8:	a94153f3 	ldp	x19, x20, [sp, #16]
    430012ac:	a8c27bfd 	ldp	x29, x30, [sp], #32
    430012b0:	14000259 	b	43001c14 <cm_prepare_el3_exit>

00000000430012b4 <bl31_main>:
    430012b4:	a9bf7bfd 	stp	x29, x30, [sp, #-16]!
    430012b8:	910003fd 	mov	x29, sp
    430012bc:	94000a90 	bl	43003cfc <bl31_platform_setup>
    430012c0:	940001ab 	bl	4300196c <cm_init>
    430012c4:	9400001e 	bl	4300133c <runtime_svc_init>
    430012c8:	90000040 	adrp	x0, 43009000 <__STACKS_START__+0xf80>
    430012cc:	f942d000 	ldr	x0, [x0, #1440]
    430012d0:	b4000040 	cbz	x0, 430012d8 <bl31_main+0x24>
    430012d4:	d63f0000 	blr	x0
    430012d8:	97ffffdd 	bl	4300124c <bl31_prepare_next_image_entry>
    430012dc:	94000de9 	bl	43004a80 <console_flush>
    430012e0:	a8c17bfd 	ldp	x29, x30, [sp], #16
    430012e4:	14000e08 	b	43004b04 <bl31_plat_runtime_setup>

00000000430012e8 <get_scr_el3_from_routing_model>:
    430012e8:	2a0003e1 	mov	w1, w0
    430012ec:	90000042 	adrp	x2, 43009000 <__STACKS_START__+0xf80>
    430012f0:	9116a042 	add	x2, x2, #0x5a8
    430012f4:	8b010c40 	add	x0, x2, x1, lsl #3
    430012f8:	8b010c43 	add	x3, x2, x1, lsl #3
    430012fc:	8b010c41 	add	x1, x2, x1, lsl #3
    43001300:	f9400463 	ldr	x3, [x3, #8]
    43001304:	f9402400 	ldr	x0, [x0, #72]
    43001308:	f9401421 	ldr	x1, [x1, #40]
    4300130c:	aa030000 	orr	x0, x0, x3
    43001310:	aa010000 	orr	x0, x0, x1
    43001314:	d65f03c0 	ret

0000000043001318 <get_interrupt_type_handler>:
    43001318:	7100081f 	cmp	w0, #0x2
    4300131c:	540000c8 	b.hi	43001334 <get_interrupt_type_handler+0x1c>  // b.pmore
    43001320:	d37b7c00 	ubfiz	x0, x0, #5, #32
    43001324:	90000041 	adrp	x1, 43009000 <__STACKS_START__+0xf80>
    43001328:	9116a021 	add	x1, x1, #0x5a8
    4300132c:	f8606820 	ldr	x0, [x1, x0]
    43001330:	d65f03c0 	ret
    43001334:	d2800000 	mov	x0, #0x0                   	// #0
    43001338:	17fffffe 	b	43001330 <get_interrupt_type_handler+0x18>

000000004300133c <runtime_svc_init>:
    4300133c:	a9bc7bfd 	stp	x29, x30, [sp, #-64]!
    43001340:	910003fd 	mov	x29, sp
    43001344:	a90153f3 	stp	x19, x20, [sp, #16]
    43001348:	d0000033 	adrp	x19, 43007000 <gpt_soc_data+0x1ba>
    4300134c:	91076273 	add	x19, x19, #0x1d8
    43001350:	a9025bf5 	stp	x21, x22, [sp, #32]
    43001354:	d0000035 	adrp	x21, 43007000 <gpt_soc_data+0x1ba>
    43001358:	9105e2b5 	add	x21, x21, #0x178
    4300135c:	cb150273 	sub	x19, x19, x21
    43001360:	a90363f7 	stp	x23, x24, [sp, #48]
    43001364:	f1007e7f 	cmp	x19, #0x1f
    43001368:	54000649 	b.ls	43001430 <runtime_svc_init+0xf4>  // b.plast
    4300136c:	d345fe74 	lsr	x20, x19, #5
    43001370:	52800017 	mov	w23, #0x0                   	// #0
    43001374:	d2800013 	mov	x19, #0x0                   	// #0
    43001378:	90000056 	adrp	x22, 43009000 <__STACKS_START__+0xf80>
    4300137c:	912f92d6 	add	x22, x22, #0xbe4
    43001380:	d2801002 	mov	x2, #0x80                  	// #128
    43001384:	aa1603e0 	mov	x0, x22
    43001388:	12800001 	mov	w1, #0xffffffff            	// #-1
    4300138c:	940013ad 	bl	43006240 <memset>
    43001390:	d37bea78 	lsl	x24, x19, #5
    43001394:	8b1316b3 	add	x19, x21, x19, lsl #5
    43001398:	38786aa1 	ldrb	w1, [x21, x24]
    4300139c:	39400660 	ldrb	w0, [x19, #1]
    430013a0:	6b00003f 	cmp	w1, w0
    430013a4:	54000148 	b.hi	430013cc <runtime_svc_init+0x90>  // b.pmore
    430013a8:	7100fc1f 	cmp	w0, #0x3f
    430013ac:	54000108 	b.hi	430013cc <runtime_svc_init+0x90>  // b.pmore
    430013b0:	39400a60 	ldrb	w0, [x19, #2]
    430013b4:	7100041f 	cmp	w0, #0x1
    430013b8:	540000a8 	b.hi	430013cc <runtime_svc_init+0x90>  // b.pmore
    430013bc:	f9400a60 	ldr	x0, [x19, #16]
    430013c0:	b50002a0 	cbnz	x0, 43001414 <runtime_svc_init+0xd8>
    430013c4:	f9400e60 	ldr	x0, [x19, #24]
    430013c8:	b5000060 	cbnz	x0, 430013d4 <runtime_svc_init+0x98>
    430013cc:	94000dad 	bl	43004a80 <console_flush>
    430013d0:	9400114c 	bl	43005900 <do_panic>
    430013d4:	39400a63 	ldrb	w3, [x19, #2]
    430013d8:	38786aa1 	ldrb	w1, [x21, x24]
    430013dc:	39400662 	ldrb	w2, [x19, #1]
    430013e0:	531a0063 	ubfiz	w3, w3, #6, #1
    430013e4:	12001421 	and	w1, w1, #0x3f
    430013e8:	2a030020 	orr	w0, w1, w3
    430013ec:	12001442 	and	w2, w2, #0x3f
    430013f0:	2a0003e1 	mov	w1, w0
    430013f4:	2a030042 	orr	w2, w2, w3
    430013f8:	8b0002c0 	add	x0, x22, x0
    430013fc:	6b02003f 	cmp	w1, w2
    43001400:	540000e8 	b.hi	4300141c <runtime_svc_init+0xe0>  // b.pmore
    43001404:	11000421 	add	w1, w1, #0x1
    43001408:	38001417 	strb	w23, [x0], #1
    4300140c:	12001c21 	and	w1, w1, #0xff
    43001410:	17fffffb 	b	430013fc <runtime_svc_init+0xc0>
    43001414:	d63f0000 	blr	x0
    43001418:	34fffde0 	cbz	w0, 430013d4 <runtime_svc_init+0x98>
    4300141c:	110006e0 	add	w0, w23, #0x1
    43001420:	12001c17 	and	w23, w0, #0xff
    43001424:	92401c13 	and	x19, x0, #0xff
    43001428:	eb20029f 	cmp	x20, w0, uxtb
    4300142c:	54fffb28 	b.hi	43001390 <runtime_svc_init+0x54>  // b.pmore
    43001430:	a94153f3 	ldp	x19, x20, [sp, #16]
    43001434:	a9425bf5 	ldp	x21, x22, [sp, #32]
    43001438:	a94363f7 	ldp	x23, x24, [sp, #48]
    4300143c:	a8c47bfd 	ldp	x29, x30, [sp], #64
    43001440:	d65f03c0 	ret

0000000043001444 <gicd_set_icfgr>:
    43001444:	531f0c24 	ubfiz	w4, w1, #1, #4
    43001448:	53047c21 	lsr	w1, w1, #4
    4300144c:	91300000 	add	x0, x0, #0xc00
    43001450:	12000442 	and	w2, w2, #0x3
    43001454:	d37ef421 	lsl	x1, x1, #2
    43001458:	52800063 	mov	w3, #0x3                   	// #3
    4300145c:	1ac42063 	lsl	w3, w3, w4
    43001460:	1ac42042 	lsl	w2, w2, w4
    43001464:	b8606825 	ldr	w5, [x1, x0]
    43001468:	0a2300a3 	bic	w3, w5, w3
    4300146c:	2a020063 	orr	w3, w3, w2
    43001470:	b8206823 	str	w3, [x1, x0]
    43001474:	d65f03c0 	ret

0000000043001478 <gicd_clr_igroupr>:
    43001478:	53057c23 	lsr	w3, w1, #5
    4300147c:	91020000 	add	x0, x0, #0x80
    43001480:	52800022 	mov	w2, #0x1                   	// #1
    43001484:	d37ef463 	lsl	x3, x3, #2
    43001488:	1ac12041 	lsl	w1, w2, w1
    4300148c:	b8606864 	ldr	w4, [x3, x0]
    43001490:	0a210081 	bic	w1, w4, w1
    43001494:	b8206861 	str	w1, [x3, x0]
    43001498:	d65f03c0 	ret

000000004300149c <gicd_set_igrpmodr>:
    4300149c:	53057c23 	lsr	w3, w1, #5
    430014a0:	91340000 	add	x0, x0, #0xd00
    430014a4:	52800022 	mov	w2, #0x1                   	// #1
    430014a8:	d37ef463 	lsl	x3, x3, #2
    430014ac:	1ac12041 	lsl	w1, w2, w1
    430014b0:	b8606864 	ldr	w4, [x3, x0]
    430014b4:	2a040021 	orr	w1, w1, w4
    430014b8:	b8206861 	str	w1, [x3, x0]
    430014bc:	d65f03c0 	ret

00000000430014c0 <gicd_clr_igrpmodr>:
    430014c0:	53057c23 	lsr	w3, w1, #5
    430014c4:	91340000 	add	x0, x0, #0xd00
    430014c8:	52800022 	mov	w2, #0x1                   	// #1
    430014cc:	d37ef463 	lsl	x3, x3, #2
    430014d0:	1ac12041 	lsl	w1, w2, w1
    430014d4:	b8606864 	ldr	w4, [x3, x0]
    430014d8:	0a210081 	bic	w1, w4, w1
    430014dc:	b8206861 	str	w1, [x3, x0]
    430014e0:	d65f03c0 	ret

00000000430014e4 <gicd_set_isenabler>:
    430014e4:	52800022 	mov	w2, #0x1                   	// #1
    430014e8:	91040000 	add	x0, x0, #0x100
    430014ec:	1ac12042 	lsl	w2, w2, w1
    430014f0:	53057c21 	lsr	w1, w1, #5
    430014f4:	d37ef421 	lsl	x1, x1, #2
    430014f8:	b8206822 	str	w2, [x1, x0]
    430014fc:	d65f03c0 	ret

0000000043001500 <gicd_set_ipriorityr>:
    43001500:	91100000 	add	x0, x0, #0x400
    43001504:	2a0103e1 	mov	w1, w1
    43001508:	12001c42 	and	w2, w2, #0xff
    4300150c:	38216802 	strb	w2, [x0, x1]
    43001510:	d65f03c0 	ret

0000000043001514 <gicd_write_icfgr>:
    43001514:	53047c21 	lsr	w1, w1, #4
    43001518:	91300000 	add	x0, x0, #0xc00
    4300151c:	d37ef421 	lsl	x1, x1, #2
    43001520:	b8206822 	str	w2, [x1, x0]
    43001524:	d65f03c0 	ret

0000000043001528 <gicd_write_igroupr>:
    43001528:	53057c21 	lsr	w1, w1, #5
    4300152c:	91020000 	add	x0, x0, #0x80
    43001530:	d37ef421 	lsl	x1, x1, #2
    43001534:	b8206822 	str	w2, [x1, x0]
    43001538:	d65f03c0 	ret

000000004300153c <gicd_write_ipriorityr>:
    4300153c:	927e7421 	and	x1, x1, #0xfffffffc
    43001540:	91100000 	add	x0, x0, #0x400
    43001544:	b8206822 	str	w2, [x1, x0]
    43001548:	d65f03c0 	ret

000000004300154c <gicv3_rdistif_mark_core_awake>:
    4300154c:	b9401401 	ldr	w1, [x0, #20]
    43001550:	91005002 	add	x2, x0, #0x14
    43001554:	121e7821 	and	w1, w1, #0xfffffffd
    43001558:	b9001401 	str	w1, [x0, #20]
    4300155c:	b9400040 	ldr	w0, [x2]
    43001560:	3717ffe0 	tbnz	w0, #2, 4300155c <gicv3_rdistif_mark_core_awake+0x10>
    43001564:	d65f03c0 	ret

0000000043001568 <gicv3_rdistif_base_addrs_probe>:
    43001568:	a9bc7bfd 	stp	x29, x30, [sp, #-64]!
    4300156c:	910003fd 	mov	x29, sp
    43001570:	a90153f3 	stp	x19, x20, [sp, #16]
    43001574:	aa0203f3 	mov	x19, x2
    43001578:	a9025bf5 	stp	x21, x22, [sp, #32]
    4300157c:	aa0003f6 	mov	x22, x0
    43001580:	aa0303f5 	mov	x21, x3
    43001584:	f9001bf7 	str	x23, [sp, #48]
    43001588:	2a0103f7 	mov	w23, w1
    4300158c:	f9400674 	ldr	x20, [x19, #8]
    43001590:	b40001f5 	cbz	x21, 430015cc <gicv3_rdistif_base_addrs_probe+0x64>
    43001594:	d360de81 	ubfx	x1, x20, #32, #24
    43001598:	d378fe80 	lsr	x0, x20, #56
    4300159c:	aa008020 	orr	x0, x1, x0, lsl #32
    430015a0:	d63f02a0 	blr	x21
    430015a4:	6b17001f 	cmp	w0, w23
    430015a8:	54000042 	b.cs	430015b0 <gicv3_rdistif_base_addrs_probe+0x48>  // b.hs, b.nlast
    430015ac:	f8205ad3 	str	x19, [x22, w0, uxtw #3]
    430015b0:	91408273 	add	x19, x19, #0x20, lsl #12
    430015b4:	3627fed4 	tbz	w20, #4, 4300158c <gicv3_rdistif_base_addrs_probe+0x24>
    430015b8:	a94153f3 	ldp	x19, x20, [sp, #16]
    430015bc:	a9425bf5 	ldp	x21, x22, [sp, #32]
    430015c0:	f9401bf7 	ldr	x23, [sp, #48]
    430015c4:	a8c47bfd 	ldp	x29, x30, [sp], #64
    430015c8:	d65f03c0 	ret
    430015cc:	53085e80 	ubfx	w0, w20, #8, #16
    430015d0:	17fffff5 	b	430015a4 <gicv3_rdistif_base_addrs_probe+0x3c>

00000000430015d4 <gicv3_get_spi_limit>:
    430015d4:	b9400400 	ldr	w0, [x0, #4]
    430015d8:	52807f81 	mov	w1, #0x3fc                 	// #1020
    430015dc:	531b1000 	ubfiz	w0, w0, #5, #5
    430015e0:	11008000 	add	w0, w0, #0x20
    430015e4:	710ff01f 	cmp	w0, #0x3fc
    430015e8:	1a819000 	csel	w0, w0, w1, ls	// ls = plast
    430015ec:	d65f03c0 	ret

00000000430015f0 <gicv3_spis_config_defaults>:
    430015f0:	a9bd7bfd 	stp	x29, x30, [sp, #-48]!
    430015f4:	910003fd 	mov	x29, sp
    430015f8:	a90153f3 	stp	x19, x20, [sp, #16]
    430015fc:	aa0003f4 	mov	x20, x0
    43001600:	f90013f5 	str	x21, [sp, #32]
    43001604:	97fffff4 	bl	430015d4 <gicv3_get_spi_limit>
    43001608:	2a0003f3 	mov	w19, w0
    4300160c:	52800415 	mov	w21, #0x20                  	// #32
    43001610:	6b1302bf 	cmp	w21, w19
    43001614:	54000163 	b.cc	43001640 <gicv3_spis_config_defaults+0x50>  // b.lo, b.ul, b.last
    43001618:	52800415 	mov	w21, #0x20                  	// #32
    4300161c:	6b1302bf 	cmp	w21, w19
    43001620:	540001c3 	b.cc	43001658 <gicv3_spis_config_defaults+0x68>  // b.lo, b.ul, b.last
    43001624:	52800415 	mov	w21, #0x20                  	// #32
    43001628:	6b1302bf 	cmp	w21, w19
    4300162c:	54000223 	b.cc	43001670 <gicv3_spis_config_defaults+0x80>  // b.lo, b.ul, b.last
    43001630:	a94153f3 	ldp	x19, x20, [sp, #16]
    43001634:	f94013f5 	ldr	x21, [sp, #32]
    43001638:	a8c37bfd 	ldp	x29, x30, [sp], #48
    4300163c:	d65f03c0 	ret
    43001640:	2a1503e1 	mov	w1, w21
    43001644:	aa1403e0 	mov	x0, x20
    43001648:	12800002 	mov	w2, #0xffffffff            	// #-1
    4300164c:	110082b5 	add	w21, w21, #0x20
    43001650:	97ffffb6 	bl	43001528 <gicd_write_igroupr>
    43001654:	17ffffef 	b	43001610 <gicv3_spis_config_defaults+0x20>
    43001658:	2a1503e1 	mov	w1, w21
    4300165c:	aa1403e0 	mov	x0, x20
    43001660:	3201c3e2 	mov	w2, #0x80808080            	// #-2139062144
    43001664:	110012b5 	add	w21, w21, #0x4
    43001668:	97ffffb5 	bl	4300153c <gicd_write_ipriorityr>
    4300166c:	17ffffec 	b	4300161c <gicv3_spis_config_defaults+0x2c>
    43001670:	2a1503e1 	mov	w1, w21
    43001674:	aa1403e0 	mov	x0, x20
    43001678:	52800002 	mov	w2, #0x0                   	// #0
    4300167c:	110042b5 	add	w21, w21, #0x10
    43001680:	97ffffa5 	bl	43001514 <gicd_write_icfgr>
    43001684:	17ffffe9 	b	43001628 <gicv3_spis_config_defaults+0x38>

0000000043001688 <gicv3_secure_spis_config_props>:
    43001688:	a9bb7bfd 	stp	x29, x30, [sp, #-80]!
    4300168c:	910003fd 	mov	x29, sp
    43001690:	a90153f3 	stp	x19, x20, [sp, #16]
    43001694:	aa0103f3 	mov	x19, x1
    43001698:	a9025bf5 	stp	x21, x22, [sp, #32]
    4300169c:	aa0003f5 	mov	x21, x0
    430016a0:	52800016 	mov	w22, #0x0                   	// #0
    430016a4:	a90363f7 	stp	x23, x24, [sp, #48]
    430016a8:	b2409ff8 	mov	x24, #0xffffffffff          	// #1099511627775
    430016ac:	8b224837 	add	x23, x1, w2, uxtw #2
    430016b0:	f90023f9 	str	x25, [sp, #64]
    430016b4:	91401819 	add	x25, x0, #0x6, lsl #12
    430016b8:	f2a01ff8 	movk	x24, #0xff, lsl #16
    430016bc:	eb17027f 	cmp	x19, x23
    430016c0:	54000101 	b.ne	430016e0 <gicv3_secure_spis_config_props+0x58>  // b.any
    430016c4:	a94153f3 	ldp	x19, x20, [sp, #16]
    430016c8:	2a1603e0 	mov	w0, w22
    430016cc:	a9425bf5 	ldp	x21, x22, [sp, #32]
    430016d0:	a94363f7 	ldp	x23, x24, [sp, #48]
    430016d4:	f94023f9 	ldr	x25, [sp, #64]
    430016d8:	a8c57bfd 	ldp	x29, x30, [sp], #80
    430016dc:	d65f03c0 	ret
    430016e0:	b9400274 	ldr	w20, [x19]
    430016e4:	12002694 	and	w20, w20, #0x3ff
    430016e8:	51008280 	sub	w0, w20, #0x20
    430016ec:	710f6c1f 	cmp	w0, #0x3db
    430016f0:	54000388 	b.hi	43001760 <gicv3_secure_spis_config_props+0xd8>  // b.pmore
    430016f4:	2a1403e1 	mov	w1, w20
    430016f8:	aa1503e0 	mov	x0, x21
    430016fc:	97ffff5f 	bl	43001478 <gicd_clr_igroupr>
    43001700:	b9400260 	ldr	w0, [x19]
    43001704:	2a1403e1 	mov	w1, w20
    43001708:	720e041f 	tst	w0, #0xc0000
    4300170c:	aa1503e0 	mov	x0, x21
    43001710:	540002c1 	b.ne	43001768 <gicv3_secure_spis_config_props+0xe0>  // b.any
    43001714:	321e02d6 	orr	w22, w22, #0x4
    43001718:	97ffff61 	bl	4300149c <gicd_set_igrpmodr>
    4300171c:	b9400262 	ldr	w2, [x19]
    43001720:	2a1403e1 	mov	w1, w20
    43001724:	aa1503e0 	mov	x0, x21
    43001728:	d3545442 	ubfx	x2, x2, #20, #2
    4300172c:	97ffff46 	bl	43001444 <gicd_set_icfgr>
    43001730:	b9400262 	ldr	w2, [x19]
    43001734:	2a1403e1 	mov	w1, w20
    43001738:	aa1503e0 	mov	x0, x21
    4300173c:	d34a4442 	ubfx	x2, x2, #10, #8
    43001740:	97ffff70 	bl	43001500 <gicd_set_ipriorityr>
    43001744:	d53800a0 	mrs	x0, mpidr_el1
    43001748:	d37d2681 	ubfiz	x1, x20, #3, #10
    4300174c:	8a180000 	and	x0, x0, x24
    43001750:	f8216b20 	str	x0, [x25, x1]
    43001754:	2a1403e1 	mov	w1, w20
    43001758:	aa1503e0 	mov	x0, x21
    4300175c:	97ffff62 	bl	430014e4 <gicd_set_isenabler>
    43001760:	91001273 	add	x19, x19, #0x4
    43001764:	17ffffd6 	b	430016bc <gicv3_secure_spis_config_props+0x34>
    43001768:	320002d6 	orr	w22, w22, #0x1
    4300176c:	97ffff55 	bl	430014c0 <gicd_clr_igrpmodr>
    43001770:	17ffffeb 	b	4300171c <gicv3_secure_spis_config_props+0x94>

0000000043001774 <gicd_wait_for_pending_write>:
    43001774:	b9400001 	ldr	w1, [x0]
    43001778:	37ffffe1 	tbnz	w1, #31, 43001774 <gicd_wait_for_pending_write>
    4300177c:	d65f03c0 	ret

0000000043001780 <gicv3_driver_init>:
    43001780:	a9be7bfd 	stp	x29, x30, [sp, #-32]!
    43001784:	d29ffd01 	mov	x1, #0xffe8                	// #65512
    43001788:	910003fd 	mov	x29, sp
    4300178c:	a90153f3 	stp	x19, x20, [sp, #16]
    43001790:	aa0003f3 	mov	x19, x0
    43001794:	f9400000 	ldr	x0, [x0]
    43001798:	f9400662 	ldr	x2, [x19, #8]
    4300179c:	b8616801 	ldr	w1, [x0, x1]
    430017a0:	b9400000 	ldr	w0, [x0]
    430017a4:	b4000102 	cbz	x2, 430017c4 <gicv3_driver_init+0x44>
    430017a8:	a9420e60 	ldp	x0, x3, [x19, #32]
    430017ac:	b9401e61 	ldr	w1, [x19, #28]
    430017b0:	97ffff6e 	bl	43001568 <gicv3_rdistif_base_addrs_probe>
    430017b4:	f9401260 	ldr	x0, [x19, #32]
    430017b8:	b9401e61 	ldr	w1, [x19, #28]
    430017bc:	d37df021 	lsl	x1, x1, #3
    430017c0:	9400105c 	bl	43005930 <flush_dcache_range>
    430017c4:	90000054 	adrp	x20, 43009000 <__STACKS_START__+0xf80>
    430017c8:	d2800101 	mov	x1, #0x8                   	// #8
    430017cc:	91182280 	add	x0, x20, #0x608
    430017d0:	f9030693 	str	x19, [x20, #1544]
    430017d4:	94001057 	bl	43005930 <flush_dcache_range>
    430017d8:	f9430680 	ldr	x0, [x20, #1544]
    430017dc:	d2800601 	mov	x1, #0x30                  	// #48
    430017e0:	a94153f3 	ldp	x19, x20, [sp, #16]
    430017e4:	a8c27bfd 	ldp	x29, x30, [sp], #32
    430017e8:	14001052 	b	43005930 <flush_dcache_range>

00000000430017ec <gicv3_distif_init>:
    430017ec:	a9be7bfd 	stp	x29, x30, [sp, #-32]!
    430017f0:	910003fd 	mov	x29, sp
    430017f4:	f9000bf3 	str	x19, [sp, #16]
    430017f8:	90000053 	adrp	x19, 43009000 <__STACKS_START__+0xf80>
    430017fc:	f9430660 	ldr	x0, [x19, #1544]
    43001800:	f9400000 	ldr	x0, [x0]
    43001804:	b9400001 	ldr	w1, [x0]
    43001808:	121d7021 	and	w1, w1, #0xfffffff8
    4300180c:	b9000001 	str	w1, [x0]
    43001810:	97ffffd9 	bl	43001774 <gicd_wait_for_pending_write>
    43001814:	b9400001 	ldr	w1, [x0]
    43001818:	321c0421 	orr	w1, w1, #0x30
    4300181c:	b9000001 	str	w1, [x0]
    43001820:	97ffffd5 	bl	43001774 <gicd_wait_for_pending_write>
    43001824:	97ffff73 	bl	430015f0 <gicv3_spis_config_defaults>
    43001828:	f9430660 	ldr	x0, [x19, #1544]
    4300182c:	f9400801 	ldr	x1, [x0, #16]
    43001830:	b9401802 	ldr	w2, [x0, #24]
    43001834:	f9400000 	ldr	x0, [x0]
    43001838:	97ffff94 	bl	43001688 <gicv3_secure_spis_config_props>
    4300183c:	f9430661 	ldr	x1, [x19, #1544]
    43001840:	f9400bf3 	ldr	x19, [sp, #16]
    43001844:	f9400021 	ldr	x1, [x1]
    43001848:	b9400022 	ldr	w2, [x1]
    4300184c:	2a020000 	orr	w0, w0, w2
    43001850:	b9000020 	str	w0, [x1]
    43001854:	aa0103e0 	mov	x0, x1
    43001858:	a8c27bfd 	ldp	x29, x30, [sp], #32
    4300185c:	17ffffc6 	b	43001774 <gicd_wait_for_pending_write>

0000000043001860 <gicv3_cpuif_enable>:
    43001860:	a9bf7bfd 	stp	x29, x30, [sp, #-16]!
    43001864:	90000041 	adrp	x1, 43009000 <__STACKS_START__+0xf80>
    43001868:	910003fd 	mov	x29, sp
    4300186c:	f9430421 	ldr	x1, [x1, #1544]
    43001870:	f9401021 	ldr	x1, [x1, #32]
    43001874:	f8605820 	ldr	x0, [x1, w0, uxtw #3]
    43001878:	97ffff35 	bl	4300154c <gicv3_rdistif_mark_core_awake>
    4300187c:	d53ecca0 	mrs	x0, icc_sre_el3
    43001880:	b2400c00 	orr	x0, x0, #0xf
    43001884:	d51ecca0 	msr	icc_sre_el3, x0
    43001888:	d53e1100 	mrs	x0, scr_el3
    4300188c:	b2400001 	orr	x1, x0, #0x1
    43001890:	d51e1101 	msr	scr_el3, x1
    43001894:	d5033fdf 	isb
    43001898:	d53cc9a1 	mrs	x1, icc_sre_el2
    4300189c:	b2400c21 	orr	x1, x1, #0xf
    430018a0:	d51cc9a1 	msr	icc_sre_el2, x1
    430018a4:	d2800021 	mov	x1, #0x1                   	// #1
    430018a8:	d518cca1 	msr	icc_sre_el1, x1
    430018ac:	d5033fdf 	isb
    430018b0:	927ff800 	and	x0, x0, #0xfffffffffffffffe
    430018b4:	d51e1100 	msr	scr_el3, x0
    430018b8:	d5033fdf 	isb
    430018bc:	d518cca1 	msr	icc_sre_el1, x1
    430018c0:	d5033fdf 	isb
    430018c4:	d2801fe0 	mov	x0, #0xff                  	// #255
    430018c8:	d5184600 	msr	icc_pmr_el1, x0
    430018cc:	d518ccc1 	msr	icc_igrpen0_el1, x1
    430018d0:	d53ecce0 	mrs	x0, icc_igrpen1_el3
    430018d4:	b27f0000 	orr	x0, x0, #0x2
    430018d8:	d51ecce0 	msr	icc_igrpen1_el3, x0
    430018dc:	d5033fdf 	isb
    430018e0:	d5033f9f 	dsb	sy
    430018e4:	a8c17bfd 	ldp	x29, x30, [sp], #16
    430018e8:	d65f03c0 	ret

00000000430018ec <gicv3_get_pending_interrupt_type>:
    430018ec:	d538c840 	mrs	x0, icc_hppir0_el1
    430018f0:	12005c00 	and	w0, w0, #0xffffff
    430018f4:	d65f03c0 	ret

00000000430018f8 <udelay>:
    430018f8:	a9bd7bfd 	stp	x29, x30, [sp, #-48]!
    430018fc:	910003fd 	mov	x29, sp
    43001900:	f90013f5 	str	x21, [sp, #32]
    43001904:	90000055 	adrp	x21, 43009000 <__STACKS_START__+0xf80>
    43001908:	a90153f3 	stp	x19, x20, [sp, #16]
    4300190c:	2a0003f3 	mov	w19, w0
    43001910:	f9430aa0 	ldr	x0, [x21, #1552]
    43001914:	f9400000 	ldr	x0, [x0]
    43001918:	d63f0000 	blr	x0
    4300191c:	2a0003f4 	mov	w20, w0
    43001920:	f9430aa1 	ldr	x1, [x21, #1552]
    43001924:	29410420 	ldp	w0, w1, [x1, #8]
    43001928:	d1000402 	sub	x2, x0, #0x1
    4300192c:	9ba10a73 	umaddl	x19, w19, w1, x2
    43001930:	9ac00a73 	udiv	x19, x19, x0
    43001934:	91000673 	add	x19, x19, #0x1
    43001938:	f9430aa0 	ldr	x0, [x21, #1552]
    4300193c:	f9400000 	ldr	x0, [x0]
    43001940:	d63f0000 	blr	x0
    43001944:	4b000281 	sub	w1, w20, w0
    43001948:	eb13003f 	cmp	x1, x19
    4300194c:	54ffff63 	b.cc	43001938 <udelay+0x40>  // b.lo, b.ul, b.last
    43001950:	a94153f3 	ldp	x19, x20, [sp, #16]
    43001954:	f94013f5 	ldr	x21, [sp, #32]
    43001958:	a8c37bfd 	ldp	x29, x30, [sp], #48
    4300195c:	d65f03c0 	ret

0000000043001960 <timer_init>:
    43001960:	90000041 	adrp	x1, 43009000 <__STACKS_START__+0xf80>
    43001964:	f9030820 	str	x0, [x1, #1552]
    43001968:	d65f03c0 	ret

000000004300196c <cm_init>:
    4300196c:	d65f03c0 	ret

0000000043001970 <cm_setup_context>:
    43001970:	a9bd7bfd 	stp	x29, x30, [sp, #-48]!
    43001974:	910003fd 	mov	x29, sp
    43001978:	a90153f3 	stp	x19, x20, [sp, #16]
    4300197c:	aa0003f3 	mov	x19, x0
    43001980:	aa0103f4 	mov	x20, x1
    43001984:	d2804801 	mov	x1, #0x240                 	// #576
    43001988:	f90013f5 	str	x21, [sp, #32]
    4300198c:	9400105f 	bl	43005b08 <zeromem>
    43001990:	d53e1102 	mrs	x2, scr_el3
    43001994:	9281a0e0 	mov	x0, #0xfffffffffffff2f8    	// #-3336
    43001998:	f2f7ffe0 	movk	x0, #0xbfff, lsl #48
    4300199c:	8a000042 	and	x2, x2, x0
    430019a0:	b9401280 	ldr	w0, [x20, #16]
    430019a4:	37200040 	tbnz	w0, #4, 430019ac <cm_setup_context+0x3c>
    430019a8:	b2760042 	orr	x2, x2, #0x400
    430019ac:	b9400681 	ldr	w1, [x20, #4]
    430019b0:	36100041 	tbz	w1, #2, 430019b8 <cm_setup_context+0x48>
    430019b4:	b2750042 	orr	x2, x2, #0x800
    430019b8:	927cf842 	and	x2, x2, #0xfffffffffffffff7
    430019bc:	d53e1141 	mrs	x1, cptr_el3
    430019c0:	f9009e61 	str	x1, [x19, #312]
    430019c4:	f9400a81 	ldr	x1, [x20, #16]
    430019c8:	927e0823 	and	x3, x1, #0x1c
    430019cc:	f100207f 	cmp	x3, #0x8
    430019d0:	54000080 	b.eq	430019e0 <cm_setup_context+0x70>  // b.none
    430019d4:	92401021 	and	x1, x1, #0x1f
    430019d8:	f100683f 	cmp	x1, #0x1a
    430019dc:	540001e1 	b.ne	43001a18 <cm_setup_context+0xa8>  // b.any
    430019e0:	d5380701 	mrs	x1, id_aa64mmfr0_el1
    430019e4:	d2802004 	mov	x4, #0x100                 	// #256
    430019e8:	92480c21 	and	x1, x1, #0xf00000000000000
    430019ec:	f2a10004 	movk	x4, #0x800, lsl #16
    430019f0:	b2780043 	orr	x3, x2, #0x100
    430019f4:	aa040042 	orr	x2, x2, x4
    430019f8:	d2e02004 	mov	x4, #0x100000000000000     	// #72057594037927936
    430019fc:	eb04003f 	cmp	x1, x4
    43001a00:	9a830042 	csel	x2, x2, x3, eq	// eq = none
    43001a04:	d5380701 	mrs	x1, id_aa64mmfr0_el1
    43001a08:	d37cfc21 	lsr	x1, x1, #60
    43001a0c:	f100083f 	cmp	x1, #0x2
    43001a10:	54000041 	b.ne	43001a18 <cm_setup_context+0xa8>  // b.any
    43001a14:	b2640042 	orr	x2, x2, #0x10000000
    43001a18:	f9008262 	str	x2, [x19, #256]
    43001a1c:	2a0003e0 	mov	w0, w0
    43001a20:	f9400682 	ldr	x2, [x20, #8]
    43001a24:	a9118a60 	stp	x0, x2, [x19, #280]
    43001a28:	91006281 	add	x1, x20, #0x18
    43001a2c:	aa1303e0 	mov	x0, x19
    43001a30:	d2800802 	mov	x2, #0x40                  	// #64
    43001a34:	940011ee 	bl	430061ec <memcpy>
    43001a38:	b9400680 	ldr	w0, [x20, #4]
    43001a3c:	52800421 	mov	w1, #0x21                  	// #33
    43001a40:	6a010000 	ands	w0, w0, w1
    43001a44:	540000a0 	b.eq	43001a58 <cm_setup_context+0xe8>  // b.none
    43001a48:	7100041f 	cmp	w0, #0x1
    43001a4c:	54000380 	b.eq	43001abc <cm_setup_context+0x14c>  // b.none
    43001a50:	94000c0c 	bl	43004a80 <console_flush>
    43001a54:	94000fab 	bl	43005900 <do_panic>
    43001a58:	f9408275 	ldr	x21, [x19, #256]
    43001a5c:	52800000 	mov	w0, #0x0                   	// #0
    43001a60:	97fffe22 	bl	430012e8 <get_scr_el3_from_routing_model>
    43001a64:	aa0002a0 	orr	x0, x21, x0
    43001a68:	d5380421 	mrs	x1, id_aa64pfr1_el1
    43001a6c:	53082c21 	ubfx	w1, w1, #8, #4
    43001a70:	7100043f 	cmp	w1, #0x1
    43001a74:	54000041 	b.ne	43001a7c <cm_setup_context+0x10c>  // b.any
    43001a78:	b2660000 	orr	x0, x0, #0x4000000
    43001a7c:	b9401282 	ldr	w2, [x20, #16]
    43001a80:	121e0441 	and	w1, w2, #0xc
    43001a84:	7100203f 	cmp	w1, #0x8
    43001a88:	54000101 	b.ne	43001aa8 <cm_setup_context+0x138>  // b.any
    43001a8c:	d5380401 	mrs	x1, id_aa64pfr0_el1
    43001a90:	925c0c21 	and	x1, x1, #0xf000000000
    43001a94:	d2c00203 	mov	x3, #0x1000000000          	// #68719476736
    43001a98:	eb03003f 	cmp	x1, x3
    43001a9c:	54000061 	b.ne	43001aa8 <cm_setup_context+0x138>  // b.any
    43001aa0:	b26e0000 	orr	x0, x0, #0x40000
    43001aa4:	3727fd62 	tbnz	w2, #4, 43001a50 <cm_setup_context+0xe0>
    43001aa8:	f9008260 	str	x0, [x19, #256]
    43001aac:	a94153f3 	ldp	x19, x20, [sp, #16]
    43001ab0:	f94013f5 	ldr	x21, [sp, #32]
    43001ab4:	a8c37bfd 	ldp	x29, x30, [sp], #48
    43001ab8:	d65f03c0 	ret
    43001abc:	f9408275 	ldr	x21, [x19, #256]
    43001ac0:	97fffe0a 	bl	430012e8 <get_scr_el3_from_routing_model>
    43001ac4:	b9401282 	ldr	w2, [x20, #16]
    43001ac8:	d2810001 	mov	x1, #0x800                 	// #2048
    43001acc:	aa0002b5 	orr	x21, x21, x0
    43001ad0:	d2800020 	mov	x0, #0x1                   	// #1
    43001ad4:	f2a08060 	movk	x0, #0x403, lsl #16
    43001ad8:	aa0002b5 	orr	x21, x21, x0
    43001adc:	b9400680 	ldr	w0, [x20, #4]
    43001ae0:	d2810703 	mov	x3, #0x838                 	// #2104
    43001ae4:	f27c005f 	tst	x2, #0x10
    43001ae8:	f2a018a3 	movk	x3, #0xc5, lsl #16
    43001aec:	f2a61a01 	movk	x1, #0x30d0, lsl #16
    43001af0:	f9008275 	str	x21, [x19, #256]
    43001af4:	d3689c00 	lsl	x0, x0, #24
    43001af8:	92670000 	and	x0, x0, #0x2000000
    43001afc:	aa010001 	orr	x1, x0, x1
    43001b00:	aa030000 	orr	x0, x0, x3
    43001b04:	9a811000 	csel	x0, x0, x1, ne	// ne = any
    43001b08:	f900b260 	str	x0, [x19, #352]
    43001b0c:	d5381020 	mrs	x0, actlr_el1
    43001b10:	f900da60 	str	x0, [x19, #432]
    43001b14:	17ffffe6 	b	43001aac <cm_setup_context+0x13c>

0000000043001b18 <cm_init_context_by_index>:
    43001b18:	a9be7bfd 	stp	x29, x30, [sp, #-32]!
    43001b1c:	910003fd 	mov	x29, sp
    43001b20:	f9000bf3 	str	x19, [sp, #16]
    43001b24:	aa0103f3 	mov	x19, x1
    43001b28:	52800421 	mov	w1, #0x21                  	// #33
    43001b2c:	b9400662 	ldr	w2, [x19, #4]
    43001b30:	0a010041 	and	w1, w2, w1
    43001b34:	97fffda7 	bl	430011d0 <cm_get_context_by_index>
    43001b38:	aa1303e1 	mov	x1, x19
    43001b3c:	f9400bf3 	ldr	x19, [sp, #16]
    43001b40:	a8c27bfd 	ldp	x29, x30, [sp], #32
    43001b44:	17ffff8b 	b	43001970 <cm_setup_context>

0000000043001b48 <cm_init_my_context>:
    43001b48:	a9be7bfd 	stp	x29, x30, [sp, #-32]!
    43001b4c:	910003fd 	mov	x29, sp
    43001b50:	f9000bf3 	str	x19, [sp, #16]
    43001b54:	aa0003f3 	mov	x19, x0
    43001b58:	52800420 	mov	w0, #0x21                  	// #33
    43001b5c:	b9400661 	ldr	w1, [x19, #4]
    43001b60:	0a000020 	and	w0, w1, w0
    43001b64:	97fffd96 	bl	430011bc <cm_get_context>
    43001b68:	aa1303e1 	mov	x1, x19
    43001b6c:	f9400bf3 	ldr	x19, [sp, #16]
    43001b70:	a8c27bfd 	ldp	x29, x30, [sp], #32
    43001b74:	17ffff7f 	b	43001970 <cm_setup_context>

0000000043001b78 <cm_el1_sysregs_context_restore>:
    43001b78:	a9be7bfd 	stp	x29, x30, [sp, #-32]!
    43001b7c:	910003fd 	mov	x29, sp
    43001b80:	a90153f3 	stp	x19, x20, [sp, #16]
    43001b84:	2a0003f3 	mov	w19, w0
    43001b88:	97fffd8d 	bl	430011bc <cm_get_context>
    43001b8c:	91054000 	add	x0, x0, #0x150
    43001b90:	94000e13 	bl	430053dc <el1_sysregs_context_restore>
    43001b94:	34000273 	cbz	w19, 43001be0 <cm_el1_sysregs_context_restore+0x68>
    43001b98:	d0000033 	adrp	x19, 43007000 <gpt_soc_data+0x1ba>
    43001b9c:	d0000034 	adrp	x20, 43007000 <gpt_soc_data+0x1ba>
    43001ba0:	910a8273 	add	x19, x19, #0x2a0
    43001ba4:	910a8294 	add	x20, x20, #0x2a0
    43001ba8:	eb14027f 	cmp	x19, x20
    43001bac:	54000142 	b.cs	43001bd4 <cm_el1_sysregs_context_restore+0x5c>  // b.hs, b.nlast
    43001bb0:	f8408661 	ldr	x1, [x19], #8
    43001bb4:	d2800000 	mov	x0, #0x0                   	// #0
    43001bb8:	d63f0020 	blr	x1
    43001bbc:	17fffffb 	b	43001ba8 <cm_el1_sysregs_context_restore+0x30>
    43001bc0:	f8408661 	ldr	x1, [x19], #8
    43001bc4:	d2800000 	mov	x0, #0x0                   	// #0
    43001bc8:	d63f0020 	blr	x1
    43001bcc:	eb14027f 	cmp	x19, x20
    43001bd0:	54ffff83 	b.cc	43001bc0 <cm_el1_sysregs_context_restore+0x48>  // b.lo, b.ul, b.last
    43001bd4:	a94153f3 	ldp	x19, x20, [sp, #16]
    43001bd8:	a8c27bfd 	ldp	x29, x30, [sp], #32
    43001bdc:	d65f03c0 	ret
    43001be0:	d0000033 	adrp	x19, 43007000 <gpt_soc_data+0x1ba>
    43001be4:	d0000034 	adrp	x20, 43007000 <gpt_soc_data+0x1ba>
    43001be8:	910a6273 	add	x19, x19, #0x298
    43001bec:	910a8294 	add	x20, x20, #0x2a0
    43001bf0:	17fffff7 	b	43001bcc <cm_el1_sysregs_context_restore+0x54>

0000000043001bf4 <cm_set_next_eret_context>:
    43001bf4:	a9bf7bfd 	stp	x29, x30, [sp, #-16]!
    43001bf8:	910003fd 	mov	x29, sp
    43001bfc:	97fffd70 	bl	430011bc <cm_get_context>
    43001c00:	d50041bf 	msr	spsel, #0x1
    43001c04:	9100001f 	mov	sp, x0
    43001c08:	d50040bf 	msr	spsel, #0x0
    43001c0c:	a8c17bfd 	ldp	x29, x30, [sp], #16
    43001c10:	d65f03c0 	ret

0000000043001c14 <cm_prepare_el3_exit>:
    43001c14:	a9be7bfd 	stp	x29, x30, [sp, #-32]!
    43001c18:	910003fd 	mov	x29, sp
    43001c1c:	f9000bf3 	str	x19, [sp, #16]
    43001c20:	2a0003f3 	mov	w19, w0
    43001c24:	97fffd66 	bl	430011bc <cm_get_context>
    43001c28:	7100067f 	cmp	w19, #0x1
    43001c2c:	540004c1 	b.ne	43001cc4 <cm_prepare_el3_exit+0xb0>  // b.any
    43001c30:	f9408001 	ldr	x1, [x0, #256]
    43001c34:	92780022 	and	x2, x1, #0x100
    43001c38:	36400121 	tbz	w1, #8, 43001c5c <cm_prepare_el3_exit+0x48>
    43001c3c:	f940b000 	ldr	x0, [x0, #352]
    43001c40:	d2810601 	mov	x1, #0x830                 	// #2096
    43001c44:	f2a618a1 	movk	x1, #0x30c5, lsl #16
    43001c48:	92670000 	and	x0, x0, #0x2000000
    43001c4c:	aa010000 	orr	x0, x0, x1
    43001c50:	d51c1000 	msr	sctlr_el2, x0
    43001c54:	52800000 	mov	w0, #0x0                   	// #0
    43001c58:	1400001a 	b	43001cc0 <cm_prepare_el3_exit+0xac>
    43001c5c:	d5380400 	mrs	x0, id_aa64pfr0_el1
    43001c60:	f2780c1f 	tst	x0, #0xf00
    43001c64:	54ffff80 	b.eq	43001c54 <cm_prepare_el3_exit+0x40>  // b.none
    43001c68:	d34a2821 	ubfx	x1, x1, #10, #1
    43001c6c:	d3618021 	lsl	x1, x1, #31
    43001c70:	b2580421 	orr	x1, x1, #0x30000000000
    43001c74:	d51c1101 	msr	hcr_el2, x1
    43001c78:	d2867fe0 	mov	x0, #0x33ff                	// #13311
    43001c7c:	d51c1140 	msr	cptr_el2, x0
    43001c80:	d2800060 	mov	x0, #0x3                   	// #3
    43001c84:	d51ce100 	msr	cnthctl_el2, x0
    43001c88:	d51ce062 	msr	cntvoff_el2, x2
    43001c8c:	d5380000 	mrs	x0, midr_el1
    43001c90:	d51c0000 	msr	vpidr_el2, x0
    43001c94:	d53800a0 	mrs	x0, mpidr_el1
    43001c98:	d51c00a0 	msr	vmpidr_el2, x0
    43001c9c:	d51c2102 	msr	vttbr_el2, x2
    43001ca0:	d53b9c00 	mrs	x0, pmcr_el0
    43001ca4:	d34b3c00 	ubfx	x0, x0, #11, #5
    43001ca8:	d2a08041 	mov	x1, #0x4020000             	// #67239936
    43001cac:	aa010000 	orr	x0, x0, x1
    43001cb0:	d51c1120 	msr	mdcr_el2, x0
    43001cb4:	d51c1162 	msr	hstr_el2, x2
    43001cb8:	d51ce222 	msr	cnthp_ctl_el2, x2
    43001cbc:	2a1303e0 	mov	w0, w19
    43001cc0:	94000018 	bl	43001d20 <spe_enable>
    43001cc4:	2a1303e0 	mov	w0, w19
    43001cc8:	97ffffac 	bl	43001b78 <cm_el1_sysregs_context_restore>
    43001ccc:	2a1303e0 	mov	w0, w19
    43001cd0:	f9400bf3 	ldr	x19, [sp, #16]
    43001cd4:	a8c27bfd 	ldp	x29, x30, [sp], #32
    43001cd8:	17ffffc7 	b	43001bf4 <cm_set_next_eret_context>

0000000043001cdc <cm_prepare_el3_exit_ns>:
    43001cdc:	52800020 	mov	w0, #0x1                   	// #1
    43001ce0:	17ffffcd 	b	43001c14 <cm_prepare_el3_exit>

0000000043001ce4 <spe_supported>:
    43001ce4:	d5380500 	mrs	x0, id_aa64dfr0_el1
    43001ce8:	f2600c1f 	tst	x0, #0xf00000000
    43001cec:	1a9f07e0 	cset	w0, ne	// ne = any
    43001cf0:	d65f03c0 	ret

0000000043001cf4 <spe_drain_buffers_hook>:
    43001cf4:	a9bf7bfd 	stp	x29, x30, [sp, #-16]!
    43001cf8:	910003fd 	mov	x29, sp
    43001cfc:	97fffffa 	bl	43001ce4 <spe_supported>
    43001d00:	360000c0 	tbz	w0, #0, 43001d18 <spe_drain_buffers_hook+0x24>
    43001d04:	d503223f 	psb	csync
    43001d08:	d503379f 	dsb	nsh
    43001d0c:	d2800000 	mov	x0, #0x0                   	// #0
    43001d10:	a8c17bfd 	ldp	x29, x30, [sp], #16
    43001d14:	d65f03c0 	ret
    43001d18:	92800000 	mov	x0, #0xffffffffffffffff    	// #-1
    43001d1c:	17fffffd 	b	43001d10 <spe_drain_buffers_hook+0x1c>

0000000043001d20 <spe_enable>:
    43001d20:	a9bf7bfd 	stp	x29, x30, [sp, #-16]!
    43001d24:	12001c01 	and	w1, w0, #0xff
    43001d28:	910003fd 	mov	x29, sp
    43001d2c:	97ffffee 	bl	43001ce4 <spe_supported>
    43001d30:	36000180 	tbz	w0, #0, 43001d60 <spe_enable+0x40>
    43001d34:	360000c1 	tbz	w1, #0, 43001d4c <spe_enable+0x2c>
    43001d38:	d53c1120 	mrs	x0, mdcr_el2
    43001d3c:	12880001 	mov	w1, #0xffffbfff            	// #-16385
    43001d40:	8a010000 	and	x0, x0, x1
    43001d44:	b2740400 	orr	x0, x0, #0x3000
    43001d48:	d51c1120 	msr	mdcr_el2, x0
    43001d4c:	d53e1320 	mrs	x0, mdcr_el3
    43001d50:	d2860001 	mov	x1, #0x3000                	// #12288
    43001d54:	f2c00201 	movk	x1, #0x10, lsl #32
    43001d58:	aa010000 	orr	x0, x0, x1
    43001d5c:	d51e1320 	msr	mdcr_el3, x0
    43001d60:	a8c17bfd 	ldp	x29, x30, [sp], #16
    43001d64:	d65f03c0 	ret

0000000043001d68 <bakery_lock_get>:
    43001d68:	a9be7bfd 	stp	x29, x30, [sp, #-32]!
    43001d6c:	910003fd 	mov	x29, sp
    43001d70:	f9000bf3 	str	x19, [sp, #16]
    43001d74:	aa0003f3 	mov	x19, x0
    43001d78:	94000ebb 	bl	43005864 <plat_my_core_pos>
    43001d7c:	d37f7c03 	ubfiz	x3, x0, #1, #32
    43001d80:	52800021 	mov	w1, #0x1                   	// #1
    43001d84:	78236a61 	strh	w1, [x19, x3]
    43001d88:	79400261 	ldrh	w1, [x19]
    43001d8c:	79400662 	ldrh	w2, [x19, #2]
    43001d90:	d3413c21 	ubfx	x1, x1, #1, #15
    43001d94:	d3413c42 	ubfx	x2, x2, #1, #15
    43001d98:	6b02003f 	cmp	w1, w2
    43001d9c:	1a822021 	csel	w1, w1, w2, cs	// cs = hs, nlast
    43001da0:	11000421 	add	w1, w1, #0x1
    43001da4:	531f3822 	ubfiz	w2, w1, #1, #15
    43001da8:	2a012001 	orr	w1, w0, w1, lsl #8
    43001dac:	78236a62 	strh	w2, [x19, x3]
    43001db0:	52800002 	mov	w2, #0x0                   	// #0
    43001db4:	6b02001f 	cmp	w0, w2
    43001db8:	54000200 	b.eq	43001df8 <bakery_lock_get+0x90>  // b.none
    43001dbc:	d37f0045 	ubfiz	x5, x2, #1, #1
    43001dc0:	78656a64 	ldrh	w4, [x19, x5]
    43001dc4:	8b050266 	add	x6, x19, x5
    43001dc8:	12003c83 	and	w3, w4, #0xffff
    43001dcc:	3707ffa4 	tbnz	w4, #0, 43001dc0 <bakery_lock_get+0x58>
    43001dd0:	53017c63 	lsr	w3, w3, #1
    43001dd4:	34000123 	cbz	w3, 43001df8 <bakery_lock_get+0x90>
    43001dd8:	2a032044 	orr	w4, w2, w3, lsl #8
    43001ddc:	6b04003f 	cmp	w1, w4
    43001de0:	540000c9 	b.ls	43001df8 <bakery_lock_get+0x90>  // b.plast
    43001de4:	d503205f 	wfe
    43001de8:	794000c4 	ldrh	w4, [x6]
    43001dec:	d3413c84 	ubfx	x4, x4, #1, #15
    43001df0:	6b04007f 	cmp	w3, w4
    43001df4:	54ffff80 	b.eq	43001de4 <bakery_lock_get+0x7c>  // b.none
    43001df8:	340000a2 	cbz	w2, 43001e0c <bakery_lock_get+0xa4>
    43001dfc:	d5033bbf 	dmb	ish
    43001e00:	f9400bf3 	ldr	x19, [sp, #16]
    43001e04:	a8c27bfd 	ldp	x29, x30, [sp], #32
    43001e08:	d65f03c0 	ret
    43001e0c:	52800022 	mov	w2, #0x1                   	// #1
    43001e10:	17ffffe9 	b	43001db4 <bakery_lock_get+0x4c>

0000000043001e14 <bakery_lock_release>:
    43001e14:	a9be7bfd 	stp	x29, x30, [sp, #-32]!
    43001e18:	910003fd 	mov	x29, sp
    43001e1c:	f9000bf3 	str	x19, [sp, #16]
    43001e20:	aa0003f3 	mov	x19, x0
    43001e24:	94000e90 	bl	43005864 <plat_my_core_pos>
    43001e28:	d5033bbf 	dmb	ish
    43001e2c:	2a0003e1 	mov	w1, w0
    43001e30:	78217a7f 	strh	wzr, [x19, x1, lsl #1]
    43001e34:	d5033f9f 	dsb	sy
    43001e38:	d503209f 	sev
    43001e3c:	f9400bf3 	ldr	x19, [sp, #16]
    43001e40:	a8c27bfd 	ldp	x29, x30, [sp], #32
    43001e44:	d65f03c0 	ret

0000000043001e48 <psci_set_req_local_pwr_state>:
    43001e48:	51000400 	sub	w0, w0, #0x1
    43001e4c:	12001c42 	and	w2, w2, #0xff
    43001e50:	7100041f 	cmp	w0, #0x1
    43001e54:	54000128 	b.hi	43001e78 <psci_set_req_local_pwr_state+0x30>  // b.pmore
    43001e58:	90000043 	adrp	x3, 43009000 <__STACKS_START__+0xf80>
    43001e5c:	b94a9863 	ldr	w3, [x3, #2712]
    43001e60:	6b01007f 	cmp	w3, w1
    43001e64:	540000a9 	b.ls	43001e78 <psci_set_req_local_pwr_state+0x30>  // b.plast
    43001e68:	90000043 	adrp	x3, 43009000 <__STACKS_START__+0xf80>
    43001e6c:	91319063 	add	x3, x3, #0xc64
    43001e70:	8b204460 	add	x0, x3, w0, uxtw #1
    43001e74:	38214802 	strb	w2, [x0, w1, uxtw]
    43001e78:	d65f03c0 	ret

0000000043001e7c <psci_validate_power_state>:
    43001e7c:	52bf9fc2 	mov	w2, #0xfcfe0000            	// #-50462720
    43001e80:	6a02001f 	tst	w0, w2
    43001e84:	540000c1 	b.ne	43001e9c <psci_validate_power_state+0x20>  // b.any
    43001e88:	90000042 	adrp	x2, 43009000 <__STACKS_START__+0xf80>
    43001e8c:	f9430c42 	ldr	x2, [x2, #1560]
    43001e90:	f9402c42 	ldr	x2, [x2, #88]
    43001e94:	aa0203f0 	mov	x16, x2
    43001e98:	d61f0200 	br	x16
    43001e9c:	12800020 	mov	w0, #0xfffffffe            	// #-2
    43001ea0:	d65f03c0 	ret

0000000043001ea4 <psci_query_sys_suspend_pwrstate>:
    43001ea4:	90000041 	adrp	x1, 43009000 <__STACKS_START__+0xf80>
    43001ea8:	f9430c21 	ldr	x1, [x1, #1560]
    43001eac:	f9403421 	ldr	x1, [x1, #104]
    43001eb0:	aa0103f0 	mov	x16, x1
    43001eb4:	d61f0200 	br	x16

0000000043001eb8 <psci_is_last_on_cpu>:
    43001eb8:	a9bd7bfd 	stp	x29, x30, [sp, #-48]!
    43001ebc:	910003fd 	mov	x29, sp
    43001ec0:	a90153f3 	stp	x19, x20, [sp, #16]
    43001ec4:	90000054 	adrp	x20, 43009000 <__STACKS_START__+0xf80>
    43001ec8:	912a6294 	add	x20, x20, #0xa98
    43001ecc:	f90013f5 	str	x21, [sp, #32]
    43001ed0:	94000e65 	bl	43005864 <plat_my_core_pos>
    43001ed4:	2a0003f5 	mov	w21, w0
    43001ed8:	52800013 	mov	w19, #0x0                   	// #0
    43001edc:	b9400280 	ldr	w0, [x20]
    43001ee0:	6b13001f 	cmp	w0, w19
    43001ee4:	540000c8 	b.hi	43001efc <psci_is_last_on_cpu+0x44>  // b.pmore
    43001ee8:	52800020 	mov	w0, #0x1                   	// #1
    43001eec:	a94153f3 	ldp	x19, x20, [sp, #16]
    43001ef0:	f94013f5 	ldr	x21, [sp, #32]
    43001ef4:	a8c37bfd 	ldp	x29, x30, [sp], #48
    43001ef8:	d65f03c0 	ret
    43001efc:	6b15027f 	cmp	w19, w21
    43001f00:	54000061 	b.ne	43001f0c <psci_is_last_on_cpu+0x54>  // b.any
    43001f04:	11000673 	add	w19, w19, #0x1
    43001f08:	17fffff5 	b	43001edc <psci_is_last_on_cpu+0x24>
    43001f0c:	2a1303e0 	mov	w0, w19
    43001f10:	94000db3 	bl	430055dc <_cpu_data_by_index>
    43001f14:	b9401800 	ldr	w0, [x0, #24]
    43001f18:	7100041f 	cmp	w0, #0x1
    43001f1c:	54ffff40 	b.eq	43001f04 <psci_is_last_on_cpu+0x4c>  // b.none
    43001f20:	52800000 	mov	w0, #0x0                   	// #0
    43001f24:	17fffff2 	b	43001eec <psci_is_last_on_cpu+0x34>

0000000043001f28 <psci_init_req_local_pwr_states>:
    43001f28:	90000040 	adrp	x0, 43009000 <__STACKS_START__+0xf80>
    43001f2c:	b94a9802 	ldr	w2, [x0, #2712]
    43001f30:	34000102 	cbz	w2, 43001f50 <psci_init_req_local_pwr_states+0x28>
    43001f34:	90000043 	adrp	x3, 43009000 <__STACKS_START__+0xf80>
    43001f38:	52800040 	mov	w0, #0x2                   	// #2
    43001f3c:	91319061 	add	x1, x3, #0xc64
    43001f40:	39319060 	strb	w0, [x3, #3172]
    43001f44:	7100045f 	cmp	w2, #0x1
    43001f48:	54000061 	b.ne	43001f54 <psci_init_req_local_pwr_states+0x2c>  // b.any
    43001f4c:	39000820 	strb	w0, [x1, #2]
    43001f50:	d65f03c0 	ret
    43001f54:	39000420 	strb	w0, [x1, #1]
    43001f58:	39000820 	strb	w0, [x1, #2]
    43001f5c:	39000c20 	strb	w0, [x1, #3]
    43001f60:	17fffffc 	b	43001f50 <psci_init_req_local_pwr_states+0x28>

0000000043001f64 <psci_get_target_local_pwr_states>:
    43001f64:	a9be7bfd 	stp	x29, x30, [sp, #-32]!
    43001f68:	910003fd 	mov	x29, sp
    43001f6c:	a90153f3 	stp	x19, x20, [sp, #16]
    43001f70:	2a0003f4 	mov	w20, w0
    43001f74:	aa0103f3 	mov	x19, x1
    43001f78:	d53ed040 	mrs	x0, tpidr_el3
    43001f7c:	39408000 	ldrb	w0, [x0, #32]
    43001f80:	39000020 	strb	w0, [x1]
    43001f84:	94000e38 	bl	43005864 <plat_my_core_pos>
    43001f88:	90000041 	adrp	x1, 43009000 <__STACKS_START__+0xf80>
    43001f8c:	91188021 	add	x1, x1, #0x620
    43001f90:	8b205020 	add	x0, x1, w0, uxtw #4
    43001f94:	52800021 	mov	w1, #0x1                   	// #1
    43001f98:	b9400802 	ldr	w2, [x0, #8]
    43001f9c:	b0000060 	adrp	x0, 4300e000 <psci_locks>
    43001fa0:	91002000 	add	x0, x0, #0x8
    43001fa4:	6b14003f 	cmp	w1, w20
    43001fa8:	2a0103e3 	mov	w3, w1
    43001fac:	540000e9 	b.ls	43001fc8 <psci_get_target_local_pwr_states+0x64>  // b.plast
    43001fb0:	8b030273 	add	x19, x19, x3
    43001fb4:	7100083f 	cmp	w1, #0x2
    43001fb8:	54000149 	b.ls	43001fe0 <psci_get_target_local_pwr_states+0x7c>  // b.plast
    43001fbc:	a94153f3 	ldp	x19, x20, [sp, #16]
    43001fc0:	a8c27bfd 	ldp	x29, x30, [sp], #32
    43001fc4:	d65f03c0 	ret
    43001fc8:	8b225002 	add	x2, x0, w2, uxtw #4
    43001fcc:	11000421 	add	w1, w1, #0x1
    43001fd0:	39403044 	ldrb	w4, [x2, #12]
    43001fd4:	38236a64 	strb	w4, [x19, x3]
    43001fd8:	b9400842 	ldr	w2, [x2, #8]
    43001fdc:	17fffff2 	b	43001fa4 <psci_get_target_local_pwr_states+0x40>
    43001fe0:	11000421 	add	w1, w1, #0x1
    43001fe4:	3800167f 	strb	wzr, [x19], #1
    43001fe8:	17fffff3 	b	43001fb4 <psci_get_target_local_pwr_states+0x50>

0000000043001fec <psci_get_parent_pwr_domain_nodes>:
    43001fec:	90000043 	adrp	x3, 43009000 <__STACKS_START__+0xf80>
    43001ff0:	91188063 	add	x3, x3, #0x620
    43001ff4:	8b205060 	add	x0, x3, w0, uxtw #4
    43001ff8:	b0000064 	adrp	x4, 4300e000 <psci_locks>
    43001ffc:	d1001042 	sub	x2, x2, #0x4
    43002000:	91002084 	add	x4, x4, #0x8
    43002004:	d2800003 	mov	x3, #0x0                   	// #0
    43002008:	b9400800 	ldr	w0, [x0, #8]
    4300200c:	91000463 	add	x3, x3, #0x1
    43002010:	6b03003f 	cmp	w1, w3
    43002014:	54000042 	b.cs	4300201c <psci_get_parent_pwr_domain_nodes+0x30>  // b.hs, b.nlast
    43002018:	d65f03c0 	ret
    4300201c:	b8237840 	str	w0, [x2, x3, lsl #2]
    43002020:	8b205080 	add	x0, x4, w0, uxtw #4
    43002024:	b9400800 	ldr	w0, [x0, #8]
    43002028:	17fffff9 	b	4300200c <psci_get_parent_pwr_domain_nodes+0x20>

000000004300202c <psci_set_pwr_domains_to_run>:
    4300202c:	a9be7bfd 	stp	x29, x30, [sp, #-32]!
    43002030:	910003fd 	mov	x29, sp
    43002034:	f9000bf3 	str	x19, [sp, #16]
    43002038:	2a0003f3 	mov	w19, w0
    4300203c:	94000e0a 	bl	43005864 <plat_my_core_pos>
    43002040:	2a0003e1 	mov	w1, w0
    43002044:	f0000022 	adrp	x2, 43009000 <__STACKS_START__+0xf80>
    43002048:	91188042 	add	x2, x2, #0x620
    4300204c:	8b215042 	add	x2, x2, w1, uxtw #4
    43002050:	90000066 	adrp	x6, 4300e000 <psci_locks>
    43002054:	910020c6 	add	x6, x6, #0x8
    43002058:	52800025 	mov	w5, #0x1                   	// #1
    4300205c:	b9400844 	ldr	w4, [x2, #8]
    43002060:	6b1300bf 	cmp	w5, w19
    43002064:	54000169 	b.ls	43002090 <psci_set_pwr_domains_to_run+0x64>  // b.plast
    43002068:	d53ed040 	mrs	x0, tpidr_el3
    4300206c:	b900181f 	str	wzr, [x0, #24]
    43002070:	d53ed040 	mrs	x0, tpidr_el3
    43002074:	3900801f 	strb	wzr, [x0, #32]
    43002078:	d53ed040 	mrs	x0, tpidr_el3
    4300207c:	f9400bf3 	ldr	x19, [sp, #16]
    43002080:	91006000 	add	x0, x0, #0x18
    43002084:	a8c27bfd 	ldp	x29, x30, [sp], #32
    43002088:	d2800181 	mov	x1, #0xc                   	// #12
    4300208c:	14000e29 	b	43005930 <flush_dcache_range>
    43002090:	8b2450c4 	add	x4, x6, w4, uxtw #4
    43002094:	2a0503e0 	mov	w0, w5
    43002098:	52800002 	mov	w2, #0x0                   	// #0
    4300209c:	110004a5 	add	w5, w5, #0x1
    430020a0:	3900309f 	strb	wzr, [x4, #12]
    430020a4:	97ffff69 	bl	43001e48 <psci_set_req_local_pwr_state>
    430020a8:	b9400884 	ldr	w4, [x4, #8]
    430020ac:	17ffffed 	b	43002060 <psci_set_pwr_domains_to_run+0x34>

00000000430020b0 <psci_do_state_coordination>:
    430020b0:	a9ba7bfd 	stp	x29, x30, [sp, #-96]!
    430020b4:	910003fd 	mov	x29, sp
    430020b8:	a90153f3 	stp	x19, x20, [sp, #16]
    430020bc:	aa0103f3 	mov	x19, x1
    430020c0:	a9025bf5 	stp	x21, x22, [sp, #32]
    430020c4:	2a0003f5 	mov	w21, w0
    430020c8:	a90363f7 	stp	x23, x24, [sp, #48]
    430020cc:	f0000037 	adrp	x23, 43009000 <__STACKS_START__+0xf80>
    430020d0:	911882f7 	add	x23, x23, #0x620
    430020d4:	a9046bf9 	stp	x25, x26, [sp, #64]
    430020d8:	90000078 	adrp	x24, 4300e000 <psci_locks>
    430020dc:	f0000039 	adrp	x25, 43009000 <__STACKS_START__+0xf80>
    430020e0:	f9002bfb 	str	x27, [sp, #80]
    430020e4:	94000de0 	bl	43005864 <plat_my_core_pos>
    430020e8:	2a0003f6 	mov	w22, w0
    430020ec:	91002318 	add	x24, x24, #0x8
    430020f0:	912a6339 	add	x25, x25, #0xa98
    430020f4:	52800024 	mov	w4, #0x1                   	// #1
    430020f8:	8b3652e0 	add	x0, x23, w22, uxtw #4
    430020fc:	b9400805 	ldr	w5, [x0, #8]
    43002100:	6b15009f 	cmp	w4, w21
    43002104:	11000494 	add	w20, w4, #0x1
    43002108:	54000349 	b.ls	43002170 <psci_do_state_coordination+0xc0>  // b.plast
    4300210c:	6b15029f 	cmp	w20, w21
    43002110:	540006e9 	b.ls	430021ec <psci_do_state_coordination+0x13c>  // b.plast
    43002114:	39400261 	ldrb	w1, [x19]
    43002118:	d53ed040 	mrs	x0, tpidr_el3
    4300211c:	39008001 	strb	w1, [x0, #32]
    43002120:	d53ed040 	mrs	x0, tpidr_el3
    43002124:	91008000 	add	x0, x0, #0x20
    43002128:	d2800021 	mov	x1, #0x1                   	// #1
    4300212c:	94000e01 	bl	43005930 <flush_dcache_range>
    43002130:	94000dcd 	bl	43005864 <plat_my_core_pos>
    43002134:	8b2052e0 	add	x0, x23, w0, uxtw #4
    43002138:	90000062 	adrp	x2, 4300e000 <psci_locks>
    4300213c:	91002042 	add	x2, x2, #0x8
    43002140:	d2800001 	mov	x1, #0x0                   	// #0
    43002144:	b9400800 	ldr	w0, [x0, #8]
    43002148:	91000421 	add	x1, x1, #0x1
    4300214c:	6b0102bf 	cmp	w21, w1
    43002150:	540005e2 	b.cs	4300220c <psci_do_state_coordination+0x15c>  // b.hs, b.nlast
    43002154:	a94153f3 	ldp	x19, x20, [sp, #16]
    43002158:	a9425bf5 	ldp	x21, x22, [sp, #32]
    4300215c:	a94363f7 	ldp	x23, x24, [sp, #48]
    43002160:	a9446bf9 	ldp	x25, x26, [sp, #64]
    43002164:	f9402bfb 	ldr	x27, [sp, #80]
    43002168:	a8c67bfd 	ldp	x29, x30, [sp], #96
    4300216c:	d65f03c0 	ret
    43002170:	2a0403fa 	mov	w26, w4
    43002174:	2a0503fb 	mov	w27, w5
    43002178:	d37c7ca5 	ubfiz	x5, x5, #4, #32
    4300217c:	2a1603e1 	mov	w1, w22
    43002180:	2a0403e0 	mov	w0, w4
    43002184:	387a6a62 	ldrb	w2, [x19, x26]
    43002188:	97ffff30 	bl	43001e48 <psci_set_req_local_pwr_state>
    4300218c:	51000482 	sub	w2, w4, #0x1
    43002190:	b8656b03 	ldr	w3, [x24, x5]
    43002194:	7100045f 	cmp	w2, #0x1
    43002198:	54000268 	b.hi	430021e4 <psci_do_state_coordination+0x134>  // b.pmore
    4300219c:	2a0303e0 	mov	w0, w3
    430021a0:	b9400325 	ldr	w5, [x25]
    430021a4:	8b224401 	add	x1, x0, w2, uxtw #1
    430021a8:	f0000020 	adrp	x0, 43009000 <__STACKS_START__+0xf80>
    430021ac:	91319000 	add	x0, x0, #0xc64
    430021b0:	6b05007f 	cmp	w3, w5
    430021b4:	8b000021 	add	x1, x1, x0
    430021b8:	9a9f3021 	csel	x1, x1, xzr, cc	// cc = lo, ul, last
    430021bc:	8b1b131b 	add	x27, x24, x27, lsl #4
    430021c0:	2a0403e0 	mov	w0, w4
    430021c4:	b9400762 	ldr	w2, [x27, #4]
    430021c8:	940008c1 	bl	430044cc <plat_get_target_pwr_state>
    430021cc:	383a6a60 	strb	w0, [x19, x26]
    430021d0:	72001c1f 	tst	w0, #0xff
    430021d4:	54fff9c0 	b.eq	4300210c <psci_do_state_coordination+0x5c>  // b.none
    430021d8:	b9400b65 	ldr	w5, [x27, #8]
    430021dc:	2a1403e4 	mov	w4, w20
    430021e0:	17ffffc8 	b	43002100 <psci_do_state_coordination+0x50>
    430021e4:	d2800001 	mov	x1, #0x0                   	// #0
    430021e8:	17fffff5 	b	430021bc <psci_do_state_coordination+0x10c>
    430021ec:	2a1403e4 	mov	w4, w20
    430021f0:	2a1403e0 	mov	w0, w20
    430021f4:	2a1603e1 	mov	w1, w22
    430021f8:	11000694 	add	w20, w20, #0x1
    430021fc:	38646a62 	ldrb	w2, [x19, x4]
    43002200:	97ffff12 	bl	43001e48 <psci_set_req_local_pwr_state>
    43002204:	38246a7f 	strb	wzr, [x19, x4]
    43002208:	17ffffc1 	b	4300210c <psci_do_state_coordination+0x5c>
    4300220c:	8b205040 	add	x0, x2, w0, uxtw #4
    43002210:	38616a63 	ldrb	w3, [x19, x1]
    43002214:	39003003 	strb	w3, [x0, #12]
    43002218:	b9400800 	ldr	w0, [x0, #8]
    4300221c:	17ffffcb 	b	43002148 <psci_do_state_coordination+0x98>

0000000043002220 <psci_find_max_off_lvl>:
    43002220:	aa0003e1 	mov	x1, x0
    43002224:	39400800 	ldrb	w0, [x0, #2]
    43002228:	7100081f 	cmp	w0, #0x2
    4300222c:	54000120 	b.eq	43002250 <psci_find_max_off_lvl+0x30>  // b.none
    43002230:	39400420 	ldrb	w0, [x1, #1]
    43002234:	7100081f 	cmp	w0, #0x2
    43002238:	540000e0 	b.eq	43002254 <psci_find_max_off_lvl+0x34>  // b.none
    4300223c:	39400021 	ldrb	w1, [x1]
    43002240:	52800060 	mov	w0, #0x3                   	// #3
    43002244:	7100083f 	cmp	w1, #0x2
    43002248:	54000041 	b.ne	43002250 <psci_find_max_off_lvl+0x30>  // b.any
    4300224c:	52800000 	mov	w0, #0x0                   	// #0
    43002250:	d65f03c0 	ret
    43002254:	52800020 	mov	w0, #0x1                   	// #1
    43002258:	17fffffe 	b	43002250 <psci_find_max_off_lvl+0x30>

000000004300225c <psci_find_target_suspend_lvl>:
    4300225c:	39400801 	ldrb	w1, [x0, #2]
    43002260:	35000101 	cbnz	w1, 43002280 <psci_find_target_suspend_lvl+0x24>
    43002264:	39400401 	ldrb	w1, [x0, #1]
    43002268:	35000101 	cbnz	w1, 43002288 <psci_find_target_suspend_lvl+0x2c>
    4300226c:	39400001 	ldrb	w1, [x0]
    43002270:	52800060 	mov	w0, #0x3                   	// #3
    43002274:	34000041 	cbz	w1, 4300227c <psci_find_target_suspend_lvl+0x20>
    43002278:	52800000 	mov	w0, #0x0                   	// #0
    4300227c:	d65f03c0 	ret
    43002280:	52800040 	mov	w0, #0x2                   	// #2
    43002284:	17fffffe 	b	4300227c <psci_find_target_suspend_lvl+0x20>
    43002288:	52800020 	mov	w0, #0x1                   	// #1
    4300228c:	17fffffc 	b	4300227c <psci_find_target_suspend_lvl+0x20>

0000000043002290 <psci_acquire_pwr_domain_locks>:
    43002290:	a9bc7bfd 	stp	x29, x30, [sp, #-64]!
    43002294:	910003fd 	mov	x29, sp
    43002298:	a90153f3 	stp	x19, x20, [sp, #16]
    4300229c:	2a0003f4 	mov	w20, w0
    430022a0:	52800033 	mov	w19, #0x1                   	// #1
    430022a4:	a9025bf5 	stp	x21, x22, [sp, #32]
    430022a8:	90000076 	adrp	x22, 4300e000 <psci_locks>
    430022ac:	aa0103f5 	mov	x21, x1
    430022b0:	910022d6 	add	x22, x22, #0x8
    430022b4:	f9001bf7 	str	x23, [sp, #48]
    430022b8:	90000077 	adrp	x23, 4300e000 <psci_locks>
    430022bc:	910002f7 	add	x23, x23, #0x0
    430022c0:	6b14027f 	cmp	w19, w20
    430022c4:	540000c9 	b.ls	430022dc <psci_acquire_pwr_domain_locks+0x4c>  // b.plast
    430022c8:	a94153f3 	ldp	x19, x20, [sp, #16]
    430022cc:	a9425bf5 	ldp	x21, x22, [sp, #32]
    430022d0:	f9401bf7 	ldr	x23, [sp, #48]
    430022d4:	a8c47bfd 	ldp	x29, x30, [sp], #64
    430022d8:	d65f03c0 	ret
    430022dc:	51000660 	sub	w0, w19, #0x1
    430022e0:	11000673 	add	w19, w19, #0x1
    430022e4:	b8607aa0 	ldr	w0, [x21, x0, lsl #2]
    430022e8:	8b0012c0 	add	x0, x22, x0, lsl #4
    430022ec:	79401c00 	ldrh	w0, [x0, #14]
    430022f0:	8b000ae0 	add	x0, x23, x0, lsl #2
    430022f4:	97fffe9d 	bl	43001d68 <bakery_lock_get>
    430022f8:	17fffff2 	b	430022c0 <psci_acquire_pwr_domain_locks+0x30>

00000000430022fc <psci_release_pwr_domain_locks>:
    430022fc:	a9bd7bfd 	stp	x29, x30, [sp, #-48]!
    43002300:	910003fd 	mov	x29, sp
    43002304:	a90153f3 	stp	x19, x20, [sp, #16]
    43002308:	2a0003f3 	mov	w19, w0
    4300230c:	aa0103f4 	mov	x20, x1
    43002310:	a9025bf5 	stp	x21, x22, [sp, #32]
    43002314:	90000075 	adrp	x21, 4300e000 <psci_locks>
    43002318:	90000076 	adrp	x22, 4300e000 <psci_locks>
    4300231c:	910022b5 	add	x21, x21, #0x8
    43002320:	910002d6 	add	x22, x22, #0x0
    43002324:	350000b3 	cbnz	w19, 43002338 <psci_release_pwr_domain_locks+0x3c>
    43002328:	a94153f3 	ldp	x19, x20, [sp, #16]
    4300232c:	a9425bf5 	ldp	x21, x22, [sp, #32]
    43002330:	a8c37bfd 	ldp	x29, x30, [sp], #48
    43002334:	d65f03c0 	ret
    43002338:	51000673 	sub	w19, w19, #0x1
    4300233c:	b8735a80 	ldr	w0, [x20, w19, uxtw #2]
    43002340:	8b0012a0 	add	x0, x21, x0, lsl #4
    43002344:	79401c00 	ldrh	w0, [x0, #14]
    43002348:	8b000ac0 	add	x0, x22, x0, lsl #2
    4300234c:	97fffeb2 	bl	43001e14 <bakery_lock_release>
    43002350:	17fffff5 	b	43002324 <psci_release_pwr_domain_locks+0x28>

0000000043002354 <psci_validate_mpidr>:
    43002354:	a9bf7bfd 	stp	x29, x30, [sp, #-16]!
    43002358:	910003fd 	mov	x29, sp
    4300235c:	940008cb 	bl	43004688 <plat_core_pos_by_mpidr>
    43002360:	7100001f 	cmp	w0, #0x0
    43002364:	a8c17bfd 	ldp	x29, x30, [sp], #16
    43002368:	12800020 	mov	w0, #0xfffffffe            	// #-2
    4300236c:	1a9fb000 	csel	w0, w0, wzr, lt	// lt = tstop
    43002370:	d65f03c0 	ret

0000000043002374 <psci_validate_entry_point>:
    43002374:	a9bb7bfd 	stp	x29, x30, [sp, #-80]!
    43002378:	910003fd 	mov	x29, sp
    4300237c:	a90153f3 	stp	x19, x20, [sp, #16]
    43002380:	aa0003f4 	mov	x20, x0
    43002384:	f0000020 	adrp	x0, 43009000 <__STACKS_START__+0xf80>
    43002388:	aa0103f3 	mov	x19, x1
    4300238c:	a9025bf5 	stp	x21, x22, [sp, #32]
    43002390:	f9430c00 	ldr	x0, [x0, #1560]
    43002394:	a90363f7 	stp	x23, x24, [sp, #48]
    43002398:	aa0203f8 	mov	x24, x2
    4300239c:	f9403001 	ldr	x1, [x0, #96]
    430023a0:	f90023f9 	str	x25, [sp, #64]
    430023a4:	b5000361 	cbnz	x1, 43002410 <psci_validate_entry_point+0x9c>
    430023a8:	d53e1117 	mrs	x23, scr_el3
    430023ac:	d5381000 	mrs	x0, sctlr_el1
    430023b0:	927802f9 	and	x25, x23, #0x100
    430023b4:	37400437 	tbnz	w23, #8, 43002438 <psci_validate_entry_point+0xc4>
    430023b8:	f2670000 	ands	x0, x0, #0x2000000
    430023bc:	52802021 	mov	w1, #0x101                 	// #257
    430023c0:	72a00b01 	movk	w1, #0x58, lsl #16
    430023c4:	d2800075 	mov	x21, #0x3                   	// #3
    430023c8:	9a9f16a0 	csinc	x0, x21, xzr, ne	// ne = any
    430023cc:	29000281 	stp	w1, w0, [x20]
    430023d0:	f9000693 	str	x19, [x20, #8]
    430023d4:	1a9f07f6 	cset	w22, ne	// ne = any
    430023d8:	91006280 	add	x0, x20, #0x18
    430023dc:	d2800801 	mov	x1, #0x40                  	// #64
    430023e0:	94000dca 	bl	43005b08 <zeromem>
    430023e4:	f9000e98 	str	x24, [x20, #24]
    430023e8:	365002d7 	tbz	w23, #10, 43002440 <psci_validate_entry_point+0xcc>
    430023ec:	37000193 	tbnz	w19, #0, 4300241c <psci_validate_entry_point+0xa8>
    430023f0:	f100033f 	cmp	x25, #0x0
    430023f4:	52807821 	mov	w1, #0x3c1                 	// #961
    430023f8:	1a9f07e0 	cset	w0, ne	// ne = any
    430023fc:	11000400 	add	w0, w0, #0x1
    43002400:	2a000820 	orr	w0, w1, w0, lsl #2
    43002404:	b9001280 	str	w0, [x20, #16]
    43002408:	52800000 	mov	w0, #0x0                   	// #0
    4300240c:	14000005 	b	43002420 <psci_validate_entry_point+0xac>
    43002410:	aa1303e0 	mov	x0, x19
    43002414:	d63f0020 	blr	x1
    43002418:	34fffc80 	cbz	w0, 430023a8 <psci_validate_entry_point+0x34>
    4300241c:	12800100 	mov	w0, #0xfffffff7            	// #-9
    43002420:	a94153f3 	ldp	x19, x20, [sp, #16]
    43002424:	a9425bf5 	ldp	x21, x22, [sp, #32]
    43002428:	a94363f7 	ldp	x23, x24, [sp, #48]
    4300242c:	f94023f9 	ldr	x25, [sp, #64]
    43002430:	a8c57bfd 	ldp	x29, x30, [sp], #80
    43002434:	d65f03c0 	ret
    43002438:	d53c1000 	mrs	x0, sctlr_el2
    4300243c:	17ffffdf 	b	430023b8 <psci_validate_entry_point+0x44>
    43002440:	52800140 	mov	w0, #0xa                   	// #10
    43002444:	f100033f 	cmp	x25, #0x0
    43002448:	1a8002b5 	csel	w21, w21, w0, eq	// eq = none
    4300244c:	531b0273 	ubfiz	w19, w19, #5, #1
    43002450:	52803a00 	mov	w0, #0x1d0                 	// #464
    43002454:	2a150273 	orr	w19, w19, w21
    43002458:	2a162416 	orr	w22, w0, w22, lsl #9
    4300245c:	2a160273 	orr	w19, w19, w22
    43002460:	b9001293 	str	w19, [x20, #16]
    43002464:	17ffffe9 	b	43002408 <psci_validate_entry_point+0x94>

0000000043002468 <psci_warmboot_entrypoint>:
    43002468:	a9bd7bfd 	stp	x29, x30, [sp, #-48]!
    4300246c:	910003fd 	mov	x29, sp
    43002470:	a90153f3 	stp	x19, x20, [sp, #16]
    43002474:	94000cfc 	bl	43005864 <plat_my_core_pos>
    43002478:	790043ff 	strh	wzr, [sp, #32]
    4300247c:	39008bff 	strb	wzr, [sp, #34]
    43002480:	f90017ff 	str	xzr, [sp, #40]
    43002484:	d53ed041 	mrs	x1, tpidr_el3
    43002488:	b9401821 	ldr	w1, [x1, #24]
    4300248c:	7100043f 	cmp	w1, #0x1
    43002490:	54000061 	b.ne	4300249c <psci_warmboot_entrypoint+0x34>  // b.any
    43002494:	9400097b 	bl	43004a80 <console_flush>
    43002498:	94000d1a 	bl	43005900 <do_panic>
    4300249c:	2a0003f4 	mov	w20, w0
    430024a0:	d53ed041 	mrs	x1, tpidr_el3
    430024a4:	b9401c33 	ldr	w19, [x1, #28]
    430024a8:	9100a3e2 	add	x2, sp, #0x28
    430024ac:	52800041 	mov	w1, #0x2                   	// #2
    430024b0:	71000e7f 	cmp	w19, #0x3
    430024b4:	1a811273 	csel	w19, w19, w1, ne	// ne = any
    430024b8:	2a1303e1 	mov	w1, w19
    430024bc:	97fffecc 	bl	43001fec <psci_get_parent_pwr_domain_nodes>
    430024c0:	9100a3e1 	add	x1, sp, #0x28
    430024c4:	2a1303e0 	mov	w0, w19
    430024c8:	97ffff72 	bl	43002290 <psci_acquire_pwr_domain_locks>
    430024cc:	910083e1 	add	x1, sp, #0x20
    430024d0:	2a1303e0 	mov	w0, w19
    430024d4:	97fffea4 	bl	43001f64 <psci_get_target_local_pwr_states>
    430024d8:	d53ed040 	mrs	x0, tpidr_el3
    430024dc:	b9401800 	ldr	w0, [x0, #24]
    430024e0:	910083e1 	add	x1, sp, #0x20
    430024e4:	7100081f 	cmp	w0, #0x2
    430024e8:	2a1403e0 	mov	w0, w20
    430024ec:	54000141 	b.ne	43002514 <psci_warmboot_entrypoint+0xac>  // b.any
    430024f0:	9400020e 	bl	43002d28 <psci_cpu_on_finish>
    430024f4:	2a1303e0 	mov	w0, w19
    430024f8:	97fffecd 	bl	4300202c <psci_set_pwr_domains_to_run>
    430024fc:	9100a3e1 	add	x1, sp, #0x28
    43002500:	2a1303e0 	mov	w0, w19
    43002504:	97ffff7e 	bl	430022fc <psci_release_pwr_domain_locks>
    43002508:	a94153f3 	ldp	x19, x20, [sp, #16]
    4300250c:	a8c37bfd 	ldp	x29, x30, [sp], #48
    43002510:	d65f03c0 	ret
    43002514:	9400037b 	bl	43003300 <psci_cpu_suspend_finish>
    43002518:	17fffff7 	b	430024f4 <psci_warmboot_entrypoint+0x8c>

000000004300251c <psci_spd_migrate_info>:
    4300251c:	f0000021 	adrp	x1, 43009000 <__STACKS_START__+0xf80>
    43002520:	f9432021 	ldr	x1, [x1, #1600]
    43002524:	b40000a1 	cbz	x1, 43002538 <psci_spd_migrate_info+0x1c>
    43002528:	f9401821 	ldr	x1, [x1, #48]
    4300252c:	b4000061 	cbz	x1, 43002538 <psci_spd_migrate_info+0x1c>
    43002530:	aa0103f0 	mov	x16, x1
    43002534:	d61f0200 	br	x16
    43002538:	12800000 	mov	w0, #0xffffffff            	// #-1
    4300253c:	d65f03c0 	ret

0000000043002540 <psci_print_power_domain_map>:
    43002540:	d65f03c0 	ret

0000000043002544 <psci_do_pwrdown_sequence>:
    43002544:	14000c36 	b	4300561c <psci_do_pwrdown_cache_maintenance>

0000000043002548 <psci_cpu_on>:
    43002548:	a9b77bfd 	stp	x29, x30, [sp, #-144]!
    4300254c:	910003fd 	mov	x29, sp
    43002550:	a90153f3 	stp	x19, x20, [sp, #16]
    43002554:	aa0003f3 	mov	x19, x0
    43002558:	aa0103f4 	mov	x20, x1
    4300255c:	f90013f5 	str	x21, [sp, #32]
    43002560:	aa0203f5 	mov	x21, x2
    43002564:	97ffff7c 	bl	43002354 <psci_validate_mpidr>
    43002568:	350001a0 	cbnz	w0, 4300259c <psci_cpu_on+0x54>
    4300256c:	aa1503e2 	mov	x2, x21
    43002570:	aa1403e1 	mov	x1, x20
    43002574:	9100e3e0 	add	x0, sp, #0x38
    43002578:	97ffff7f 	bl	43002374 <psci_validate_entry_point>
    4300257c:	35000080 	cbnz	w0, 4300258c <psci_cpu_on+0x44>
    43002580:	9100e3e1 	add	x1, sp, #0x38
    43002584:	aa1303e0 	mov	x0, x19
    43002588:	94000190 	bl	43002bc8 <psci_cpu_on_start>
    4300258c:	a94153f3 	ldp	x19, x20, [sp, #16]
    43002590:	f94013f5 	ldr	x21, [sp, #32]
    43002594:	a8c97bfd 	ldp	x29, x30, [sp], #144
    43002598:	d65f03c0 	ret
    4300259c:	12800020 	mov	w0, #0xfffffffe            	// #-2
    430025a0:	17fffffb 	b	4300258c <psci_cpu_on+0x44>

00000000430025a4 <psci_cpu_suspend>:
    430025a4:	a9b67bfd 	stp	x29, x30, [sp, #-160]!
    430025a8:	910003fd 	mov	x29, sp
    430025ac:	a90153f3 	stp	x19, x20, [sp, #16]
    430025b0:	2a0003f3 	mov	w19, w0
    430025b4:	a9025bf5 	stp	x21, x22, [sp, #32]
    430025b8:	aa0103f6 	mov	x22, x1
    430025bc:	910103e1 	add	x1, sp, #0x40
    430025c0:	f9001bf7 	str	x23, [sp, #48]
    430025c4:	aa0203f7 	mov	x23, x2
    430025c8:	790083ff 	strh	wzr, [sp, #64]
    430025cc:	39010bff 	strb	wzr, [sp, #66]
    430025d0:	97fffe2b 	bl	43001e7c <psci_validate_power_state>
    430025d4:	2a0003f4 	mov	w20, w0
    430025d8:	350002a0 	cbnz	w0, 4300262c <psci_cpu_suspend+0x88>
    430025dc:	910103e0 	add	x0, sp, #0x40
    430025e0:	d3504273 	ubfx	x19, x19, #16, #1
    430025e4:	97ffff1e 	bl	4300225c <psci_find_target_suspend_lvl>
    430025e8:	2a0003f5 	mov	w21, w0
    430025ec:	71000c1f 	cmp	w0, #0x3
    430025f0:	54000061 	b.ne	430025fc <psci_cpu_suspend+0x58>  // b.any
    430025f4:	94000923 	bl	43004a80 <console_flush>
    430025f8:	94000cc2 	bl	43005900 <do_panic>
    430025fc:	2a000260 	orr	w0, w19, w0
    43002600:	35000220 	cbnz	w0, 43002644 <psci_cpu_suspend+0xa0>
    43002604:	f0000020 	adrp	x0, 43009000 <__STACKS_START__+0xf80>
    43002608:	f9430c00 	ldr	x0, [x0, #1560]
    4300260c:	f9400001 	ldr	x1, [x0]
    43002610:	b4000361 	cbz	x1, 4300267c <psci_cpu_suspend+0xd8>
    43002614:	394103e0 	ldrb	w0, [sp, #64]
    43002618:	d53ed042 	mrs	x2, tpidr_el3
    4300261c:	39008040 	strb	w0, [x2, #32]
    43002620:	d63f0020 	blr	x1
    43002624:	d53ed040 	mrs	x0, tpidr_el3
    43002628:	3900801f 	strb	wzr, [x0, #32]
    4300262c:	a9425bf5 	ldp	x21, x22, [sp, #32]
    43002630:	2a1403e0 	mov	w0, w20
    43002634:	a94153f3 	ldp	x19, x20, [sp, #16]
    43002638:	f9401bf7 	ldr	x23, [sp, #48]
    4300263c:	a8ca7bfd 	ldp	x29, x30, [sp], #160
    43002640:	d65f03c0 	ret
    43002644:	350000f3 	cbnz	w19, 43002660 <psci_cpu_suspend+0xbc>
    43002648:	2a1303e3 	mov	w3, w19
    4300264c:	910103e2 	add	x2, sp, #0x40
    43002650:	2a1503e1 	mov	w1, w21
    43002654:	910123e0 	add	x0, sp, #0x48
    43002658:	940002be 	bl	43003150 <psci_cpu_suspend_start>
    4300265c:	17fffff4 	b	4300262c <psci_cpu_suspend+0x88>
    43002660:	aa1703e2 	mov	x2, x23
    43002664:	aa1603e1 	mov	x1, x22
    43002668:	910123e0 	add	x0, sp, #0x48
    4300266c:	97ffff42 	bl	43002374 <psci_validate_entry_point>
    43002670:	34fffec0 	cbz	w0, 43002648 <psci_cpu_suspend+0xa4>
    43002674:	2a0003f4 	mov	w20, w0
    43002678:	17ffffed 	b	4300262c <psci_cpu_suspend+0x88>
    4300267c:	12800034 	mov	w20, #0xfffffffe            	// #-2
    43002680:	17ffffeb 	b	4300262c <psci_cpu_suspend+0x88>

0000000043002684 <psci_system_suspend>:
    43002684:	a9b87bfd 	stp	x29, x30, [sp, #-128]!
    43002688:	910003fd 	mov	x29, sp
    4300268c:	a90153f3 	stp	x19, x20, [sp, #16]
    43002690:	aa0003f3 	mov	x19, x0
    43002694:	aa0103f4 	mov	x20, x1
    43002698:	97fffe08 	bl	43001eb8 <psci_is_last_on_cpu>
    4300269c:	350000c0 	cbnz	w0, 430026b4 <psci_system_suspend+0x30>
    430026a0:	12800053 	mov	w19, #0xfffffffd            	// #-3
    430026a4:	2a1303e0 	mov	w0, w19
    430026a8:	a94153f3 	ldp	x19, x20, [sp, #16]
    430026ac:	a8c87bfd 	ldp	x29, x30, [sp], #128
    430026b0:	d65f03c0 	ret
    430026b4:	aa1303e1 	mov	x1, x19
    430026b8:	aa1403e2 	mov	x2, x20
    430026bc:	9100a3e0 	add	x0, sp, #0x28
    430026c0:	97ffff2d 	bl	43002374 <psci_validate_entry_point>
    430026c4:	2a0003f3 	mov	w19, w0
    430026c8:	35fffee0 	cbnz	w0, 430026a4 <psci_system_suspend+0x20>
    430026cc:	910083e0 	add	x0, sp, #0x20
    430026d0:	97fffdf5 	bl	43001ea4 <psci_query_sys_suspend_pwrstate>
    430026d4:	910083e0 	add	x0, sp, #0x20
    430026d8:	97fffee1 	bl	4300225c <psci_find_target_suspend_lvl>
    430026dc:	7100041f 	cmp	w0, #0x1
    430026e0:	54fffe09 	b.ls	430026a0 <psci_system_suspend+0x1c>  // b.plast
    430026e4:	910083e2 	add	x2, sp, #0x20
    430026e8:	9100a3e0 	add	x0, sp, #0x28
    430026ec:	52800023 	mov	w3, #0x1                   	// #1
    430026f0:	52800041 	mov	w1, #0x2                   	// #2
    430026f4:	94000297 	bl	43003150 <psci_cpu_suspend_start>
    430026f8:	17ffffeb 	b	430026a4 <psci_system_suspend+0x20>

00000000430026fc <psci_cpu_off>:
    430026fc:	52800040 	mov	w0, #0x2                   	// #2
    43002700:	140000f1 	b	43002ac4 <psci_do_cpu_off>

0000000043002704 <psci_affinity_info>:
    43002704:	340000e1 	cbz	w1, 43002720 <psci_affinity_info+0x1c>
    43002708:	12800020 	mov	w0, #0xfffffffe            	// #-2
    4300270c:	d65f03c0 	ret
    43002710:	12800020 	mov	w0, #0xfffffffe            	// #-2
    43002714:	f9400bf3 	ldr	x19, [sp, #16]
    43002718:	a8c27bfd 	ldp	x29, x30, [sp], #32
    4300271c:	d65f03c0 	ret
    43002720:	a9be7bfd 	stp	x29, x30, [sp, #-32]!
    43002724:	910003fd 	mov	x29, sp
    43002728:	f9000bf3 	str	x19, [sp, #16]
    4300272c:	940007d7 	bl	43004688 <plat_core_pos_by_mpidr>
    43002730:	2a0003f3 	mov	w19, w0
    43002734:	3100041f 	cmn	w0, #0x1
    43002738:	54fffec0 	b.eq	43002710 <psci_affinity_info+0xc>  // b.none
    4300273c:	94000ba8 	bl	430055dc <_cpu_data_by_index>
    43002740:	91006000 	add	x0, x0, #0x18
    43002744:	d2800081 	mov	x1, #0x4                   	// #4
    43002748:	94000c7a 	bl	43005930 <flush_dcache_range>
    4300274c:	2a1303e0 	mov	w0, w19
    43002750:	94000ba3 	bl	430055dc <_cpu_data_by_index>
    43002754:	b9401800 	ldr	w0, [x0, #24]
    43002758:	17ffffef 	b	43002714 <psci_affinity_info+0x10>

000000004300275c <psci_migrate>:
    4300275c:	a9bd7bfd 	stp	x29, x30, [sp, #-48]!
    43002760:	910003fd 	mov	x29, sp
    43002764:	f9000bf3 	str	x19, [sp, #16]
    43002768:	aa0003f3 	mov	x19, x0
    4300276c:	9100a3e0 	add	x0, sp, #0x28
    43002770:	97ffff6b 	bl	4300251c <psci_spd_migrate_info>
    43002774:	340000e0 	cbz	w0, 43002790 <psci_migrate+0x34>
    43002778:	7100041f 	cmp	w0, #0x1
    4300277c:	12800040 	mov	w0, #0xfffffffd            	// #-3
    43002780:	5a9f0000 	csinv	w0, w0, wzr, eq	// eq = none
    43002784:	f9400bf3 	ldr	x19, [sp, #16]
    43002788:	a8c37bfd 	ldp	x29, x30, [sp], #48
    4300278c:	d65f03c0 	ret
    43002790:	d53800a0 	mrs	x0, mpidr_el1
    43002794:	f94017e1 	ldr	x1, [sp, #40]
    43002798:	eb00003f 	cmp	x1, x0
    4300279c:	54000161 	b.ne	430027c8 <psci_migrate+0x6c>  // b.any
    430027a0:	aa1303e0 	mov	x0, x19
    430027a4:	97fffeec 	bl	43002354 <psci_validate_mpidr>
    430027a8:	35000140 	cbnz	w0, 430027d0 <psci_migrate+0x74>
    430027ac:	d53800a0 	mrs	x0, mpidr_el1
    430027b0:	f0000021 	adrp	x1, 43009000 <__STACKS_START__+0xf80>
    430027b4:	f9432021 	ldr	x1, [x1, #1600]
    430027b8:	f9401422 	ldr	x2, [x1, #40]
    430027bc:	aa1303e1 	mov	x1, x19
    430027c0:	d63f0040 	blr	x2
    430027c4:	17fffff0 	b	43002784 <psci_migrate+0x28>
    430027c8:	128000c0 	mov	w0, #0xfffffff9            	// #-7
    430027cc:	17ffffee 	b	43002784 <psci_migrate+0x28>
    430027d0:	12800020 	mov	w0, #0xfffffffe            	// #-2
    430027d4:	17ffffec 	b	43002784 <psci_migrate+0x28>

00000000430027d8 <psci_migrate_info_type>:
    430027d8:	a9be7bfd 	stp	x29, x30, [sp, #-32]!
    430027dc:	910003fd 	mov	x29, sp
    430027e0:	910063e0 	add	x0, sp, #0x18
    430027e4:	97ffff4e 	bl	4300251c <psci_spd_migrate_info>
    430027e8:	a8c27bfd 	ldp	x29, x30, [sp], #32
    430027ec:	d65f03c0 	ret

00000000430027f0 <psci_migrate_info_up_cpu>:
    430027f0:	a9be7bfd 	stp	x29, x30, [sp, #-32]!
    430027f4:	910003fd 	mov	x29, sp
    430027f8:	910063e0 	add	x0, sp, #0x18
    430027fc:	97ffff48 	bl	4300251c <psci_spd_migrate_info>
    43002800:	f9400fe1 	ldr	x1, [sp, #24]
    43002804:	7100041f 	cmp	w0, #0x1
    43002808:	a8c27bfd 	ldp	x29, x30, [sp], #32
    4300280c:	92800020 	mov	x0, #0xfffffffffffffffe    	// #-2
    43002810:	9a809020 	csel	x0, x1, x0, ls	// ls = plast
    43002814:	d65f03c0 	ret

0000000043002818 <psci_node_hw_state>:
    43002818:	a9be7bfd 	stp	x29, x30, [sp, #-32]!
    4300281c:	910003fd 	mov	x29, sp
    43002820:	a90153f3 	stp	x19, x20, [sp, #16]
    43002824:	aa0003f4 	mov	x20, x0
    43002828:	2a0103f3 	mov	w19, w1
    4300282c:	97fffeca 	bl	43002354 <psci_validate_mpidr>
    43002830:	35000180 	cbnz	w0, 43002860 <psci_node_hw_state+0x48>
    43002834:	71000a7f 	cmp	w19, #0x2
    43002838:	54000148 	b.hi	43002860 <psci_node_hw_state+0x48>  // b.pmore
    4300283c:	f0000020 	adrp	x0, 43009000 <__STACKS_START__+0xf80>
    43002840:	2a1303e1 	mov	w1, w19
    43002844:	f9430c00 	ldr	x0, [x0, #1560]
    43002848:	f9404002 	ldr	x2, [x0, #128]
    4300284c:	aa1403e0 	mov	x0, x20
    43002850:	a94153f3 	ldp	x19, x20, [sp, #16]
    43002854:	aa0203f0 	mov	x16, x2
    43002858:	a8c27bfd 	ldp	x29, x30, [sp], #32
    4300285c:	d61f0200 	br	x16
    43002860:	a94153f3 	ldp	x19, x20, [sp, #16]
    43002864:	12800020 	mov	w0, #0xfffffffe            	// #-2
    43002868:	a8c27bfd 	ldp	x29, x30, [sp], #32
    4300286c:	d65f03c0 	ret

0000000043002870 <psci_features>:
    43002870:	52b00001 	mov	w1, #0x80000000            	// #-2147483648
    43002874:	6b01001f 	cmp	w0, w1
    43002878:	54000260 	b.eq	430028c4 <psci_features+0x54>  // b.none
    4300287c:	f0000021 	adrp	x1, 43009000 <__STACKS_START__+0xf80>
    43002880:	b94a9c21 	ldr	w1, [x1, #2716]
    43002884:	36f00080 	tbz	w0, #30, 43002894 <psci_features+0x24>
    43002888:	528c1742 	mov	w2, #0x60ba                	// #24762
    4300288c:	72a002e2 	movk	w2, #0x17, lsl #16
    43002890:	0a020021 	and	w1, w1, w2
    43002894:	12081403 	and	w3, w0, #0x3f000000
    43002898:	52a08002 	mov	w2, #0x4000000             	// #67108864
    4300289c:	6b02007f 	cmp	w3, w2
    430028a0:	54000161 	b.ne	430028cc <psci_features+0x5c>  // b.any
    430028a4:	531f7c02 	lsr	w2, w0, #31
    430028a8:	36f80120 	tbz	w0, #31, 430028cc <psci_features+0x5c>
    430028ac:	721b481f 	tst	w0, #0xffffe0
    430028b0:	540000e1 	b.ne	430028cc <psci_features+0x5c>  // b.any
    430028b4:	1ac02040 	lsl	w0, w2, w0
    430028b8:	6a01001f 	tst	w0, w1
    430028bc:	5a9f13e0 	csetm	w0, eq	// eq = none
    430028c0:	d65f03c0 	ret
    430028c4:	52800000 	mov	w0, #0x0                   	// #0
    430028c8:	17fffffe 	b	430028c0 <psci_features+0x50>
    430028cc:	12800000 	mov	w0, #0xffffffff            	// #-1
    430028d0:	17fffffc 	b	430028c0 <psci_features+0x50>

00000000430028d4 <psci_smc_handler>:
    430028d4:	360009e7 	tbz	w7, #0, 43002a10 <psci_smc_handler+0x13c>
    430028d8:	f0000025 	adrp	x5, 43009000 <__STACKS_START__+0xf80>
    430028dc:	2a0003e4 	mov	w4, w0
    430028e0:	aa0103e0 	mov	x0, x1
    430028e4:	aa0203e1 	mov	x1, x2
    430028e8:	b94a9ca5 	ldr	w5, [x5, #2716]
    430028ec:	aa0303e2 	mov	x2, x3
    430028f0:	52800023 	mov	w3, #0x1                   	// #1
    430028f4:	1ac42063 	lsl	w3, w3, w4
    430028f8:	6a05007f 	tst	w3, w5
    430028fc:	540008a0 	b.eq	43002a10 <psci_smc_handler+0x13c>  // b.none
    43002900:	a9bf7bfd 	stp	x29, x30, [sp, #-16]!
    43002904:	910003fd 	mov	x29, sp
    43002908:	37f00704 	tbnz	w4, #30, 430029e8 <psci_smc_handler+0x114>
    4300290c:	52af8003 	mov	w3, #0x7c000000            	// #2080374784
    43002910:	0b030084 	add	w4, w4, w3
    43002914:	7100509f 	cmp	w4, #0x14
    43002918:	54000808 	b.hi	43002a18 <psci_smc_handler+0x144>  // b.pmore
    4300291c:	90000023 	adrp	x3, 43006000 <efuse_write+0x268>
    43002920:	91378063 	add	x3, x3, #0xde0
    43002924:	38644863 	ldrb	w3, [x3, w4, uxtw]
    43002928:	10000064 	adr	x4, 43002934 <psci_smc_handler+0x60>
    4300292c:	8b238883 	add	x3, x4, w3, sxtb #2
    43002930:	d61f0060 	br	x3
    43002934:	320083e0 	mov	w0, #0x10001               	// #65537
    43002938:	a8c17bfd 	ldp	x29, x30, [sp], #16
    4300293c:	d65f03c0 	ret
    43002940:	97ffff6f 	bl	430026fc <psci_cpu_off>
    43002944:	93407c00 	sxtw	x0, w0
    43002948:	17fffffc 	b	43002938 <psci_smc_handler+0x64>
    4300294c:	2a0203e2 	mov	w2, w2
    43002950:	2a0103e1 	mov	w1, w1
    43002954:	97ffff14 	bl	430025a4 <psci_cpu_suspend>
    43002958:	17fffffb 	b	43002944 <psci_smc_handler+0x70>
    4300295c:	2a0203e2 	mov	w2, w2
    43002960:	2a0103e1 	mov	w1, w1
    43002964:	2a0003e0 	mov	w0, w0
    43002968:	97fffef8 	bl	43002548 <psci_cpu_on>
    4300296c:	17fffff6 	b	43002944 <psci_smc_handler+0x70>
    43002970:	2a0003e0 	mov	w0, w0
    43002974:	97ffff64 	bl	43002704 <psci_affinity_info>
    43002978:	17fffff3 	b	43002944 <psci_smc_handler+0x70>
    4300297c:	2a0003e0 	mov	w0, w0
    43002980:	97ffff77 	bl	4300275c <psci_migrate>
    43002984:	17fffff0 	b	43002944 <psci_smc_handler+0x70>
    43002988:	97ffff94 	bl	430027d8 <psci_migrate_info_type>
    4300298c:	17ffffee 	b	43002944 <psci_smc_handler+0x70>
    43002990:	a8c17bfd 	ldp	x29, x30, [sp], #16
    43002994:	17ffff97 	b	430027f0 <psci_migrate_info_up_cpu>
    43002998:	2a0003e0 	mov	w0, w0
    4300299c:	97ffff9f 	bl	43002818 <psci_node_hw_state>
    430029a0:	17ffffe9 	b	43002944 <psci_smc_handler+0x70>
    430029a4:	2a0103e1 	mov	w1, w1
    430029a8:	2a0003e0 	mov	w0, w0
    430029ac:	97ffff36 	bl	43002684 <psci_system_suspend>
    430029b0:	17ffffe5 	b	43002944 <psci_smc_handler+0x70>
    430029b4:	9400027b 	bl	430033a0 <psci_system_off>
    430029b8:	94000288 	bl	430033d8 <psci_system_reset>
    430029bc:	97ffffad 	bl	43002870 <psci_features>
    430029c0:	17ffffe1 	b	43002944 <psci_smc_handler+0x70>
    430029c4:	a8c17bfd 	ldp	x29, x30, [sp], #16
    430029c8:	14000016 	b	43002a20 <psci_mem_protect>
    430029cc:	2a0103e1 	mov	w1, w1
    430029d0:	2a0003e0 	mov	w0, w0
    430029d4:	a8c17bfd 	ldp	x29, x30, [sp], #16
    430029d8:	14000029 	b	43002a7c <psci_mem_chk_range>
    430029dc:	2a0103e1 	mov	w1, w1
    430029e0:	a8c17bfd 	ldp	x29, x30, [sp], #16
    430029e4:	1400028b 	b	43003410 <psci_system_reset2>
    430029e8:	12b88003 	mov	w3, #0x3bffffff            	// #1006632959
    430029ec:	0b030084 	add	w4, w4, w3
    430029f0:	71004c9f 	cmp	w4, #0x13
    430029f4:	54000128 	b.hi	43002a18 <psci_smc_handler+0x144>  // b.pmore
    430029f8:	90000023 	adrp	x3, 43006000 <efuse_write+0x268>
    430029fc:	9137e063 	add	x3, x3, #0xdf8
    43002a00:	38644863 	ldrb	w3, [x3, w4, uxtw]
    43002a04:	10000064 	adr	x4, 43002a10 <psci_smc_handler+0x13c>
    43002a08:	8b238883 	add	x3, x4, w3, sxtb #2
    43002a0c:	d61f0060 	br	x3
    43002a10:	92800000 	mov	x0, #0xffffffffffffffff    	// #-1
    43002a14:	d65f03c0 	ret
    43002a18:	92800000 	mov	x0, #0xffffffffffffffff    	// #-1
    43002a1c:	17ffffc7 	b	43002938 <psci_smc_handler+0x64>

0000000043002a20 <psci_mem_protect>:
    43002a20:	a9bd7bfd 	stp	x29, x30, [sp, #-48]!
    43002a24:	910003fd 	mov	x29, sp
    43002a28:	a90153f3 	stp	x19, x20, [sp, #16]
    43002a2c:	f0000034 	adrp	x20, 43009000 <__STACKS_START__+0xf80>
    43002a30:	2a0003f3 	mov	w19, w0
    43002a34:	f9430e80 	ldr	x0, [x20, #1560]
    43002a38:	f9404801 	ldr	x1, [x0, #144]
    43002a3c:	9100b3e0 	add	x0, sp, #0x2c
    43002a40:	d63f0020 	blr	x1
    43002a44:	36f800a0 	tbz	w0, #31, 43002a58 <psci_mem_protect+0x38>
    43002a48:	92800000 	mov	x0, #0xffffffffffffffff    	// #-1
    43002a4c:	a94153f3 	ldp	x19, x20, [sp, #16]
    43002a50:	a8c37bfd 	ldp	x29, x30, [sp], #48
    43002a54:	d65f03c0 	ret
    43002a58:	f9430e80 	ldr	x0, [x20, #1560]
    43002a5c:	f9404c01 	ldr	x1, [x0, #152]
    43002a60:	2a1303e0 	mov	w0, w19
    43002a64:	d63f0020 	blr	x1
    43002a68:	37ffff00 	tbnz	w0, #31, 43002a48 <psci_mem_protect+0x28>
    43002a6c:	b9402fe0 	ldr	w0, [sp, #44]
    43002a70:	7100001f 	cmp	w0, #0x0
    43002a74:	9a9f07e0 	cset	x0, ne	// ne = any
    43002a78:	17fffff5 	b	43002a4c <psci_mem_protect+0x2c>

0000000043002a7c <psci_mem_chk_range>:
    43002a7c:	b4000081 	cbz	x1, 43002a8c <psci_mem_chk_range+0x10>
    43002a80:	cb0103e2 	neg	x2, x1
    43002a84:	eb00005f 	cmp	x2, x0
    43002a88:	540000c2 	b.cs	43002aa0 <psci_mem_chk_range+0x24>  // b.hs, b.nlast
    43002a8c:	92800040 	mov	x0, #0xfffffffffffffffd    	// #-3
    43002a90:	d65f03c0 	ret
    43002a94:	92800040 	mov	x0, #0xfffffffffffffffd    	// #-3
    43002a98:	a8c17bfd 	ldp	x29, x30, [sp], #16
    43002a9c:	d65f03c0 	ret
    43002aa0:	a9bf7bfd 	stp	x29, x30, [sp, #-16]!
    43002aa4:	f0000022 	adrp	x2, 43009000 <__STACKS_START__+0xf80>
    43002aa8:	910003fd 	mov	x29, sp
    43002aac:	f9430c42 	ldr	x2, [x2, #1560]
    43002ab0:	f9404442 	ldr	x2, [x2, #136]
    43002ab4:	d63f0040 	blr	x2
    43002ab8:	37fffee0 	tbnz	w0, #31, 43002a94 <psci_mem_chk_range+0x18>
    43002abc:	d2800000 	mov	x0, #0x0                   	// #0
    43002ac0:	17fffff6 	b	43002a98 <psci_mem_chk_range+0x1c>

0000000043002ac4 <psci_do_cpu_off>:
    43002ac4:	a9bd7bfd 	stp	x29, x30, [sp, #-48]!
    43002ac8:	910003fd 	mov	x29, sp
    43002acc:	a90153f3 	stp	x19, x20, [sp, #16]
    43002ad0:	2a0003f4 	mov	w20, w0
    43002ad4:	94000b64 	bl	43005864 <plat_my_core_pos>
    43002ad8:	9100a3e2 	add	x2, sp, #0x28
    43002adc:	52804041 	mov	w1, #0x202                 	// #514
    43002ae0:	790043e1 	strh	w1, [sp, #32]
    43002ae4:	52800041 	mov	w1, #0x2                   	// #2
    43002ae8:	39008be1 	strb	w1, [sp, #34]
    43002aec:	2a1403e1 	mov	w1, w20
    43002af0:	f90017ff 	str	xzr, [sp, #40]
    43002af4:	97fffd3e 	bl	43001fec <psci_get_parent_pwr_domain_nodes>
    43002af8:	2a1403e0 	mov	w0, w20
    43002afc:	9100a3e1 	add	x1, sp, #0x28
    43002b00:	97fffde4 	bl	43002290 <psci_acquire_pwr_domain_locks>
    43002b04:	f0000020 	adrp	x0, 43009000 <__STACKS_START__+0xf80>
    43002b08:	f9432000 	ldr	x0, [x0, #1600]
    43002b0c:	b5000460 	cbnz	x0, 43002b98 <psci_do_cpu_off+0xd4>
    43002b10:	910083e1 	add	x1, sp, #0x20
    43002b14:	2a1403e0 	mov	w0, w20
    43002b18:	97fffd66 	bl	430020b0 <psci_do_state_coordination>
    43002b1c:	52800013 	mov	w19, #0x0                   	// #0
    43002b20:	910083e0 	add	x0, sp, #0x20
    43002b24:	97fffdbf 	bl	43002220 <psci_find_max_off_lvl>
    43002b28:	97fffe87 	bl	43002544 <psci_do_pwrdown_sequence>
    43002b2c:	f0000020 	adrp	x0, 43009000 <__STACKS_START__+0xf80>
    43002b30:	f9430c00 	ldr	x0, [x0, #1560]
    43002b34:	f9400801 	ldr	x1, [x0, #16]
    43002b38:	910083e0 	add	x0, sp, #0x20
    43002b3c:	d63f0020 	blr	x1
    43002b40:	9100a3e1 	add	x1, sp, #0x28
    43002b44:	2a1403e0 	mov	w0, w20
    43002b48:	97fffded 	bl	430022fc <psci_release_pwr_domain_locks>
    43002b4c:	35000373 	cbnz	w19, 43002bb8 <psci_do_cpu_off+0xf4>
    43002b50:	d53ed040 	mrs	x0, tpidr_el3
    43002b54:	d2800081 	mov	x1, #0x4                   	// #4
    43002b58:	91006000 	add	x0, x0, #0x18
    43002b5c:	94000b75 	bl	43005930 <flush_dcache_range>
    43002b60:	d53ed040 	mrs	x0, tpidr_el3
    43002b64:	52800021 	mov	w1, #0x1                   	// #1
    43002b68:	b9001801 	str	w1, [x0, #24]
    43002b6c:	d5033b9f 	dsb	ish
    43002b70:	d53ed040 	mrs	x0, tpidr_el3
    43002b74:	d2800081 	mov	x1, #0x4                   	// #4
    43002b78:	91006000 	add	x0, x0, #0x18
    43002b7c:	94000b89 	bl	430059a0 <inv_dcache_range>
    43002b80:	f0000020 	adrp	x0, 43009000 <__STACKS_START__+0xf80>
    43002b84:	f9430c00 	ldr	x0, [x0, #1560]
    43002b88:	f9402001 	ldr	x1, [x0, #64]
    43002b8c:	b4000141 	cbz	x1, 43002bb4 <psci_do_cpu_off+0xf0>
    43002b90:	910083e0 	add	x0, sp, #0x20
    43002b94:	d63f0020 	blr	x1
    43002b98:	f9400401 	ldr	x1, [x0, #8]
    43002b9c:	b4fffba1 	cbz	x1, 43002b10 <psci_do_cpu_off+0x4c>
    43002ba0:	d2800000 	mov	x0, #0x0                   	// #0
    43002ba4:	d63f0020 	blr	x1
    43002ba8:	2a0003f3 	mov	w19, w0
    43002bac:	34fffb20 	cbz	w0, 43002b10 <psci_do_cpu_off+0x4c>
    43002bb0:	17ffffe4 	b	43002b40 <psci_do_cpu_off+0x7c>
    43002bb4:	94000ab6 	bl	4300568c <psci_power_down_wfi>
    43002bb8:	2a1303e0 	mov	w0, w19
    43002bbc:	a94153f3 	ldp	x19, x20, [sp, #16]
    43002bc0:	a8c37bfd 	ldp	x29, x30, [sp], #48
    43002bc4:	d65f03c0 	ret

0000000043002bc8 <psci_cpu_on_start>:
    43002bc8:	a9bc7bfd 	stp	x29, x30, [sp, #-64]!
    43002bcc:	910003fd 	mov	x29, sp
    43002bd0:	a90153f3 	stp	x19, x20, [sp, #16]
    43002bd4:	aa0003f4 	mov	x20, x0
    43002bd8:	a9025bf5 	stp	x21, x22, [sp, #32]
    43002bdc:	aa0103f6 	mov	x22, x1
    43002be0:	d2800195 	mov	x21, #0xc                   	// #12
    43002be4:	f9001bf7 	str	x23, [sp, #48]
    43002be8:	940006a8 	bl	43004688 <plat_core_pos_by_mpidr>
    43002bec:	f0000022 	adrp	x2, 43009000 <__STACKS_START__+0xf80>
    43002bf0:	91188042 	add	x2, x2, #0x620
    43002bf4:	8b2052b5 	add	x21, x21, w0, uxtw #4
    43002bf8:	2a0003f3 	mov	w19, w0
    43002bfc:	8b0202b5 	add	x21, x21, x2
    43002c00:	aa1503e0 	mov	x0, x21
    43002c04:	94000a7c 	bl	430055f4 <spin_lock>
    43002c08:	2a1303e0 	mov	w0, w19
    43002c0c:	94000a74 	bl	430055dc <_cpu_data_by_index>
    43002c10:	d2800081 	mov	x1, #0x4                   	// #4
    43002c14:	91006000 	add	x0, x0, #0x18
    43002c18:	94000b46 	bl	43005930 <flush_dcache_range>
    43002c1c:	2a1303e0 	mov	w0, w19
    43002c20:	94000a6f 	bl	430055dc <_cpu_data_by_index>
    43002c24:	b9401800 	ldr	w0, [x0, #24]
    43002c28:	34000780 	cbz	w0, 43002d18 <psci_cpu_on_start+0x150>
    43002c2c:	7100081f 	cmp	w0, #0x2
    43002c30:	54000780 	b.eq	43002d20 <psci_cpu_on_start+0x158>  // b.none
    43002c34:	f0000020 	adrp	x0, 43009000 <__STACKS_START__+0xf80>
    43002c38:	f9432000 	ldr	x0, [x0, #1600]
    43002c3c:	b40000a0 	cbz	x0, 43002c50 <psci_cpu_on_start+0x88>
    43002c40:	f9400001 	ldr	x1, [x0]
    43002c44:	b4000061 	cbz	x1, 43002c50 <psci_cpu_on_start+0x88>
    43002c48:	aa1403e0 	mov	x0, x20
    43002c4c:	d63f0020 	blr	x1
    43002c50:	2a1303e0 	mov	w0, w19
    43002c54:	52800057 	mov	w23, #0x2                   	// #2
    43002c58:	94000a61 	bl	430055dc <_cpu_data_by_index>
    43002c5c:	b9001817 	str	w23, [x0, #24]
    43002c60:	2a1303e0 	mov	w0, w19
    43002c64:	94000a5e 	bl	430055dc <_cpu_data_by_index>
    43002c68:	91006000 	add	x0, x0, #0x18
    43002c6c:	d2800081 	mov	x1, #0x4                   	// #4
    43002c70:	94000b30 	bl	43005930 <flush_dcache_range>
    43002c74:	2a1303e0 	mov	w0, w19
    43002c78:	94000a59 	bl	430055dc <_cpu_data_by_index>
    43002c7c:	b9401800 	ldr	w0, [x0, #24]
    43002c80:	6b17001f 	cmp	w0, w23
    43002c84:	54000120 	b.eq	43002ca8 <psci_cpu_on_start+0xe0>  // b.none
    43002c88:	2a1303e0 	mov	w0, w19
    43002c8c:	94000a54 	bl	430055dc <_cpu_data_by_index>
    43002c90:	b9001817 	str	w23, [x0, #24]
    43002c94:	2a1303e0 	mov	w0, w19
    43002c98:	94000a51 	bl	430055dc <_cpu_data_by_index>
    43002c9c:	91006000 	add	x0, x0, #0x18
    43002ca0:	d2800081 	mov	x1, #0x4                   	// #4
    43002ca4:	94000b23 	bl	43005930 <flush_dcache_range>
    43002ca8:	f0000020 	adrp	x0, 43009000 <__STACKS_START__+0xf80>
    43002cac:	f9430c00 	ldr	x0, [x0, #1560]
    43002cb0:	f9400401 	ldr	x1, [x0, #8]
    43002cb4:	aa1403e0 	mov	x0, x20
    43002cb8:	d63f0020 	blr	x1
    43002cbc:	2a0003f4 	mov	w20, w0
    43002cc0:	35000180 	cbnz	w0, 43002cf0 <psci_cpu_on_start+0x128>
    43002cc4:	aa1603e1 	mov	x1, x22
    43002cc8:	2a1303e0 	mov	w0, w19
    43002ccc:	97fffb93 	bl	43001b18 <cm_init_context_by_index>
    43002cd0:	aa1503e0 	mov	x0, x21
    43002cd4:	94000a50 	bl	43005614 <spin_unlock>
    43002cd8:	a9425bf5 	ldp	x21, x22, [sp, #32]
    43002cdc:	2a1403e0 	mov	w0, w20
    43002ce0:	a94153f3 	ldp	x19, x20, [sp, #16]
    43002ce4:	f9401bf7 	ldr	x23, [sp, #48]
    43002ce8:	a8c47bfd 	ldp	x29, x30, [sp], #64
    43002cec:	d65f03c0 	ret
    43002cf0:	2a1303e0 	mov	w0, w19
    43002cf4:	94000a3a 	bl	430055dc <_cpu_data_by_index>
    43002cf8:	52800021 	mov	w1, #0x1                   	// #1
    43002cfc:	b9001801 	str	w1, [x0, #24]
    43002d00:	2a1303e0 	mov	w0, w19
    43002d04:	94000a36 	bl	430055dc <_cpu_data_by_index>
    43002d08:	91006000 	add	x0, x0, #0x18
    43002d0c:	d2800081 	mov	x1, #0x4                   	// #4
    43002d10:	94000b08 	bl	43005930 <flush_dcache_range>
    43002d14:	17ffffef 	b	43002cd0 <psci_cpu_on_start+0x108>
    43002d18:	12800074 	mov	w20, #0xfffffffc            	// #-4
    43002d1c:	17ffffed 	b	43002cd0 <psci_cpu_on_start+0x108>
    43002d20:	12800094 	mov	w20, #0xfffffffb            	// #-5
    43002d24:	17ffffeb 	b	43002cd0 <psci_cpu_on_start+0x108>

0000000043002d28 <psci_cpu_on_finish>:
    43002d28:	a9bd7bfd 	stp	x29, x30, [sp, #-48]!
    43002d2c:	910003fd 	mov	x29, sp
    43002d30:	a9025bf5 	stp	x21, x22, [sp, #32]
    43002d34:	f0000035 	adrp	x21, 43009000 <__STACKS_START__+0xf80>
    43002d38:	a90153f3 	stp	x19, x20, [sp, #16]
    43002d3c:	2a0003f3 	mov	w19, w0
    43002d40:	aa0103f4 	mov	x20, x1
    43002d44:	f9430ea0 	ldr	x0, [x21, #1560]
    43002d48:	f9401401 	ldr	x1, [x0, #40]
    43002d4c:	aa1403e0 	mov	x0, x20
    43002d50:	d63f0020 	blr	x1
    43002d54:	94000a41 	bl	43005658 <psci_do_pwrup_cache_maintenance>
    43002d58:	f9430ea0 	ldr	x0, [x21, #1560]
    43002d5c:	f9401801 	ldr	x1, [x0, #48]
    43002d60:	b4000061 	cbz	x1, 43002d6c <psci_cpu_on_finish+0x44>
    43002d64:	aa1403e0 	mov	x0, x20
    43002d68:	d63f0020 	blr	x1
    43002d6c:	d2800194 	mov	x20, #0xc                   	// #12
    43002d70:	f0000035 	adrp	x21, 43009000 <__STACKS_START__+0xf80>
    43002d74:	8b335294 	add	x20, x20, w19, uxtw #4
    43002d78:	911882b5 	add	x21, x21, #0x620
    43002d7c:	8b150294 	add	x20, x20, x21
    43002d80:	9400001f 	bl	43002dfc <psci_arch_setup>
    43002d84:	aa1403e0 	mov	x0, x20
    43002d88:	94000a1b 	bl	430055f4 <spin_lock>
    43002d8c:	aa1403e0 	mov	x0, x20
    43002d90:	94000a21 	bl	43005614 <spin_unlock>
    43002d94:	f0000020 	adrp	x0, 43009000 <__STACKS_START__+0xf80>
    43002d98:	f9432000 	ldr	x0, [x0, #1600]
    43002d9c:	b40000a0 	cbz	x0, 43002db0 <psci_cpu_on_finish+0x88>
    43002da0:	f9400c01 	ldr	x1, [x0, #24]
    43002da4:	b4000061 	cbz	x1, 43002db0 <psci_cpu_on_finish+0x88>
    43002da8:	d2800000 	mov	x0, #0x0                   	// #0
    43002dac:	d63f0020 	blr	x1
    43002db0:	b0000034 	adrp	x20, 43007000 <gpt_soc_data+0x1ba>
    43002db4:	b0000036 	adrp	x22, 43007000 <gpt_soc_data+0x1ba>
    43002db8:	910a6294 	add	x20, x20, #0x298
    43002dbc:	910a62d6 	add	x22, x22, #0x298
    43002dc0:	eb16029f 	cmp	x20, x22
    43002dc4:	54000143 	b.cc	43002dec <psci_cpu_on_finish+0xc4>  // b.lo, b.ul, b.last
    43002dc8:	d53800a0 	mrs	x0, mpidr_el1
    43002dcc:	d37c7e73 	ubfiz	x19, x19, #4, #32
    43002dd0:	92409c00 	and	x0, x0, #0xffffffffff
    43002dd4:	9260dc00 	and	x0, x0, #0xffffffff00ffffff
    43002dd8:	f8336aa0 	str	x0, [x21, x19]
    43002ddc:	a94153f3 	ldp	x19, x20, [sp, #16]
    43002de0:	a9425bf5 	ldp	x21, x22, [sp, #32]
    43002de4:	a8c37bfd 	ldp	x29, x30, [sp], #48
    43002de8:	17fffbbd 	b	43001cdc <cm_prepare_el3_exit_ns>
    43002dec:	f8408681 	ldr	x1, [x20], #8
    43002df0:	d2800000 	mov	x0, #0x0                   	// #0
    43002df4:	d63f0020 	blr	x1
    43002df8:	17fffff2 	b	43002dc0 <psci_cpu_on_finish+0x98>

0000000043002dfc <psci_arch_setup>:
    43002dfc:	a9bf7bfd 	stp	x29, x30, [sp, #-16]!
    43002e00:	910003fd 	mov	x29, sp
    43002e04:	9400033c 	bl	43003af4 <plat_get_syscnt_freq2>
    43002e08:	2a0003e0 	mov	w0, w0
    43002e0c:	d51be000 	msr	cntfrq_el0, x0
    43002e10:	a8c17bfd 	ldp	x29, x30, [sp], #16
    43002e14:	1400093c 	b	43005304 <init_cpu_ops>

0000000043002e18 <psci_setup>:
    43002e18:	a9b87bfd 	stp	x29, x30, [sp, #-128]!
    43002e1c:	910003fd 	mov	x29, sp
    43002e20:	a90153f3 	stp	x19, x20, [sp, #16]
    43002e24:	52800013 	mov	w19, #0x0                   	// #0
    43002e28:	a9025bf5 	stp	x21, x22, [sp, #32]
    43002e2c:	aa0003f5 	mov	x21, x0
    43002e30:	f0000036 	adrp	x22, 43009000 <__STACKS_START__+0xf80>
    43002e34:	a90363f7 	stp	x23, x24, [sp, #48]
    43002e38:	910482d6 	add	x22, x22, #0x120
    43002e3c:	52800017 	mov	w23, #0x0                   	// #0
    43002e40:	a9046bf9 	stp	x25, x26, [sp, #64]
    43002e44:	f000003a 	adrp	x26, 43009000 <__STACKS_START__+0xf80>
    43002e48:	9118835a 	add	x26, x26, #0x620
    43002e4c:	a90573fb 	stp	x27, x28, [sp, #80]
    43002e50:	97ffffeb 	bl	43002dfc <psci_arch_setup>
    43002e54:	9400060a 	bl	4300467c <plat_get_power_domain_tree_desc>
    43002e58:	aa0003fb 	mov	x27, x0
    43002e5c:	52800001 	mov	w1, #0x0                   	// #0
    43002e60:	52800039 	mov	w25, #0x1                   	// #1
    43002e64:	52800058 	mov	w24, #0x2                   	// #2
    43002e68:	0b1902fc 	add	w28, w23, w25
    43002e6c:	52800019 	mov	w25, #0x0                   	// #0
    43002e70:	14000009 	b	43002e94 <psci_setup+0x7c>
    43002e74:	38774b63 	ldrb	w3, [x27, w23, uxtw]
    43002e78:	2a0103f3 	mov	w19, w1
    43002e7c:	0b010064 	add	w4, w3, w1
    43002e80:	6b04027f 	cmp	w19, w4
    43002e84:	54000183 	b.cc	43002eb4 <psci_setup+0x9c>  // b.lo, b.ul, b.last
    43002e88:	0b030339 	add	w25, w25, w3
    43002e8c:	110006f7 	add	w23, w23, #0x1
    43002e90:	2a1303e1 	mov	w1, w19
    43002e94:	6b1c02ff 	cmp	w23, w28
    43002e98:	54fffee1 	b.ne	43002e74 <psci_setup+0x5c>  // b.any
    43002e9c:	71000718 	subs	w24, w24, #0x1
    43002ea0:	54000580 	b.eq	43002f50 <psci_setup+0x138>  // b.none
    43002ea4:	3100071f 	cmn	w24, #0x1
    43002ea8:	54000580 	b.eq	43002f58 <psci_setup+0x140>  // b.none
    43002eac:	2a1c03f7 	mov	w23, w28
    43002eb0:	17ffffee 	b	43002e68 <psci_setup+0x50>
    43002eb4:	510006e2 	sub	w2, w23, #0x1
    43002eb8:	12003e74 	and	w20, w19, #0xffff
    43002ebc:	34000198 	cbz	w24, 43002eec <psci_setup+0xd4>
    43002ec0:	90000061 	adrp	x1, 4300e000 <psci_locks>
    43002ec4:	91002021 	add	x1, x1, #0x8
    43002ec8:	8b343034 	add	x20, x1, w20, uxth #4
    43002ecc:	8b333021 	add	x1, x1, w19, uxth #4
    43002ed0:	52800040 	mov	w0, #0x2                   	// #2
    43002ed4:	39003698 	strb	w24, [x20, #13]
    43002ed8:	79001c33 	strh	w19, [x1, #14]
    43002edc:	b9000a82 	str	w2, [x20, #8]
    43002ee0:	39003280 	strb	w0, [x20, #12]
    43002ee4:	11000673 	add	w19, w19, #0x1
    43002ee8:	17ffffe6 	b	43002e80 <psci_setup+0x68>
    43002eec:	d37c3e80 	ubfiz	x0, x20, #4, #16
    43002ef0:	290d13e3 	stp	w3, w4, [sp, #104]
    43002ef4:	8b000341 	add	x1, x26, x0
    43002ef8:	b9000822 	str	w2, [x1, #8]
    43002efc:	92800001 	mov	x1, #0xffffffffffffffff    	// #-1
    43002f00:	f8206b41 	str	x1, [x26, x0]
    43002f04:	2a1403e0 	mov	w0, w20
    43002f08:	940009b5 	bl	430055dc <_cpu_data_by_index>
    43002f0c:	aa0003e1 	mov	x1, x0
    43002f10:	91006000 	add	x0, x0, #0x18
    43002f14:	52800022 	mov	w2, #0x1                   	// #1
    43002f18:	b9001822 	str	w2, [x1, #24]
    43002f1c:	52800061 	mov	w1, #0x3                   	// #3
    43002f20:	b9000401 	str	w1, [x0, #4]
    43002f24:	52800041 	mov	w1, #0x2                   	// #2
    43002f28:	39002001 	strb	w1, [x0, #8]
    43002f2c:	d2800181 	mov	x1, #0xc                   	// #12
    43002f30:	94000a80 	bl	43005930 <flush_dcache_range>
    43002f34:	52804801 	mov	w1, #0x240                 	// #576
    43002f38:	2a1403e0 	mov	w0, w20
    43002f3c:	52800022 	mov	w2, #0x1                   	// #1
    43002f40:	9ba15a81 	umaddl	x1, w20, w1, x22
    43002f44:	97fff8ae 	bl	430011fc <cm_set_context_by_index>
    43002f48:	294d13e3 	ldp	w3, w4, [sp, #104]
    43002f4c:	17ffffe6 	b	43002ee4 <psci_setup+0xcc>
    43002f50:	52800001 	mov	w1, #0x0                   	// #0
    43002f54:	17ffffd6 	b	43002eac <psci_setup+0x94>
    43002f58:	f0000020 	adrp	x0, 43009000 <__STACKS_START__+0xf80>
    43002f5c:	90000074 	adrp	x20, 4300e000 <psci_locks>
    43002f60:	912a6016 	add	x22, x0, #0xa98
    43002f64:	91002294 	add	x20, x20, #0x8
    43002f68:	b90a9813 	str	w19, [x0, #2712]
    43002f6c:	52800018 	mov	w24, #0x0                   	// #0
    43002f70:	52800017 	mov	w23, #0x0                   	// #0
    43002f74:	52800013 	mov	w19, #0x0                   	// #0
    43002f78:	b94002c0 	ldr	w0, [x22]
    43002f7c:	6b00027f 	cmp	w19, w0
    43002f80:	54000b03 	b.cc	430030e0 <psci_setup+0x2c8>  // b.lo, b.ul, b.last
    43002f84:	d53800b3 	mrs	x19, mpidr_el1
    43002f88:	94000a37 	bl	43005864 <plat_my_core_pos>
    43002f8c:	d37c7c00 	ubfiz	x0, x0, #4, #32
    43002f90:	92409e61 	and	x1, x19, #0xffffffffff
    43002f94:	f0000022 	adrp	x2, 43009000 <__STACKS_START__+0xf80>
    43002f98:	9260dc21 	and	x1, x1, #0xffffffff00ffffff
    43002f9c:	91188042 	add	x2, x2, #0x620
    43002fa0:	f0000033 	adrp	x19, 43009000 <__STACKS_START__+0xf80>
    43002fa4:	91186274 	add	x20, x19, #0x618
    43002fa8:	f8206841 	str	x1, [x2, x0]
    43002fac:	97fffbdf 	bl	43001f28 <psci_init_req_local_pwr_states>
    43002fb0:	52800040 	mov	w0, #0x2                   	// #2
    43002fb4:	97fffc1e 	bl	4300202c <psci_set_pwr_domains_to_run>
    43002fb8:	f94006a0 	ldr	x0, [x21, #8]
    43002fbc:	aa1403e1 	mov	x1, x20
    43002fc0:	9400053c 	bl	430044b0 <plat_setup_psci_ops>
    43002fc4:	aa1403e0 	mov	x0, x20
    43002fc8:	d2800101 	mov	x1, #0x8                   	// #8
    43002fcc:	94000a59 	bl	43005930 <flush_dcache_range>
    43002fd0:	f9430e61 	ldr	x1, [x19, #1560]
    43002fd4:	52808223 	mov	w3, #0x411                 	// #1041
    43002fd8:	f0000020 	adrp	x0, 43009000 <__STACKS_START__+0xf80>
    43002fdc:	f9400822 	ldr	x2, [x1, #16]
    43002fe0:	f100005f 	cmp	x2, #0x0
    43002fe4:	528082a2 	mov	w2, #0x415                 	// #1045
    43002fe8:	1a831042 	csel	w2, w2, w3, ne	// ne = any
    43002fec:	b90a9c02 	str	w2, [x0, #2716]
    43002ff0:	f9400423 	ldr	x3, [x1, #8]
    43002ff4:	b40000a3 	cbz	x3, 43003008 <psci_setup+0x1f0>
    43002ff8:	f9401423 	ldr	x3, [x1, #40]
    43002ffc:	b4000063 	cbz	x3, 43003008 <psci_setup+0x1f0>
    43003000:	321d0042 	orr	w2, w2, #0x8
    43003004:	b90a9c02 	str	w2, [x0, #2716]
    43003008:	f9401022 	ldr	x2, [x1, #32]
    4300300c:	b40001a2 	cbz	x2, 43003040 <psci_setup+0x228>
    43003010:	f9401c22 	ldr	x2, [x1, #56]
    43003014:	b4000162 	cbz	x2, 43003040 <psci_setup+0x228>
    43003018:	f9402c22 	ldr	x2, [x1, #88]
    4300301c:	b4000082 	cbz	x2, 4300302c <psci_setup+0x214>
    43003020:	b94a9c02 	ldr	w2, [x0, #2716]
    43003024:	321f0042 	orr	w2, w2, #0x2
    43003028:	b90a9c02 	str	w2, [x0, #2716]
    4300302c:	f9403422 	ldr	x2, [x1, #104]
    43003030:	b4000082 	cbz	x2, 43003040 <psci_setup+0x228>
    43003034:	b94a9c02 	ldr	w2, [x0, #2716]
    43003038:	32120042 	orr	w2, w2, #0x4000
    4300303c:	b90a9c02 	str	w2, [x0, #2716]
    43003040:	f9402422 	ldr	x2, [x1, #72]
    43003044:	b4000082 	cbz	x2, 43003054 <psci_setup+0x23c>
    43003048:	b94a9c02 	ldr	w2, [x0, #2716]
    4300304c:	32180042 	orr	w2, w2, #0x100
    43003050:	b90a9c02 	str	w2, [x0, #2716]
    43003054:	f9402822 	ldr	x2, [x1, #80]
    43003058:	b4000082 	cbz	x2, 43003068 <psci_setup+0x250>
    4300305c:	b94a9c02 	ldr	w2, [x0, #2716]
    43003060:	32170042 	orr	w2, w2, #0x200
    43003064:	b90a9c02 	str	w2, [x0, #2716]
    43003068:	f9404022 	ldr	x2, [x1, #128]
    4300306c:	b4000082 	cbz	x2, 4300307c <psci_setup+0x264>
    43003070:	b94a9c02 	ldr	w2, [x0, #2716]
    43003074:	32130042 	orr	w2, w2, #0x2000
    43003078:	b90a9c02 	str	w2, [x0, #2716]
    4300307c:	f9404822 	ldr	x2, [x1, #144]
    43003080:	b40000c2 	cbz	x2, 43003098 <psci_setup+0x280>
    43003084:	f9404c22 	ldr	x2, [x1, #152]
    43003088:	b4000082 	cbz	x2, 43003098 <psci_setup+0x280>
    4300308c:	b94a9c02 	ldr	w2, [x0, #2716]
    43003090:	320d0042 	orr	w2, w2, #0x80000
    43003094:	b90a9c02 	str	w2, [x0, #2716]
    43003098:	f9404422 	ldr	x2, [x1, #136]
    4300309c:	b4000082 	cbz	x2, 430030ac <psci_setup+0x294>
    430030a0:	b94a9c02 	ldr	w2, [x0, #2716]
    430030a4:	320c0042 	orr	w2, w2, #0x100000
    430030a8:	b90a9c02 	str	w2, [x0, #2716]
    430030ac:	f9405021 	ldr	x1, [x1, #160]
    430030b0:	b4000081 	cbz	x1, 430030c0 <psci_setup+0x2a8>
    430030b4:	b94a9c01 	ldr	w1, [x0, #2716]
    430030b8:	320e0021 	orr	w1, w1, #0x40000
    430030bc:	b90a9c01 	str	w1, [x0, #2716]
    430030c0:	a94153f3 	ldp	x19, x20, [sp, #16]
    430030c4:	52800000 	mov	w0, #0x0                   	// #0
    430030c8:	a9425bf5 	ldp	x21, x22, [sp, #32]
    430030cc:	a94363f7 	ldp	x23, x24, [sp, #48]
    430030d0:	a9446bf9 	ldp	x25, x26, [sp, #64]
    430030d4:	a94573fb 	ldp	x27, x28, [sp, #80]
    430030d8:	a8c87bfd 	ldp	x29, x30, [sp], #128
    430030dc:	d65f03c0 	ret
    430030e0:	9101e3e2 	add	x2, sp, #0x78
    430030e4:	2a1303e0 	mov	w0, w19
    430030e8:	52800041 	mov	w1, #0x2                   	// #2
    430030ec:	97fffbc0 	bl	43001fec <psci_get_parent_pwr_domain_nodes>
    430030f0:	b9407fe2 	ldr	w2, [sp, #124]
    430030f4:	6b18005f 	cmp	w2, w24
    430030f8:	2a0203e0 	mov	w0, w2
    430030fc:	54000060 	b.eq	43003108 <psci_setup+0x2f0>  // b.none
    43003100:	d37cec01 	lsl	x1, x0, #4
    43003104:	b8216a93 	str	w19, [x20, x1]
    43003108:	8b001280 	add	x0, x20, x0, lsl #4
    4300310c:	b9400401 	ldr	w1, [x0, #4]
    43003110:	11000421 	add	w1, w1, #0x1
    43003114:	b9000401 	str	w1, [x0, #4]
    43003118:	b9407be1 	ldr	w1, [sp, #120]
    4300311c:	6b0102ff 	cmp	w23, w1
    43003120:	2a0103e0 	mov	w0, w1
    43003124:	54000060 	b.eq	43003130 <psci_setup+0x318>  // b.none
    43003128:	d37cec03 	lsl	x3, x0, #4
    4300312c:	b8236a93 	str	w19, [x20, x3]
    43003130:	8b001280 	add	x0, x20, x0, lsl #4
    43003134:	11000673 	add	w19, w19, #0x1
    43003138:	2a0203f8 	mov	w24, w2
    4300313c:	2a0103f7 	mov	w23, w1
    43003140:	b9400403 	ldr	w3, [x0, #4]
    43003144:	11000463 	add	w3, w3, #0x1
    43003148:	b9000403 	str	w3, [x0, #4]
    4300314c:	17ffff8b 	b	43002f78 <psci_setup+0x160>

0000000043003150 <psci_cpu_suspend_start>:
    43003150:	a9b97bfd 	stp	x29, x30, [sp, #-112]!
    43003154:	910003fd 	mov	x29, sp
    43003158:	a90153f3 	stp	x19, x20, [sp, #16]
    4300315c:	2a0103f3 	mov	w19, w1
    43003160:	aa0203f4 	mov	x20, x2
    43003164:	a9025bf5 	stp	x21, x22, [sp, #32]
    43003168:	2a0303f6 	mov	w22, w3
    4300316c:	a90363f7 	stp	x23, x24, [sp, #48]
    43003170:	a9046bf9 	stp	x25, x26, [sp, #64]
    43003174:	aa0003f9 	mov	x25, x0
    43003178:	940009bb 	bl	43005864 <plat_my_core_pos>
    4300317c:	910183e2 	add	x2, sp, #0x60
    43003180:	2a0003f8 	mov	w24, w0
    43003184:	2a1303e1 	mov	w1, w19
    43003188:	f90033ff 	str	xzr, [sp, #96]
    4300318c:	97fffb98 	bl	43001fec <psci_get_parent_pwr_domain_nodes>
    43003190:	910183e1 	add	x1, sp, #0x60
    43003194:	2a1303e0 	mov	w0, w19
    43003198:	97fffc3e 	bl	43002290 <psci_acquire_pwr_domain_locks>
    4300319c:	d538c100 	mrs	x0, isr_el1
    430031a0:	b5000740 	cbnz	x0, 43003288 <psci_cpu_suspend_start+0x138>
    430031a4:	aa1403e1 	mov	x1, x20
    430031a8:	2a1303e0 	mov	w0, w19
    430031ac:	97fffbc1 	bl	430020b0 <psci_do_state_coordination>
    430031b0:	34000436 	cbz	w22, 43003234 <psci_cpu_suspend_start+0xe4>
    430031b4:	aa1403e0 	mov	x0, x20
    430031b8:	90000035 	adrp	x21, 43007000 <gpt_soc_data+0x1ba>
    430031bc:	9000003a 	adrp	x26, 43007000 <gpt_soc_data+0x1ba>
    430031c0:	97fffc18 	bl	43002220 <psci_find_max_off_lvl>
    430031c4:	910a62b5 	add	x21, x21, #0x298
    430031c8:	2a0003f7 	mov	w23, w0
    430031cc:	910a635a 	add	x26, x26, #0x298
    430031d0:	eb1a02bf 	cmp	x21, x26
    430031d4:	54000523 	b.cc	43003278 <psci_cpu_suspend_start+0x128>  // b.lo, b.ul, b.last
    430031d8:	d53ed040 	mrs	x0, tpidr_el3
    430031dc:	b9001c13 	str	w19, [x0, #28]
    430031e0:	d53ed040 	mrs	x0, tpidr_el3
    430031e4:	d2800081 	mov	x1, #0x4                   	// #4
    430031e8:	91007000 	add	x0, x0, #0x1c
    430031ec:	940009d1 	bl	43005930 <flush_dcache_range>
    430031f0:	d0000020 	adrp	x0, 43009000 <__STACKS_START__+0xf80>
    430031f4:	f9432000 	ldr	x0, [x0, #1600]
    430031f8:	b40000a0 	cbz	x0, 4300320c <psci_cpu_suspend_start+0xbc>
    430031fc:	f9400801 	ldr	x1, [x0, #16]
    43003200:	b4000061 	cbz	x1, 4300320c <psci_cpu_suspend_start+0xbc>
    43003204:	2a1703e0 	mov	w0, w23
    43003208:	d63f0020 	blr	x1
    4300320c:	d0000020 	adrp	x0, 43009000 <__STACKS_START__+0xf80>
    43003210:	f9430c00 	ldr	x0, [x0, #1560]
    43003214:	f9400c01 	ldr	x1, [x0, #24]
    43003218:	b4000061 	cbz	x1, 43003224 <psci_cpu_suspend_start+0xd4>
    4300321c:	aa1403e0 	mov	x0, x20
    43003220:	d63f0020 	blr	x1
    43003224:	aa1903e0 	mov	x0, x25
    43003228:	97fffa48 	bl	43001b48 <cm_init_my_context>
    4300322c:	2a1703e0 	mov	w0, w23
    43003230:	97fffcc5 	bl	43002544 <psci_do_pwrdown_sequence>
    43003234:	d0000020 	adrp	x0, 43009000 <__STACKS_START__+0xf80>
    43003238:	52800015 	mov	w21, #0x0                   	// #0
    4300323c:	f9430c00 	ldr	x0, [x0, #1560]
    43003240:	f9401001 	ldr	x1, [x0, #32]
    43003244:	aa1403e0 	mov	x0, x20
    43003248:	d63f0020 	blr	x1
    4300324c:	910183e1 	add	x1, sp, #0x60
    43003250:	2a1303e0 	mov	w0, w19
    43003254:	97fffc2a 	bl	430022fc <psci_release_pwr_domain_locks>
    43003258:	35000495 	cbnz	w21, 430032e8 <psci_cpu_suspend_start+0x198>
    4300325c:	d0000035 	adrp	x21, 43009000 <__STACKS_START__+0xf80>
    43003260:	340001b6 	cbz	w22, 43003294 <psci_cpu_suspend_start+0x144>
    43003264:	f9430ea0 	ldr	x0, [x21, #1560]
    43003268:	f9402001 	ldr	x1, [x0, #64]
    4300326c:	b4000121 	cbz	x1, 43003290 <psci_cpu_suspend_start+0x140>
    43003270:	aa1403e0 	mov	x0, x20
    43003274:	d63f0020 	blr	x1
    43003278:	f84086a1 	ldr	x1, [x21], #8
    4300327c:	d2800000 	mov	x0, #0x0                   	// #0
    43003280:	d63f0020 	blr	x1
    43003284:	17ffffd3 	b	430031d0 <psci_cpu_suspend_start+0x80>
    43003288:	52800035 	mov	w21, #0x1                   	// #1
    4300328c:	17fffff0 	b	4300324c <psci_cpu_suspend_start+0xfc>
    43003290:	940008ff 	bl	4300568c <psci_power_down_wfi>
    43003294:	d503207f 	wfi
    43003298:	9101a3e2 	add	x2, sp, #0x68
    4300329c:	2a1303e1 	mov	w1, w19
    430032a0:	2a1803e0 	mov	w0, w24
    430032a4:	f90037ff 	str	xzr, [sp, #104]
    430032a8:	97fffb51 	bl	43001fec <psci_get_parent_pwr_domain_nodes>
    430032ac:	9101a3e1 	add	x1, sp, #0x68
    430032b0:	2a1303e0 	mov	w0, w19
    430032b4:	97fffbf7 	bl	43002290 <psci_acquire_pwr_domain_locks>
    430032b8:	910163e1 	add	x1, sp, #0x58
    430032bc:	2a1303e0 	mov	w0, w19
    430032c0:	97fffb29 	bl	43001f64 <psci_get_target_local_pwr_states>
    430032c4:	f9430ea0 	ldr	x0, [x21, #1560]
    430032c8:	f9401c01 	ldr	x1, [x0, #56]
    430032cc:	910163e0 	add	x0, sp, #0x58
    430032d0:	d63f0020 	blr	x1
    430032d4:	2a1303e0 	mov	w0, w19
    430032d8:	97fffb55 	bl	4300202c <psci_set_pwr_domains_to_run>
    430032dc:	9101a3e1 	add	x1, sp, #0x68
    430032e0:	2a1303e0 	mov	w0, w19
    430032e4:	97fffc06 	bl	430022fc <psci_release_pwr_domain_locks>
    430032e8:	a94153f3 	ldp	x19, x20, [sp, #16]
    430032ec:	a9425bf5 	ldp	x21, x22, [sp, #32]
    430032f0:	a94363f7 	ldp	x23, x24, [sp, #48]
    430032f4:	a9446bf9 	ldp	x25, x26, [sp, #64]
    430032f8:	a8c77bfd 	ldp	x29, x30, [sp], #112
    430032fc:	d65f03c0 	ret

0000000043003300 <psci_cpu_suspend_finish>:
    43003300:	a9be7bfd 	stp	x29, x30, [sp, #-32]!
    43003304:	d0000020 	adrp	x0, 43009000 <__STACKS_START__+0xf80>
    43003308:	910003fd 	mov	x29, sp
    4300330c:	f9430c00 	ldr	x0, [x0, #1560]
    43003310:	a90153f3 	stp	x19, x20, [sp, #16]
    43003314:	aa0103f3 	mov	x19, x1
    43003318:	f9401c01 	ldr	x1, [x0, #56]
    4300331c:	aa1303e0 	mov	x0, x19
    43003320:	d63f0020 	blr	x1
    43003324:	940008cd 	bl	43005658 <psci_do_pwrup_cache_maintenance>
    43003328:	940001f3 	bl	43003af4 <plat_get_syscnt_freq2>
    4300332c:	2a0003e0 	mov	w0, w0
    43003330:	d51be000 	msr	cntfrq_el0, x0
    43003334:	d0000034 	adrp	x20, 43009000 <__STACKS_START__+0xf80>
    43003338:	f9432280 	ldr	x0, [x20, #1600]
    4300333c:	b4000120 	cbz	x0, 43003360 <psci_cpu_suspend_finish+0x60>
    43003340:	f9401000 	ldr	x0, [x0, #32]
    43003344:	b40000e0 	cbz	x0, 43003360 <psci_cpu_suspend_finish+0x60>
    43003348:	aa1303e0 	mov	x0, x19
    4300334c:	97fffbb5 	bl	43002220 <psci_find_max_off_lvl>
    43003350:	f9432281 	ldr	x1, [x20, #1600]
    43003354:	2a0003e0 	mov	w0, w0
    43003358:	f9401021 	ldr	x1, [x1, #32]
    4300335c:	d63f0020 	blr	x1
    43003360:	d53ed040 	mrs	x0, tpidr_el3
    43003364:	90000033 	adrp	x19, 43007000 <gpt_soc_data+0x1ba>
    43003368:	90000034 	adrp	x20, 43007000 <gpt_soc_data+0x1ba>
    4300336c:	910a6273 	add	x19, x19, #0x298
    43003370:	910a6294 	add	x20, x20, #0x298
    43003374:	52800061 	mov	w1, #0x3                   	// #3
    43003378:	b9001c01 	str	w1, [x0, #28]
    4300337c:	eb14027f 	cmp	x19, x20
    43003380:	54000083 	b.cc	43003390 <psci_cpu_suspend_finish+0x90>  // b.lo, b.ul, b.last
    43003384:	a94153f3 	ldp	x19, x20, [sp, #16]
    43003388:	a8c27bfd 	ldp	x29, x30, [sp], #32
    4300338c:	17fffa54 	b	43001cdc <cm_prepare_el3_exit_ns>
    43003390:	f8408661 	ldr	x1, [x19], #8
    43003394:	d2800000 	mov	x0, #0x0                   	// #0
    43003398:	d63f0020 	blr	x1
    4300339c:	17fffff8 	b	4300337c <psci_cpu_suspend_finish+0x7c>

00000000430033a0 <psci_system_off>:
    430033a0:	a9bf7bfd 	stp	x29, x30, [sp, #-16]!
    430033a4:	910003fd 	mov	x29, sp
    430033a8:	97fffc66 	bl	43002540 <psci_print_power_domain_map>
    430033ac:	d0000020 	adrp	x0, 43009000 <__STACKS_START__+0xf80>
    430033b0:	f9432000 	ldr	x0, [x0, #1600]
    430033b4:	b4000080 	cbz	x0, 430033c4 <psci_system_off+0x24>
    430033b8:	f9401c00 	ldr	x0, [x0, #56]
    430033bc:	b4000040 	cbz	x0, 430033c4 <psci_system_off+0x24>
    430033c0:	d63f0000 	blr	x0
    430033c4:	940005af 	bl	43004a80 <console_flush>
    430033c8:	d0000020 	adrp	x0, 43009000 <__STACKS_START__+0xf80>
    430033cc:	f9430c00 	ldr	x0, [x0, #1560]
    430033d0:	f9402400 	ldr	x0, [x0, #72]
    430033d4:	d63f0000 	blr	x0

00000000430033d8 <psci_system_reset>:
    430033d8:	a9bf7bfd 	stp	x29, x30, [sp, #-16]!
    430033dc:	910003fd 	mov	x29, sp
    430033e0:	97fffc58 	bl	43002540 <psci_print_power_domain_map>
    430033e4:	d0000020 	adrp	x0, 43009000 <__STACKS_START__+0xf80>
    430033e8:	f9432000 	ldr	x0, [x0, #1600]
    430033ec:	b4000080 	cbz	x0, 430033fc <psci_system_reset+0x24>
    430033f0:	f9402000 	ldr	x0, [x0, #64]
    430033f4:	b4000040 	cbz	x0, 430033fc <psci_system_reset+0x24>
    430033f8:	d63f0000 	blr	x0
    430033fc:	940005a1 	bl	43004a80 <console_flush>
    43003400:	d0000020 	adrp	x0, 43009000 <__STACKS_START__+0xf80>
    43003404:	f9430c00 	ldr	x0, [x0, #1560]
    43003408:	f9402800 	ldr	x0, [x0, #80]
    4300340c:	d63f0000 	blr	x0

0000000043003410 <psci_system_reset2>:
    43003410:	a9bd7bfd 	stp	x29, x30, [sp, #-48]!
    43003414:	910003fd 	mov	x29, sp
    43003418:	a90153f3 	stp	x19, x20, [sp, #16]
    4300341c:	2a0003f3 	mov	w19, w0
    43003420:	aa0103f4 	mov	x20, x1
    43003424:	f90013f5 	str	x21, [sp, #32]
    43003428:	531f7e75 	lsr	w21, w19, #31
    4300342c:	97fffc45 	bl	43002540 <psci_print_power_domain_map>
    43003430:	36f80233 	tbz	w19, #31, 43003474 <psci_system_reset2+0x64>
    43003434:	d0000020 	adrp	x0, 43009000 <__STACKS_START__+0xf80>
    43003438:	f9432000 	ldr	x0, [x0, #1600]
    4300343c:	b5000300 	cbnz	x0, 4300349c <psci_system_reset2+0x8c>
    43003440:	94000590 	bl	43004a80 <console_flush>
    43003444:	d0000020 	adrp	x0, 43009000 <__STACKS_START__+0xf80>
    43003448:	aa1403e2 	mov	x2, x20
    4300344c:	2a1303e1 	mov	w1, w19
    43003450:	f9430c00 	ldr	x0, [x0, #1560]
    43003454:	f9405003 	ldr	x3, [x0, #160]
    43003458:	2a1503e0 	mov	w0, w21
    4300345c:	d63f0060 	blr	x3
    43003460:	93407c00 	sxtw	x0, w0
    43003464:	a94153f3 	ldp	x19, x20, [sp, #16]
    43003468:	f94013f5 	ldr	x21, [sp, #32]
    4300346c:	a8c37bfd 	ldp	x29, x30, [sp], #48
    43003470:	d65f03c0 	ret
    43003474:	350001d3 	cbnz	w19, 430034ac <psci_system_reset2+0x9c>
    43003478:	d0000020 	adrp	x0, 43009000 <__STACKS_START__+0xf80>
    4300347c:	f9430c00 	ldr	x0, [x0, #1560]
    43003480:	f9404c01 	ldr	x1, [x0, #152]
    43003484:	b4fffd81 	cbz	x1, 43003434 <psci_system_reset2+0x24>
    43003488:	52800000 	mov	w0, #0x0                   	// #0
    4300348c:	d63f0020 	blr	x1
    43003490:	36fffd20 	tbz	w0, #31, 43003434 <psci_system_reset2+0x24>
    43003494:	92800000 	mov	x0, #0xffffffffffffffff    	// #-1
    43003498:	17fffff3 	b	43003464 <psci_system_reset2+0x54>
    4300349c:	f9402000 	ldr	x0, [x0, #64]
    430034a0:	b4fffd00 	cbz	x0, 43003440 <psci_system_reset2+0x30>
    430034a4:	d63f0000 	blr	x0
    430034a8:	17ffffe6 	b	43003440 <psci_system_reset2+0x30>
    430034ac:	92800020 	mov	x0, #0xfffffffffffffffe    	// #-2
    430034b0:	17ffffed 	b	43003464 <psci_system_reset2+0x54>

00000000430034b4 <plat_ic_get_pending_interrupt_type>:
    430034b4:	a9bf7bfd 	stp	x29, x30, [sp, #-16]!
    430034b8:	910003fd 	mov	x29, sp
    430034bc:	97fff90c 	bl	430018ec <gicv3_get_pending_interrupt_type>
    430034c0:	510ff000 	sub	w0, w0, #0x3fc
    430034c4:	71000c1f 	cmp	w0, #0x3
    430034c8:	540000c8 	b.hi	430034e0 <plat_ic_get_pending_interrupt_type+0x2c>  // b.pmore
    430034cc:	f0000001 	adrp	x1, 43006000 <efuse_write+0x268>
    430034d0:	91390821 	add	x1, x1, #0xe42
    430034d4:	38604820 	ldrb	w0, [x1, w0, uxtw]
    430034d8:	a8c17bfd 	ldp	x29, x30, [sp], #16
    430034dc:	d65f03c0 	ret
    430034e0:	52800020 	mov	w0, #0x1                   	// #1
    430034e4:	17fffffd 	b	430034d8 <plat_ic_get_pending_interrupt_type+0x24>

00000000430034e8 <mtk_efuse_get_len>:
    430034e8:	b4000221 	cbz	x1, 4300352c <mtk_efuse_get_len+0x44>
    430034ec:	7100581f 	cmp	w0, #0x16
    430034f0:	54000228 	b.hi	43003534 <mtk_efuse_get_len+0x4c>  // b.pmore
    430034f4:	2a0003e0 	mov	w0, w0
    430034f8:	d0000022 	adrp	x2, 43009000 <__STACKS_START__+0xf80>
    430034fc:	912a8042 	add	x2, x2, #0xaa0
    43003500:	d2800183 	mov	x3, #0xc                   	// #12
    43003504:	9b030800 	madd	x0, x0, x3, x2
    43003508:	39402002 	ldrb	w2, [x0, #8]
    4300350c:	37000062 	tbnz	w2, #0, 43003518 <mtk_efuse_get_len+0x30>
    43003510:	52800060 	mov	w0, #0x3                   	// #3
    43003514:	d65f03c0 	ret
    43003518:	b9400400 	ldr	w0, [x0, #4]
    4300351c:	b9000020 	str	w0, [x1]
    43003520:	34ffff80 	cbz	w0, 43003510 <mtk_efuse_get_len+0x28>
    43003524:	52800000 	mov	w0, #0x0                   	// #0
    43003528:	17fffffb 	b	43003514 <mtk_efuse_get_len+0x2c>
    4300352c:	52800020 	mov	w0, #0x1                   	// #1
    43003530:	17fffff9 	b	43003514 <mtk_efuse_get_len+0x2c>
    43003534:	52800040 	mov	w0, #0x2                   	// #2
    43003538:	17fffff7 	b	43003514 <mtk_efuse_get_len+0x2c>

000000004300353c <mtk_efuse_send_data>:
    4300353c:	7100605f 	cmp	w2, #0x18
    43003540:	7a489862 	ccmp	w3, #0x8, #0x2, ls	// ls = plast
    43003544:	54000168 	b.hi	43003570 <mtk_efuse_send_data+0x34>  // b.pmore
    43003548:	8b224002 	add	x2, x0, w2, uxtw
    4300354c:	d2800004 	mov	x4, #0x0                   	// #0
    43003550:	6b04007f 	cmp	w3, w4
    43003554:	54000068 	b.hi	43003560 <mtk_efuse_send_data+0x24>  // b.pmore
    43003558:	52800000 	mov	w0, #0x0                   	// #0
    4300355c:	d65f03c0 	ret
    43003560:	38646820 	ldrb	w0, [x1, x4]
    43003564:	38246840 	strb	w0, [x2, x4]
    43003568:	91000484 	add	x4, x4, #0x1
    4300356c:	17fffff9 	b	43003550 <mtk_efuse_send_data+0x14>
    43003570:	52800020 	mov	w0, #0x1                   	// #1
    43003574:	17fffffa 	b	4300355c <mtk_efuse_send_data+0x20>

0000000043003578 <mtk_efuse_get_data>:
    43003578:	7100605f 	cmp	w2, #0x18
    4300357c:	7a489862 	ccmp	w3, #0x8, #0x2, ls	// ls = plast
    43003580:	54000168 	b.hi	430035ac <mtk_efuse_get_data+0x34>  // b.pmore
    43003584:	8b224022 	add	x2, x1, w2, uxtw
    43003588:	d2800004 	mov	x4, #0x0                   	// #0
    4300358c:	6b04007f 	cmp	w3, w4
    43003590:	54000068 	b.hi	4300359c <mtk_efuse_get_data+0x24>  // b.pmore
    43003594:	52800000 	mov	w0, #0x0                   	// #0
    43003598:	d65f03c0 	ret
    4300359c:	38646841 	ldrb	w1, [x2, x4]
    430035a0:	38246801 	strb	w1, [x0, x4]
    430035a4:	91000484 	add	x4, x4, #0x1
    430035a8:	17fffff9 	b	4300358c <mtk_efuse_get_data+0x14>
    430035ac:	52800020 	mov	w0, #0x1                   	// #1
    430035b0:	17fffffa 	b	43003598 <mtk_efuse_get_data+0x20>

00000000430035b4 <mtk_efuse_read>:
    430035b4:	a9bc7bfd 	stp	x29, x30, [sp, #-64]!
    430035b8:	910003fd 	mov	x29, sp
    430035bc:	a90153f3 	stp	x19, x20, [sp, #16]
    430035c0:	f90013f5 	str	x21, [sp, #32]
    430035c4:	b9003fff 	str	wzr, [sp, #60]
    430035c8:	b40003a1 	cbz	x1, 4300363c <mtk_efuse_read+0x88>
    430035cc:	aa0103f4 	mov	x20, x1
    430035d0:	2a0003f3 	mov	w19, w0
    430035d4:	2a0203e4 	mov	w4, w2
    430035d8:	9100f3e1 	add	x1, sp, #0x3c
    430035dc:	97ffffc3 	bl	430034e8 <mtk_efuse_get_len>
    430035e0:	35000260 	cbnz	w0, 4300362c <mtk_efuse_read+0x78>
    430035e4:	b9403ff5 	ldr	w21, [sp, #60]
    430035e8:	6b0402bf 	cmp	w21, w4
    430035ec:	540002c8 	b.hi	43003644 <mtk_efuse_read+0x90>  // b.pmore
    430035f0:	2a0403e2 	mov	w2, w4
    430035f4:	52800001 	mov	w1, #0x0                   	// #0
    430035f8:	aa1403e0 	mov	x0, x20
    430035fc:	94000b11 	bl	43006240 <memset>
    43003600:	d2800180 	mov	x0, #0xc                   	// #12
    43003604:	2a1503e2 	mov	w2, w21
    43003608:	aa1403e1 	mov	x1, x20
    4300360c:	9b007e73 	mul	x19, x19, x0
    43003610:	d0000020 	adrp	x0, 43009000 <__STACKS_START__+0xf80>
    43003614:	912a8000 	add	x0, x0, #0xaa0
    43003618:	b8736800 	ldr	w0, [x0, x19]
    4300361c:	9400099d 	bl	43005c90 <efuse_read>
    43003620:	7100001f 	cmp	w0, #0x0
    43003624:	528000a0 	mov	w0, #0x5                   	// #5
    43003628:	1a8003e0 	csel	w0, wzr, w0, eq	// eq = none
    4300362c:	a94153f3 	ldp	x19, x20, [sp, #16]
    43003630:	f94013f5 	ldr	x21, [sp, #32]
    43003634:	a8c47bfd 	ldp	x29, x30, [sp], #64
    43003638:	d65f03c0 	ret
    4300363c:	52800020 	mov	w0, #0x1                   	// #1
    43003640:	17fffffb 	b	4300362c <mtk_efuse_read+0x78>
    43003644:	52800080 	mov	w0, #0x4                   	// #4
    43003648:	17fffff9 	b	4300362c <mtk_efuse_read+0x78>

000000004300364c <mtk_efuse_write>:
    4300364c:	a9be7bfd 	stp	x29, x30, [sp, #-32]!
    43003650:	910003fd 	mov	x29, sp
    43003654:	b9001fff 	str	wzr, [sp, #28]
    43003658:	b40002c1 	cbz	x1, 430036b0 <mtk_efuse_write+0x64>
    4300365c:	aa0103e5 	mov	x5, x1
    43003660:	2a0003e4 	mov	w4, w0
    43003664:	2a0203e6 	mov	w6, w2
    43003668:	910073e1 	add	x1, sp, #0x1c
    4300366c:	97ffff9f 	bl	430034e8 <mtk_efuse_get_len>
    43003670:	350001c0 	cbnz	w0, 430036a8 <mtk_efuse_write+0x5c>
    43003674:	b9401fe2 	ldr	w2, [sp, #28]
    43003678:	6b06005f 	cmp	w2, w6
    4300367c:	540001e8 	b.hi	430036b8 <mtk_efuse_write+0x6c>  // b.pmore
    43003680:	d2800180 	mov	x0, #0xc                   	// #12
    43003684:	aa0503e1 	mov	x1, x5
    43003688:	9b007c84 	mul	x4, x4, x0
    4300368c:	d0000020 	adrp	x0, 43009000 <__STACKS_START__+0xf80>
    43003690:	912a8000 	add	x0, x0, #0xaa0
    43003694:	b8646800 	ldr	w0, [x0, x4]
    43003698:	940009c0 	bl	43005d98 <efuse_write>
    4300369c:	7100001f 	cmp	w0, #0x0
    430036a0:	528000c0 	mov	w0, #0x6                   	// #6
    430036a4:	1a8003e0 	csel	w0, wzr, w0, eq	// eq = none
    430036a8:	a8c27bfd 	ldp	x29, x30, [sp], #32
    430036ac:	d65f03c0 	ret
    430036b0:	52800020 	mov	w0, #0x1                   	// #1
    430036b4:	17fffffd 	b	430036a8 <mtk_efuse_write+0x5c>
    430036b8:	52800080 	mov	w0, #0x4                   	// #4
    430036bc:	17fffffb 	b	430036a8 <mtk_efuse_write+0x5c>

00000000430036c0 <mtk_efuse_disable>:
    430036c0:	7100581f 	cmp	w0, #0x16
    430036c4:	54000128 	b.hi	430036e8 <mtk_efuse_disable+0x28>  // b.pmore
    430036c8:	2a0003e0 	mov	w0, w0
    430036cc:	d0000021 	adrp	x1, 43009000 <__STACKS_START__+0xf80>
    430036d0:	912a8021 	add	x1, x1, #0xaa0
    430036d4:	d2800182 	mov	x2, #0xc                   	// #12
    430036d8:	9b020400 	madd	x0, x0, x2, x1
    430036dc:	3900201f 	strb	wzr, [x0, #8]
    430036e0:	52800000 	mov	w0, #0x0                   	// #0
    430036e4:	d65f03c0 	ret
    430036e8:	52800040 	mov	w0, #0x2                   	// #2
    430036ec:	17fffffe 	b	430036e4 <mtk_efuse_disable+0x24>

00000000430036f0 <mtk_gpt_stop>:
    430036f0:	f9400401 	ldr	x1, [x0, #8]
    430036f4:	b9400020 	ldr	w0, [x1]
    430036f8:	121f7800 	and	w0, w0, #0xfffffffe
    430036fc:	b9000020 	str	w0, [x1]
    43003700:	d65f03c0 	ret

0000000043003704 <mtk_gpt_start>:
    43003704:	f9400402 	ldr	x2, [x0, #8]
    43003708:	f0000003 	adrp	x3, 43006000 <efuse_write+0x268>
    4300370c:	91391863 	add	x3, x3, #0xe46
    43003710:	b900005f 	str	wzr, [x2]
    43003714:	b9400001 	ldr	w1, [x0]
    43003718:	8b010861 	add	x1, x3, x1, lsl #2
    4300371c:	39400424 	ldrb	w4, [x1, #1]
    43003720:	39400c26 	ldrb	w6, [x1, #3]
    43003724:	d2800021 	mov	x1, #0x1                   	// #1
    43003728:	b8626885 	ldr	w5, [x4, x2]
    4300372c:	9ac62021 	lsl	x1, x1, x6
    43003730:	32000c21 	orr	w1, w1, #0xf
    43003734:	0a2100a1 	bic	w1, w5, w1
    43003738:	b8226881 	str	w1, [x4, x2]
    4300373c:	b9400000 	ldr	w0, [x0]
    43003740:	b9400041 	ldr	w1, [x2]
    43003744:	d37ef400 	lsl	x0, x0, #2
    43003748:	38606863 	ldrb	w3, [x3, x0]
    4300374c:	52800060 	mov	w0, #0x3                   	// #3
    43003750:	1ac32000 	lsl	w0, w0, w3
    43003754:	32000000 	orr	w0, w0, #0x1
    43003758:	2a010000 	orr	w0, w0, w1
    4300375c:	b9000040 	str	w0, [x2]
    43003760:	d65f03c0 	ret

0000000043003764 <mtk_gpt_reset>:
    43003764:	f9400402 	ldr	x2, [x0, #8]
    43003768:	b9400041 	ldr	w1, [x2]
    4300376c:	321f0021 	orr	w1, w1, #0x2
    43003770:	b9000041 	str	w1, [x2]
    43003774:	2903fc1f 	stp	wzr, wzr, [x0, #28]
    43003778:	d65f03c0 	ret

000000004300377c <mtk_gpt_init>:
    4300377c:	a9bf7bfd 	stp	x29, x30, [sp, #-16]!
    43003780:	aa0003e2 	mov	x2, x0
    43003784:	52884800 	mov	w0, #0x4240                	// #16960
    43003788:	72a001e0 	movk	w0, #0xf, lsl #16
    4300378c:	910003fd 	mov	x29, sp
    43003790:	52800141 	mov	w1, #0xa                   	// #10
    43003794:	b9001440 	str	w0, [x2, #20]
    43003798:	b9401040 	ldr	w0, [x2, #16]
    4300379c:	b9401443 	ldr	w3, [x2, #20]
    430037a0:	1ac10864 	udiv	w4, w3, w1
    430037a4:	1b018c83 	msub	w3, w4, w1, w3
    430037a8:	35000083 	cbnz	w3, 430037b8 <mtk_gpt_init+0x3c>
    430037ac:	1ac10803 	udiv	w3, w0, w1
    430037b0:	1b018065 	msub	w5, w3, w1, w0
    430037b4:	34000105 	cbz	w5, 430037d4 <mtk_gpt_init+0x58>
    430037b8:	b9001840 	str	w0, [x2, #24]
    430037bc:	aa0203e0 	mov	x0, x2
    430037c0:	97ffffcc 	bl	430036f0 <mtk_gpt_stop>
    430037c4:	aa0203e0 	mov	x0, x2
    430037c8:	97ffffe7 	bl	43003764 <mtk_gpt_reset>
    430037cc:	a8c17bfd 	ldp	x29, x30, [sp], #16
    430037d0:	17ffffcd 	b	43003704 <mtk_gpt_start>
    430037d4:	2a0303e0 	mov	w0, w3
    430037d8:	b9001444 	str	w4, [x2, #20]
    430037dc:	17fffff0 	b	4300379c <mtk_gpt_init+0x20>

00000000430037e0 <mtk_gpt_get_counter>:
    430037e0:	39401002 	ldrb	w2, [x0, #4]
    430037e4:	f9400401 	ldr	x1, [x0, #8]
    430037e8:	91002024 	add	x4, x1, #0x8
    430037ec:	36000182 	tbz	w2, #0, 4300381c <mtk_gpt_get_counter+0x3c>
    430037f0:	91004021 	add	x1, x1, #0x10
    430037f4:	b9400023 	ldr	w3, [x1]
    430037f8:	b9400082 	ldr	w2, [x4]
    430037fc:	b9001c02 	str	w2, [x0, #28]
    43003800:	b9400022 	ldr	w2, [x1]
    43003804:	b9002002 	str	w2, [x0, #32]
    43003808:	6b03005f 	cmp	w2, w3
    4300380c:	54ffff41 	b.ne	430037f4 <mtk_gpt_get_counter+0x14>  // b.any
    43003810:	29438001 	ldp	w1, w0, [x0, #28]
    43003814:	aa008020 	orr	x0, x1, x0, lsl #32
    43003818:	d65f03c0 	ret
    4300381c:	b9400822 	ldr	w2, [x1, #8]
    43003820:	b9401c01 	ldr	w1, [x0, #28]
    43003824:	6b02003f 	cmp	w1, w2
    43003828:	54000089 	b.ls	43003838 <mtk_gpt_get_counter+0x58>  // b.plast
    4300382c:	b9402001 	ldr	w1, [x0, #32]
    43003830:	11000421 	add	w1, w1, #0x1
    43003834:	b9002001 	str	w1, [x0, #32]
    43003838:	b9001c02 	str	w2, [x0, #28]
    4300383c:	17fffff5 	b	43003810 <mtk_gpt_get_counter+0x30>

0000000043003840 <clean_top_32b_of_param>:
    43003840:	37f00120 	tbnz	w0, #30, 43003864 <clean_top_32b_of_param+0x24>
    43003844:	b9400020 	ldr	w0, [x1]
    43003848:	f9000020 	str	x0, [x1]
    4300384c:	b9400040 	ldr	w0, [x2]
    43003850:	f9000040 	str	x0, [x2]
    43003854:	b9400060 	ldr	w0, [x3]
    43003858:	f9000060 	str	x0, [x3]
    4300385c:	b9400080 	ldr	w0, [x4]
    43003860:	f9000080 	str	x0, [x4]
    43003864:	d65f03c0 	ret

0000000043003868 <get_kernel_info_pc>:
    43003868:	d0000020 	adrp	x0, 43009000 <__STACKS_START__+0xf80>
    4300386c:	f9432400 	ldr	x0, [x0, #1608]
    43003870:	d65f03c0 	ret

0000000043003874 <get_kernel_info_r0>:
    43003874:	d0000020 	adrp	x0, 43009000 <__STACKS_START__+0xf80>
    43003878:	f9432800 	ldr	x0, [x0, #1616]
    4300387c:	d65f03c0 	ret

0000000043003880 <get_kernel_info_r1>:
    43003880:	d0000020 	adrp	x0, 43009000 <__STACKS_START__+0xf80>
    43003884:	f9432c00 	ldr	x0, [x0, #1624]
    43003888:	d65f03c0 	ret

000000004300388c <get_kernel_info_r2>:
    4300388c:	d0000020 	adrp	x0, 43009000 <__STACKS_START__+0xf80>
    43003890:	f9433000 	ldr	x0, [x0, #1632]
    43003894:	d65f03c0 	ret

0000000043003898 <boot_to_kernel>:
    43003898:	a9bd7bfd 	stp	x29, x30, [sp, #-48]!
    4300389c:	910003fd 	mov	x29, sp
    430038a0:	a9025bf5 	stp	x21, x22, [sp, #32]
    430038a4:	aa0003f6 	mov	x22, x0
    430038a8:	d0000020 	adrp	x0, 43009000 <__STACKS_START__+0xf80>
    430038ac:	aa0103f5 	mov	x21, x1
    430038b0:	a90153f3 	stp	x19, x20, [sp, #16]
    430038b4:	3971a001 	ldrb	w1, [x0, #3176]
    430038b8:	350002e1 	cbnz	w1, 43003914 <boot_to_kernel+0x7c>
    430038bc:	52800021 	mov	w1, #0x1                   	// #1
    430038c0:	aa0303f3 	mov	x19, x3
    430038c4:	3931a001 	strb	w1, [x0, #3176]
    430038c8:	aa0203f4 	mov	x20, x2
    430038cc:	52800020 	mov	w0, #0x1                   	// #1
    430038d0:	9400043f 	bl	430049cc <console_switch_state>
    430038d4:	d0000020 	adrp	x0, 43009000 <__STACKS_START__+0xf80>
    430038d8:	91192004 	add	x4, x0, #0x648
    430038dc:	f9032416 	str	x22, [x0, #1608]
    430038e0:	f9001093 	str	x19, [x4, #32]
    430038e4:	b5000153 	cbnz	x19, 4300390c <boot_to_kernel+0x74>
    430038e8:	a900d49f 	stp	xzr, x21, [x4, #8]
    430038ec:	f9000c94 	str	x20, [x4, #24]
    430038f0:	aa1303e0 	mov	x0, x19
    430038f4:	940000d0 	bl	43003c34 <bl31_prepare_kernel_entry>
    430038f8:	a94153f3 	ldp	x19, x20, [sp, #16]
    430038fc:	52800040 	mov	w0, #0x2                   	// #2
    43003900:	a9425bf5 	ldp	x21, x22, [sp, #32]
    43003904:	a8c37bfd 	ldp	x29, x30, [sp], #48
    43003908:	14000431 	b	430049cc <console_switch_state>
    4300390c:	a900d095 	stp	x21, x20, [x4, #8]
    43003910:	17fffff8 	b	430038f0 <boot_to_kernel+0x58>
    43003914:	a94153f3 	ldp	x19, x20, [sp, #16]
    43003918:	a9425bf5 	ldp	x21, x22, [sp, #32]
    4300391c:	a8c37bfd 	ldp	x29, x30, [sp], #48
    43003920:	d65f03c0 	ret

0000000043003924 <plat_get_spsr_for_bl33_entry>:
    43003924:	52807920 	mov	w0, #0x3c9                 	// #969
    43003928:	d65f03c0 	ret

000000004300392c <plat_is_smccc_feature_available>:
    4300392c:	d2800041 	mov	x1, #0x2                   	// #2
    43003930:	f2b00001 	movk	x1, #0x8000, lsl #16
    43003934:	eb01001f 	cmp	x0, x1
    43003938:	5a9f03e0 	csetm	w0, ne	// ne = any
    4300393c:	d65f03c0 	ret

0000000043003940 <plat_get_soc_version>:
    43003940:	528f3020 	mov	w0, #0x7981                	// #31105
    43003944:	72a084c0 	movk	w0, #0x426, lsl #16
    43003948:	d65f03c0 	ret

000000004300394c <plat_get_soc_revision>:
    4300394c:	52800000 	mov	w0, #0x0                   	// #0
    43003950:	d65f03c0 	ret

0000000043003954 <mediatek_sip_handler>:
    43003954:	a9bb7bfd 	stp	x29, x30, [sp, #-80]!
    43003958:	910003fd 	mov	x29, sp
    4300395c:	a90153f3 	stp	x19, x20, [sp, #16]
    43003960:	2a0003f4 	mov	w20, w0
    43003964:	aa0603f3 	mov	x19, x6
    43003968:	a9025bf5 	stp	x21, x22, [sp, #32]
    4300396c:	aa0703f5 	mov	x21, x7
    43003970:	aa0503f6 	mov	x22, x5
    43003974:	a9030fe4 	stp	x4, x3, [sp, #48]
    43003978:	9100c3e4 	add	x4, sp, #0x30
    4300397c:	9100e3e3 	add	x3, sp, #0x38
    43003980:	a90407e2 	stp	x2, x1, [sp, #64]
    43003984:	910103e2 	add	x2, sp, #0x40
    43003988:	910123e1 	add	x1, sp, #0x48
    4300398c:	97ffffad 	bl	43003840 <clean_top_32b_of_param>
    43003990:	36000135 	tbz	w21, #0, 430039b4 <mediatek_sip_handler+0x60>
    43003994:	52800022 	mov	w2, #0x1                   	// #1
    43003998:	a94403e1 	ldp	x1, x0, [sp, #64]
    4300399c:	72b04002 	movk	w2, #0x8200, lsl #16
    430039a0:	6b02029f 	cmp	w20, w2
    430039a4:	54000180 	b.eq	430039d4 <mediatek_sip_handler+0x80>  // b.none
    430039a8:	1107fc42 	add	w2, w2, #0x1ff
    430039ac:	6b02029f 	cmp	w20, w2
    430039b0:	54000200 	b.eq	430039f0 <mediatek_sip_handler+0x9c>  // b.none
    430039b4:	a9430fe4 	ldp	x4, x3, [sp, #48]
    430039b8:	aa1503e7 	mov	x7, x21
    430039bc:	a94407e2 	ldp	x2, x1, [sp, #64]
    430039c0:	aa1303e6 	mov	x6, x19
    430039c4:	aa1603e5 	mov	x5, x22
    430039c8:	2a1403e0 	mov	w0, w20
    430039cc:	940002d5 	bl	43004520 <mediatek_plat_sip_handler>
    430039d0:	14000004 	b	430039e0 <mediatek_sip_handler+0x8c>
    430039d4:	940002c8 	bl	430044f4 <mt_sip_set_authorized_sreg>
    430039d8:	f9000260 	str	x0, [x19]
    430039dc:	aa1303e0 	mov	x0, x19
    430039e0:	a94153f3 	ldp	x19, x20, [sp, #16]
    430039e4:	a9425bf5 	ldp	x21, x22, [sp, #32]
    430039e8:	a8c57bfd 	ldp	x29, x30, [sp], #80
    430039ec:	d65f03c0 	ret
    430039f0:	a9430be3 	ldp	x3, x2, [sp, #48]
    430039f4:	97ffffa9 	bl	43003898 <boot_to_kernel>
    430039f8:	17fffff9 	b	430039dc <mediatek_sip_handler+0x88>

00000000430039fc <sip_smc_handler>:
    430039fc:	529fe029 	mov	w9, #0xff01                	// #65281
    43003a00:	aa0603e8 	mov	x8, x6
    43003a04:	72b04009 	movk	w9, #0x8200, lsl #16
    43003a08:	6b09001f 	cmp	w0, w9
    43003a0c:	54000160 	b.eq	43003a38 <sip_smc_handler+0x3c>  // b.none
    43003a10:	11000929 	add	w9, w9, #0x2
    43003a14:	6b09001f 	cmp	w0, w9
    43003a18:	54000280 	b.eq	43003a68 <sip_smc_handler+0x6c>  // b.none
    43003a1c:	51000d29 	sub	w9, w9, #0x3
    43003a20:	6b09001f 	cmp	w0, w9
    43003a24:	54000281 	b.ne	43003a74 <sip_smc_handler+0x78>  // b.any
    43003a28:	d28001c0 	mov	x0, #0xe                   	// #14
    43003a2c:	f9000100 	str	x0, [x8]
    43003a30:	aa0803e0 	mov	x0, x8
    43003a34:	d65f03c0 	ret
    43003a38:	d28000a0 	mov	x0, #0x5                   	// #5
    43003a3c:	f2a7a1e0 	movk	x0, #0x3d0f, lsl #16
    43003a40:	f9000cc0 	str	x0, [x6, #24]
    43003a44:	d29cb000 	mov	x0, #0xe580                	// #58752
    43003a48:	f2b2b1e0 	movk	x0, #0x958f, lsl #16
    43003a4c:	f90008c0 	str	x0, [x6, #16]
    43003a50:	d2884c40 	mov	x0, #0x4262                	// #16994
    43003a54:	f2a9afa0 	movk	x0, #0x4d7d, lsl #16
    43003a58:	f90004c0 	str	x0, [x6, #8]
    43003a5c:	d2857480 	mov	x0, #0x2ba4                	// #11172
    43003a60:	f2beeb00 	movk	x0, #0xf758, lsl #16
    43003a64:	17fffff2 	b	43003a2c <sip_smc_handler+0x30>
    43003a68:	d2800020 	mov	x0, #0x1                   	// #1
    43003a6c:	a90000df 	stp	xzr, x0, [x6]
    43003a70:	17fffff0 	b	43003a30 <sip_smc_handler+0x34>
    43003a74:	17ffffb8 	b	43003954 <mediatek_sip_handler>

0000000043003a78 <plat_configure_mmu_el3>:
    43003a78:	a9bd7bfd 	stp	x29, x30, [sp, #-48]!
    43003a7c:	910003fd 	mov	x29, sp
    43003a80:	a90153f3 	stp	x19, x20, [sp, #16]
    43003a84:	aa0403f3 	mov	x19, x4
    43003a88:	aa0203f4 	mov	x20, x2
    43003a8c:	aa0103e2 	mov	x2, x1
    43003a90:	aa0003e1 	mov	x1, x0
    43003a94:	a9025bf5 	stp	x21, x22, [sp, #32]
    43003a98:	aa0503f5 	mov	x21, x5
    43003a9c:	aa0303f6 	mov	x22, x3
    43003aa0:	52800143 	mov	w3, #0xa                   	// #10
    43003aa4:	94000497 	bl	43004d00 <mmap_add_region>
    43003aa8:	cb1402c2 	sub	x2, x22, x20
    43003aac:	aa1403e1 	mov	x1, x20
    43003ab0:	aa1403e0 	mov	x0, x20
    43003ab4:	52800043 	mov	w3, #0x2                   	// #2
    43003ab8:	94000492 	bl	43004d00 <mmap_add_region>
    43003abc:	cb1302a2 	sub	x2, x21, x19
    43003ac0:	aa1303e1 	mov	x1, x19
    43003ac4:	52800103 	mov	w3, #0x8                   	// #8
    43003ac8:	aa1303e0 	mov	x0, x19
    43003acc:	9400048d 	bl	43004d00 <mmap_add_region>
    43003ad0:	f0000000 	adrp	x0, 43006000 <efuse_write+0x268>
    43003ad4:	911f4000 	add	x0, x0, #0x7d0
    43003ad8:	940004c1 	bl	43004ddc <mmap_add>
    43003adc:	940004fc 	bl	43004ecc <init_xlat_tables>
    43003ae0:	a94153f3 	ldp	x19, x20, [sp, #16]
    43003ae4:	52800000 	mov	w0, #0x0                   	// #0
    43003ae8:	a9425bf5 	ldp	x21, x22, [sp, #32]
    43003aec:	a8c37bfd 	ldp	x29, x30, [sp], #48
    43003af0:	14000518 	b	43004f50 <enable_mmu_el3>

0000000043003af4 <plat_get_syscnt_freq2>:
    43003af4:	528ba800 	mov	w0, #0x5d40                	// #23872
    43003af8:	72a018c0 	movk	w0, #0xc6, lsl #16
    43003afc:	d65f03c0 	ret

0000000043003b00 <mt7981_disable_l2c_shared>:
    43003b00:	a9bf7bfd 	stp	x29, x30, [sp, #-16]!
    43003b04:	910003fd 	mov	x29, sp
    43003b08:	d5033f9f 	dsb	sy
    43003b0c:	d5033fdf 	isb
    43003b10:	d2800020 	mov	x0, #0x1                   	// #1
    43003b14:	940007f0 	bl	43005ad4 <dcsw_op_all>
    43003b18:	d5033f9f 	dsb	sy
    43003b1c:	d5033fdf 	isb
    43003b20:	d2800780 	mov	x0, #0x3c                  	// #60
    43003b24:	f2a20800 	movk	x0, #0x1040, lsl #16
    43003b28:	b9400001 	ldr	w1, [x0]
    43003b2c:	32030021 	orr	w1, w1, #0x20000000
    43003b30:	b9000001 	str	w1, [x0]
    43003b34:	b9400001 	ldr	w1, [x0]
    43003b38:	36f7ffe1 	tbz	w1, #30, 43003b34 <mt7981_disable_l2c_shared+0x34>
    43003b3c:	b9400001 	ldr	w1, [x0]
    43003b40:	12027821 	and	w1, w1, #0xdfffffff
    43003b44:	b9000001 	str	w1, [x0]
    43003b48:	52802001 	mov	w1, #0x100                 	// #256
    43003b4c:	b907b401 	str	w1, [x0, #1972]
    43003b50:	a8c17bfd 	ldp	x29, x30, [sp], #16
    43003b54:	d65f03c0 	ret

0000000043003b58 <platform_setup_cpu>:
    43003b58:	d280fe00 	mov	x0, #0x7f0                 	// #2032
    43003b5c:	f2a20800 	movk	x0, #0x1040, lsl #16
    43003b60:	b9400000 	ldr	w0, [x0]
    43003b64:	360000c0 	tbz	w0, #0, 43003b7c <platform_setup_cpu+0x24>
    43003b68:	5281a001 	mov	w1, #0xd00                 	// #3328
    43003b6c:	0a010000 	and	w0, w0, w1
    43003b70:	7104001f 	cmp	w0, #0x100
    43003b74:	54000041 	b.ne	43003b7c <platform_setup_cpu+0x24>  // b.any
    43003b78:	17ffffe2 	b	43003b00 <mt7981_disable_l2c_shared>
    43003b7c:	d65f03c0 	ret

0000000043003b80 <bl31_plat_get_next_image_ep_info>:
    43003b80:	7100041f 	cmp	w0, #0x1
    43003b84:	d0000021 	adrp	x1, 43009000 <__STACKS_START__+0xf80>
    43003b88:	d0000022 	adrp	x2, 43009000 <__STACKS_START__+0xf80>
    43003b8c:	911be020 	add	x0, x1, #0x6f8
    43003b90:	911a8042 	add	x2, x2, #0x6a0
    43003b94:	9a821000 	csel	x0, x0, x2, ne	// ne = any
    43003b98:	f9400401 	ldr	x1, [x0, #8]
    43003b9c:	f100003f 	cmp	x1, #0x0
    43003ba0:	9a9f1000 	csel	x0, x0, xzr, ne	// ne = any
    43003ba4:	d65f03c0 	ret

0000000043003ba8 <bl31_plat_get_next_kernel_ep_info>:
    43003ba8:	34000120 	cbz	w0, 43003bcc <bl31_plat_get_next_kernel_ep_info+0x24>
    43003bac:	7100041f 	cmp	w0, #0x1
    43003bb0:	540003e0 	b.eq	43003c2c <bl31_plat_get_next_kernel_ep_info+0x84>  // b.none
    43003bb4:	d2800000 	mov	x0, #0x0                   	// #0
    43003bb8:	d65f03c0 	ret
    43003bbc:	d2800000 	mov	x0, #0x0                   	// #0
    43003bc0:	f9400bf3 	ldr	x19, [sp, #16]
    43003bc4:	a8c27bfd 	ldp	x29, x30, [sp], #32
    43003bc8:	d65f03c0 	ret
    43003bcc:	52803a20 	mov	w0, #0x1d1                 	// #465
    43003bd0:	a9be7bfd 	stp	x29, x30, [sp, #-32]!
    43003bd4:	910003fd 	mov	x29, sp
    43003bd8:	f9000bf3 	str	x19, [sp, #16]
    43003bdc:	d0000033 	adrp	x19, 43009000 <__STACKS_START__+0xf80>
    43003be0:	911a8273 	add	x19, x19, #0x6a0
    43003be4:	b9001260 	str	w0, [x19, #16]
    43003be8:	97ffff20 	bl	43003868 <get_kernel_info_pc>
    43003bec:	f9000660 	str	x0, [x19, #8]
    43003bf0:	97ffff21 	bl	43003874 <get_kernel_info_r0>
    43003bf4:	f9000e60 	str	x0, [x19, #24]
    43003bf8:	97ffff22 	bl	43003880 <get_kernel_info_r1>
    43003bfc:	f9001260 	str	x0, [x19, #32]
    43003c00:	97ffff23 	bl	4300388c <get_kernel_info_r2>
    43003c04:	f9001660 	str	x0, [x19, #40]
    43003c08:	12800421 	mov	w1, #0xffffffde            	// #-34
    43003c0c:	b9400660 	ldr	w0, [x19, #4]
    43003c10:	0a010000 	and	w0, w0, w1
    43003c14:	32000000 	orr	w0, w0, #0x1
    43003c18:	b9000660 	str	w0, [x19, #4]
    43003c1c:	f9400660 	ldr	x0, [x19, #8]
    43003c20:	b4fffce0 	cbz	x0, 43003bbc <bl31_plat_get_next_kernel_ep_info+0x14>
    43003c24:	aa1303e0 	mov	x0, x19
    43003c28:	17ffffe6 	b	43003bc0 <bl31_plat_get_next_kernel_ep_info+0x18>
    43003c2c:	528078a0 	mov	w0, #0x3c5                 	// #965
    43003c30:	17ffffe8 	b	43003bd0 <bl31_plat_get_next_kernel_ep_info+0x28>

0000000043003c34 <bl31_prepare_kernel_entry>:
    43003c34:	a9bf7bfd 	stp	x29, x30, [sp, #-16]!
    43003c38:	910003fd 	mov	x29, sp
    43003c3c:	b50000c0 	cbnz	x0, 43003c54 <bl31_prepare_kernel_entry+0x20>
    43003c40:	97ffffda 	bl	43003ba8 <bl31_plat_get_next_kernel_ep_info>
    43003c44:	97fff7c1 	bl	43001b48 <cm_init_my_context>
    43003c48:	a8c17bfd 	ldp	x29, x30, [sp], #16
    43003c4c:	52800020 	mov	w0, #0x1                   	// #1
    43003c50:	17fff7f1 	b	43001c14 <cm_prepare_el3_exit>
    43003c54:	52800020 	mov	w0, #0x1                   	// #1
    43003c58:	17fffffa 	b	43003c40 <bl31_prepare_kernel_entry+0xc>

0000000043003c5c <bl31_early_platform_setup2>:
    43003c5c:	a9be7bfd 	stp	x29, x30, [sp, #-32]!
    43003c60:	d0000024 	adrp	x4, 43009000 <__STACKS_START__+0xf80>
    43003c64:	52984002 	mov	w2, #0xc200                	// #49664
    43003c68:	9119c084 	add	x4, x4, #0x670
    43003c6c:	528b4001 	mov	w1, #0x5a00                	// #23040
    43003c70:	910003fd 	mov	x29, sp
    43003c74:	52800023 	mov	w3, #0x1                   	// #1
    43003c78:	72a00022 	movk	w2, #0x1, lsl #16
    43003c7c:	72a04c41 	movk	w1, #0x262, lsl #16
    43003c80:	d2840000 	mov	x0, #0x2000                	// #8192
    43003c84:	f2a22000 	movk	x0, #0x1100, lsl #16
    43003c88:	f9000bf3 	str	x19, [sp, #16]
    43003c8c:	940006dc 	bl	430057fc <console_hsuart_register>
    43003c90:	97ffffb2 	bl	43003b58 <platform_setup_cpu>
    43003c94:	d2800300 	mov	x0, #0x18                  	// #24
    43003c98:	d0000022 	adrp	x2, 43009000 <__STACKS_START__+0xf80>
    43003c9c:	f2a34040 	movk	x0, #0x1a02, lsl #16
    43003ca0:	d2802021 	mov	x1, #0x101                 	// #257
    43003ca4:	f2a00b01 	movk	x1, #0x58, lsl #16
    43003ca8:	b900001f 	str	wzr, [x0]
    43003cac:	911be040 	add	x0, x2, #0x6f8
    43003cb0:	f9037c41 	str	x1, [x2, #1784]
    43003cb4:	d2a9fa02 	mov	x2, #0x4fd00000            	// #1339031552
    43003cb8:	f9000402 	str	x2, [x0, #8]
    43003cbc:	b900101f 	str	wzr, [x0, #16]
    43003cc0:	d0000020 	adrp	x0, 43009000 <__STACKS_START__+0xf80>
    43003cc4:	911a8013 	add	x19, x0, #0x6a0
    43003cc8:	f9035001 	str	x1, [x0, #1696]
    43003ccc:	d2a83c00 	mov	x0, #0x41e00000            	// #1105199104
    43003cd0:	f9000660 	str	x0, [x19, #8]
    43003cd4:	97ffff14 	bl	43003924 <plat_get_spsr_for_bl33_entry>
    43003cd8:	b9001260 	str	w0, [x19, #16]
    43003cdc:	12800421 	mov	w1, #0xffffffde            	// #-34
    43003ce0:	b9400660 	ldr	w0, [x19, #4]
    43003ce4:	0a010000 	and	w0, w0, w1
    43003ce8:	32000000 	orr	w0, w0, #0x1
    43003cec:	b9000660 	str	w0, [x19, #4]
    43003cf0:	f9400bf3 	ldr	x19, [sp, #16]
    43003cf4:	a8c27bfd 	ldp	x29, x30, [sp], #32
    43003cf8:	d65f03c0 	ret

0000000043003cfc <bl31_platform_setup>:
    43003cfc:	14000085 	b	43003f10 <mtk_timer_init>

0000000043003d00 <bl31_plat_arch_setup>:
    43003d00:	a9bf7bfd 	stp	x29, x30, [sp, #-16]!
    43003d04:	910003fd 	mov	x29, sp
    43003d08:	9400010f 	bl	43004144 <plat_mt_gic_init>
    43003d0c:	94000017 	bl	43003d68 <spmc_init>
    43003d10:	a8c17bfd 	ldp	x29, x30, [sp], #16
    43003d14:	d0ffffe2 	adrp	x2, 43001000 <bl31_entrypoint>
    43003d18:	90000065 	adrp	x5, 4300f000 <__BL31_END__>
    43003d1c:	91000042 	add	x2, x2, #0x0
    43003d20:	910000a5 	add	x5, x5, #0x0
    43003d24:	aa0203e0 	mov	x0, x2
    43003d28:	cb0200a1 	sub	x1, x5, x2
    43003d2c:	f0000044 	adrp	x4, 4300e000 <psci_locks>
    43003d30:	b0000023 	adrp	x3, 43008000 <__RO_END_UNALIGNED__>
    43003d34:	91000084 	add	x4, x4, #0x0
    43003d38:	91000063 	add	x3, x3, #0x0
    43003d3c:	17ffff4f 	b	43003a78 <plat_configure_mmu_el3>

0000000043003d40 <set_cpu_retention_control>:
    43003d40:	a9be7bfd 	stp	x29, x30, [sp, #-32]!
    43003d44:	910003fd 	mov	x29, sp
    43003d48:	f9000bf3 	str	x19, [sp, #16]
    43003d4c:	93407c13 	sxtw	x19, w0
    43003d50:	940006c1 	bl	43005854 <read_cpuectlr>
    43003d54:	927df000 	and	x0, x0, #0xfffffffffffffff8
    43003d58:	aa000260 	orr	x0, x19, x0
    43003d5c:	f9400bf3 	ldr	x19, [sp, #16]
    43003d60:	a8c27bfd 	ldp	x29, x30, [sp], #32
    43003d64:	140006be 	b	4300585c <write_cpuectlr>

0000000043003d68 <spmc_init>:
    43003d68:	d2800401 	mov	x1, #0x20                  	// #32
    43003d6c:	f2a23a21 	movk	x1, #0x11d1, lsl #16
    43003d70:	aa0103e0 	mov	x0, x1
    43003d74:	b800841f 	str	wzr, [x0], #8
    43003d78:	b9400822 	ldr	w2, [x1, #8]
    43003d7c:	121f7842 	and	w2, w2, #0xfffffffe
    43003d80:	b9000822 	str	w2, [x1, #8]
    43003d84:	b9400401 	ldr	w1, [x0, #4]
    43003d88:	121f7821 	and	w1, w1, #0xfffffffe
    43003d8c:	b9000401 	str	w1, [x0, #4]
    43003d90:	b9400801 	ldr	w1, [x0, #8]
    43003d94:	121f7821 	and	w1, w1, #0xfffffffe
    43003d98:	b9000801 	str	w1, [x0, #8]
    43003d9c:	b9400c01 	ldr	w1, [x0, #12]
    43003da0:	121f7821 	and	w1, w1, #0xfffffffe
    43003da4:	b9000c01 	str	w1, [x0, #12]
    43003da8:	b85fc001 	ldur	w1, [x0, #-4]
    43003dac:	121f7821 	and	w1, w1, #0xfffffffe
    43003db0:	b81fc001 	stur	w1, [x0, #-4]
    43003db4:	b85fc001 	ldur	w1, [x0, #-4]
    43003db8:	121c7821 	and	w1, w1, #0xfffffff7
    43003dbc:	b81fc001 	stur	w1, [x0, #-4]
    43003dc0:	d0000020 	adrp	x0, 43009000 <__STACKS_START__+0xf80>
    43003dc4:	52800021 	mov	w1, #0x1                   	// #1
    43003dc8:	b90bb401 	str	w1, [x0, #2996]
    43003dcc:	52800000 	mov	w0, #0x0                   	// #0
    43003dd0:	d65f03c0 	ret

0000000043003dd4 <spmc_cpu_corex_onoff>:
    43003dd4:	a9bd7bfd 	stp	x29, x30, [sp, #-48]!
    43003dd8:	2a0003e4 	mov	w4, w0
    43003ddc:	910003fd 	mov	x29, sp
    43003de0:	a90153f3 	stp	x19, x20, [sp, #16]
    43003de4:	a9025bf5 	stp	x21, x22, [sp, #32]
    43003de8:	2a0203f5 	mov	w21, w2
    43003dec:	71000c1f 	cmp	w0, #0x3
    43003df0:	54000508 	b.hi	43003e90 <spmc_cpu_corex_onoff+0xbc>  // b.pmore
    43003df4:	52838603 	mov	w3, #0x1c30                	// #7216
    43003df8:	52800513 	mov	w19, #0x28                  	// #40
    43003dfc:	72a20803 	movk	w3, #0x1040, lsl #16
    43003e00:	72a23a33 	movk	w19, #0x11d1, lsl #16
    43003e04:	0b000863 	add	w3, w3, w0, lsl #2
    43003e08:	0b000a73 	add	w19, w19, w0, lsl #2
    43003e0c:	f0000000 	adrp	x0, 43006000 <efuse_write+0x268>
    43003e10:	9138e800 	add	x0, x0, #0xe3a
    43003e14:	78645802 	ldrh	w2, [x0, w4, uxtw #1]
    43003e18:	52800034 	mov	w20, #0x1                   	// #1
    43003e1c:	1ac42294 	lsl	w20, w20, w4
    43003e20:	35000501 	cbnz	w1, 43003ec0 <spmc_cpu_corex_onoff+0xec>
    43003e24:	d0000036 	adrp	x22, 43009000 <__STACKS_START__+0xf80>
    43003e28:	b94bb6c0 	ldr	w0, [x22, #2996]
    43003e2c:	6a00029f 	tst	w20, w0
    43003e30:	54000260 	b.eq	43003e7c <spmc_cpu_corex_onoff+0xa8>  // b.none
    43003e34:	2a0303e1 	mov	w1, w3
    43003e38:	b9400020 	ldr	w0, [x1]
    43003e3c:	710006bf 	cmp	w21, #0x1
    43003e40:	54000301 	b.ne	43003ea0 <spmc_cpu_corex_onoff+0xcc>  // b.any
    43003e44:	121e7800 	and	w0, w0, #0xfffffffd
    43003e48:	b9000020 	str	w0, [x1]
    43003e4c:	2a1503e0 	mov	w0, w21
    43003e50:	97ffffbc 	bl	43003d40 <set_cpu_retention_control>
    43003e54:	2a1303f3 	mov	w19, w19
    43003e58:	b9400260 	ldr	w0, [x19]
    43003e5c:	121e7800 	and	w0, w0, #0xfffffffd
    43003e60:	b9000260 	str	w0, [x19]
    43003e64:	35000075 	cbnz	w21, 43003e70 <spmc_cpu_corex_onoff+0x9c>
    43003e68:	b9400260 	ldr	w0, [x19]
    43003e6c:	37f7ffe0 	tbnz	w0, #30, 43003e68 <spmc_cpu_corex_onoff+0x94>
    43003e70:	b94bb6c0 	ldr	w0, [x22, #2996]
    43003e74:	0a340014 	bic	w20, w0, w20
    43003e78:	b90bb6d4 	str	w20, [x22, #2996]
    43003e7c:	a94153f3 	ldp	x19, x20, [sp, #16]
    43003e80:	52800000 	mov	w0, #0x0                   	// #0
    43003e84:	a9425bf5 	ldp	x21, x22, [sp, #32]
    43003e88:	a8c37bfd 	ldp	x29, x30, [sp], #48
    43003e8c:	d65f03c0 	ret
    43003e90:	52800002 	mov	w2, #0x0                   	// #0
    43003e94:	d2800013 	mov	x19, #0x0                   	// #0
    43003e98:	52800003 	mov	w3, #0x0                   	// #0
    43003e9c:	17ffffdf 	b	43003e18 <spmc_cpu_corex_onoff+0x44>
    43003ea0:	321f0000 	orr	w0, w0, #0x2
    43003ea4:	b9000020 	str	w0, [x1]
    43003ea8:	d2802101 	mov	x1, #0x108                 	// #264
    43003eac:	f2a23a21 	movk	x1, #0x11d1, lsl #16
    43003eb0:	b9400020 	ldr	w0, [x1]
    43003eb4:	6a00005f 	tst	w2, w0
    43003eb8:	54ffffc0 	b.eq	43003eb0 <spmc_cpu_corex_onoff+0xdc>  // b.none
    43003ebc:	17ffffe6 	b	43003e54 <spmc_cpu_corex_onoff+0x80>
    43003ec0:	b9400260 	ldr	w0, [x19]
    43003ec4:	321f0000 	orr	w0, w0, #0x2
    43003ec8:	b9000260 	str	w0, [x19]
    43003ecc:	b9400260 	ldr	w0, [x19]
    43003ed0:	36f7ffe0 	tbz	w0, #30, 43003ecc <spmc_cpu_corex_onoff+0xf8>
    43003ed4:	d0000021 	adrp	x1, 43009000 <__STACKS_START__+0xf80>
    43003ed8:	b94bb420 	ldr	w0, [x1, #2996]
    43003edc:	2a140000 	orr	w0, w0, w20
    43003ee0:	b90bb420 	str	w0, [x1, #2996]
    43003ee4:	17ffffe6 	b	43003e7c <spmc_cpu_corex_onoff+0xa8>

0000000043003ee8 <generic_timer_backup>:
    43003ee8:	d53be020 	mrs	x0, cntpct_el0
    43003eec:	d65f03c0 	ret

0000000043003ef0 <get_timer_value>:
    43003ef0:	a9bf7bfd 	stp	x29, x30, [sp, #-16]!
    43003ef4:	b0000020 	adrp	x0, 43008000 <__RO_END_UNALIGNED__>
    43003ef8:	91000000 	add	x0, x0, #0x0
    43003efc:	910003fd 	mov	x29, sp
    43003f00:	97fffe38 	bl	430037e0 <mtk_gpt_get_counter>
    43003f04:	2a2003e0 	mvn	w0, w0
    43003f08:	a8c17bfd 	ldp	x29, x30, [sp], #16
    43003f0c:	d65f03c0 	ret

0000000043003f10 <mtk_timer_init>:
    43003f10:	a9bf7bfd 	stp	x29, x30, [sp, #-16]!
    43003f14:	b0000020 	adrp	x0, 43008000 <__RO_END_UNALIGNED__>
    43003f18:	91000000 	add	x0, x0, #0x0
    43003f1c:	910003fd 	mov	x29, sp
    43003f20:	97fffe17 	bl	4300377c <mtk_gpt_init>
    43003f24:	5285a001 	mov	w1, #0x2d00                	// #11520
    43003f28:	52884802 	mov	w2, #0x4240                	// #16960
    43003f2c:	72a02621 	movk	w1, #0x131, lsl #16
    43003f30:	72a001e2 	movk	w2, #0xf, lsl #16
    43003f34:	52800140 	mov	w0, #0xa                   	// #10
    43003f38:	1ac00842 	udiv	w2, w2, w0
    43003f3c:	1ac00821 	udiv	w1, w1, w0
    43003f40:	1ac00843 	udiv	w3, w2, w0
    43003f44:	1ac00824 	udiv	w4, w1, w0
    43003f48:	1b008863 	msub	w3, w3, w0, w2
    43003f4c:	1b008484 	msub	w4, w4, w0, w1
    43003f50:	2a040063 	orr	w3, w3, w4
    43003f54:	34ffff23 	cbz	w3, 43003f38 <mtk_timer_init+0x28>
    43003f58:	d0000024 	adrp	x4, 43009000 <__STACKS_START__+0xf80>
    43003f5c:	911d4080 	add	x0, x4, #0x750
    43003f60:	90000003 	adrp	x3, 43003000 <psci_setup+0x1e8>
    43003f64:	913bc063 	add	x3, x3, #0xef0
    43003f68:	f903a883 	str	x3, [x4, #1872]
    43003f6c:	29010402 	stp	w2, w1, [x0, #8]
    43003f70:	a8c17bfd 	ldp	x29, x30, [sp], #16
    43003f74:	17fff67b 	b	43001960 <timer_init>

0000000043003f78 <plat_get_rnd>:
    43003f78:	a9be7bfd 	stp	x29, x30, [sp, #-32]!
    43003f7c:	910003fd 	mov	x29, sp
    43003f80:	a90153f3 	stp	x19, x20, [sp, #16]
    43003f84:	b4000b20 	cbz	x0, 430040e8 <plat_get_rnd+0x170>
    43003f88:	d0000033 	adrp	x19, 43009000 <__STACKS_START__+0xf80>
    43003f8c:	912ee273 	add	x19, x19, #0xbb8
    43003f90:	aa0003f4 	mov	x20, x0
    43003f94:	aa1303e0 	mov	x0, x19
    43003f98:	94000597 	bl	430055f4 <spin_lock>
    43003f9c:	d53be001 	mrs	x1, cntfrq_el0
    43003fa0:	d53be020 	mrs	x0, cntpct_el0
    43003fa4:	d2807d09 	mov	x9, #0x3e8                 	// #1000
    43003fa8:	d288480a 	mov	x10, #0x4240                	// #16960
    43003fac:	f2a001ea 	movk	x10, #0xf, lsl #16
    43003fb0:	d29e0284 	mov	x4, #0xf014                	// #61460
    43003fb4:	9b097c21 	mul	x1, x1, x9
    43003fb8:	f2a20404 	movk	x4, #0x1020, lsl #16
    43003fbc:	aa0403e2 	mov	x2, x4
    43003fc0:	5287e60b 	mov	w11, #0x3f30                	// #16176
    43003fc4:	72a1e00b 	movk	w11, #0xf00, lsl #16
    43003fc8:	d2822a0c 	mov	x12, #0x1150                	// #4432
    43003fcc:	52800227 	mov	w7, #0x11                  	// #17
    43003fd0:	52800006 	mov	w6, #0x0                   	// #0
    43003fd4:	9aca0821 	udiv	x1, x1, x10
    43003fd8:	1280022d 	mov	w13, #0xffffffee            	// #-18
    43003fdc:	f2a2000c 	movk	x12, #0x1000, lsl #16
    43003fe0:	8b000021 	add	x1, x1, x0
    43003fe4:	b9400080 	ldr	w0, [x4]
    43003fe8:	121f7800 	and	w0, w0, #0xfffffffe
    43003fec:	b8014440 	str	w0, [x2], #20
    43003ff0:	b900148b 	str	w11, [x4, #20]
    43003ff4:	d1009045 	sub	x5, x2, #0x24
    43003ff8:	d1002043 	sub	x3, x2, #0x8
    43003ffc:	b85f8040 	ldur	w0, [x2, #-8]
    43004000:	2a070000 	orr	w0, w0, w7
    43004004:	b81f8040 	stur	w0, [x2, #-8]
    43004008:	b94000a0 	ldr	w0, [x5]
    4300400c:	36200140 	tbz	w0, #4, 43004034 <plat_get_rnd+0xbc>
    43004010:	b9402ca0 	ldr	w0, [x5, #44]
    43004014:	b9000280 	str	w0, [x20]
    43004018:	52800014 	mov	w20, #0x0                   	// #0
    4300401c:	aa1303e0 	mov	x0, x19
    43004020:	9400057d 	bl	43005614 <spin_unlock>
    43004024:	2a1403e0 	mov	w0, w20
    43004028:	a94153f3 	ldp	x19, x20, [sp, #16]
    4300402c:	a8c27bfd 	ldp	x29, x30, [sp], #32
    43004030:	d65f03c0 	ret
    43004034:	b94000a0 	ldr	w0, [x5]
    43004038:	7208101f 	tst	w0, #0x1f000000
    4300403c:	540001e0 	b.eq	43004078 <plat_get_rnd+0x100>  // b.none
    43004040:	b9400060 	ldr	w0, [x3]
    43004044:	0a0d0000 	and	w0, w0, w13
    43004048:	b9000060 	str	w0, [x3]
    4300404c:	d29e0200 	mov	x0, #0xf010                	// #61456
    43004050:	f2a20400 	movk	x0, #0x1020, lsl #16
    43004054:	b9400008 	ldr	w8, [x0]
    43004058:	121f7908 	and	w8, w8, #0xfffffffe
    4300405c:	b9000008 	str	w8, [x0]
    43004060:	b9400008 	ldr	w8, [x0]
    43004064:	32000108 	orr	w8, w8, #0x1
    43004068:	b9000008 	str	w8, [x0]
    4300406c:	b9400060 	ldr	w0, [x3]
    43004070:	2a070000 	orr	w0, w0, w7
    43004074:	b9000060 	str	w0, [x3]
    43004078:	d53be020 	mrs	x0, cntpct_el0
    4300407c:	eb01001f 	cmp	x0, x1
    43004080:	54fffc49 	b.ls	43004008 <plat_get_rnd+0x90>  // b.plast
    43004084:	b9400180 	ldr	w0, [x12]
    43004088:	d2822a81 	mov	x1, #0x1154                	// #4436
    4300408c:	f2a20001 	movk	x1, #0x1000, lsl #16
    43004090:	32130000 	orr	w0, w0, #0x2000
    43004094:	b9000180 	str	w0, [x12]
    43004098:	b9400020 	ldr	w0, [x1]
    4300409c:	32130000 	orr	w0, w0, #0x2000
    430040a0:	b9000020 	str	w0, [x1]
    430040a4:	b9400080 	ldr	w0, [x4]
    430040a8:	121f7800 	and	w0, w0, #0xfffffffe
    430040ac:	b9000080 	str	w0, [x4]
    430040b0:	b900004b 	str	w11, [x2]
    430040b4:	b9400060 	ldr	w0, [x3]
    430040b8:	2a070000 	orr	w0, w0, w7
    430040bc:	b9000060 	str	w0, [x3]
    430040c0:	d53be001 	mrs	x1, cntfrq_el0
    430040c4:	d53be020 	mrs	x0, cntpct_el0
    430040c8:	9b097c21 	mul	x1, x1, x9
    430040cc:	110004c6 	add	w6, w6, #0x1
    430040d0:	9aca0821 	udiv	x1, x1, x10
    430040d4:	8b000021 	add	x1, x1, x0
    430040d8:	71002cdf 	cmp	w6, #0xb
    430040dc:	54fff961 	b.ne	43004008 <plat_get_rnd+0x90>  // b.any
    430040e0:	12800454 	mov	w20, #0xffffffdd            	// #-35
    430040e4:	17ffffce 	b	4300401c <plat_get_rnd+0xa4>
    430040e8:	128002b4 	mov	w20, #0xffffffea            	// #-22
    430040ec:	17ffffce 	b	43004024 <plat_get_rnd+0xac>

00000000430040f0 <mt_mpidr_to_core_pos>:
    430040f0:	14000166 	b	43004688 <plat_core_pos_by_mpidr>

00000000430040f4 <mt_gic_rdistif_init>:
    430040f4:	a9bf7bfd 	stp	x29, x30, [sp, #-16]!
    430040f8:	910003fd 	mov	x29, sp
    430040fc:	940005da 	bl	43005864 <plat_my_core_pos>
    43004100:	b0000021 	adrp	x1, 43009000 <__STACKS_START__+0xf80>
    43004104:	12800002 	mov	w2, #0xffffffff            	// #-1
    43004108:	f9430421 	ldr	x1, [x1, #1544]
    4300410c:	f9401021 	ldr	x1, [x1, #32]
    43004110:	f8605821 	ldr	x1, [x1, w0, uxtw #3]
    43004114:	d2801000 	mov	x0, #0x80                  	// #128
    43004118:	f2a00020 	movk	x0, #0x1, lsl #16
    4300411c:	b8206822 	str	w2, [x1, x0]
    43004120:	91320000 	add	x0, x0, #0xc80
    43004124:	b820683f 	str	wzr, [x1, x0]
    43004128:	a8c17bfd 	ldp	x29, x30, [sp], #16
    4300412c:	d65f03c0 	ret

0000000043004130 <mt_gic_cpuif_enable>:
    43004130:	a9bf7bfd 	stp	x29, x30, [sp, #-16]!
    43004134:	910003fd 	mov	x29, sp
    43004138:	940005cb 	bl	43005864 <plat_my_core_pos>
    4300413c:	a8c17bfd 	ldp	x29, x30, [sp], #16
    43004140:	17fff5c8 	b	43001860 <gicv3_cpuif_enable>

0000000043004144 <plat_mt_gic_init>:
    43004144:	a9bf7bfd 	stp	x29, x30, [sp, #-16]!
    43004148:	b0000020 	adrp	x0, 43009000 <__STACKS_START__+0xf80>
    4300414c:	911d8001 	add	x1, x0, #0x760
    43004150:	910003fd 	mov	x29, sp
    43004154:	d2a18122 	mov	x2, #0xc090000             	// #201916416
    43004158:	f903b002 	str	x2, [x0, #1888]
    4300415c:	d2a18160 	mov	x0, #0xc0b0000             	// #202047488
    43004160:	f9000420 	str	x0, [x1, #8]
    43004164:	90000020 	adrp	x0, 43008000 <__RO_END_UNALIGNED__>
    43004168:	9100a000 	add	x0, x0, #0x28
    4300416c:	97fff585 	bl	43001780 <gicv3_driver_init>
    43004170:	97fff59f 	bl	430017ec <gicv3_distif_init>
    43004174:	97ffffef 	bl	43004130 <mt_gic_cpuif_enable>
    43004178:	a8c17bfd 	ldp	x29, x30, [sp], #16
    4300417c:	17ffffde 	b	430040f4 <mt_gic_rdistif_init>

0000000043004180 <plat_cpu_standby>:
    43004180:	d53e1100 	mrs	x0, scr_el3
    43004184:	321f0001 	orr	w1, w0, #0x2
    43004188:	d51e1101 	msr	scr_el3, x1
    4300418c:	d5033fdf 	isb
    43004190:	d5033f9f 	dsb	sy
    43004194:	d503207f 	wfi
    43004198:	92407c00 	and	x0, x0, #0xffffffff
    4300419c:	d51e1100 	msr	scr_el3, x0
    430041a0:	d65f03c0 	ret

00000000430041a4 <plat_power_domain_suspend_finish>:
    430041a4:	d53800a1 	mrs	x1, mpidr_el1
    430041a8:	39400000 	ldrb	w0, [x0]
    430041ac:	7100041f 	cmp	w0, #0x1
    430041b0:	54000260 	b.eq	430041fc <plat_power_domain_suspend_finish+0x58>  // b.none
    430041b4:	12001c20 	and	w0, w1, #0xff
    430041b8:	53083c21 	ubfx	w1, w1, #8, #8
    430041bc:	52801402 	mov	w2, #0xa0                  	// #160
    430041c0:	9ba27c21 	umull	x1, w1, w2
    430041c4:	52800a02 	mov	w2, #0x50                  	// #80
    430041c8:	9ba20400 	umaddl	x0, w0, w2, x1
    430041cc:	b0000021 	adrp	x1, 43009000 <__STACKS_START__+0xf80>
    430041d0:	911ea021 	add	x1, x1, #0x7a8
    430041d4:	8b010000 	add	x0, x0, x1
    430041d8:	a9400801 	ldp	x1, x2, [x0]
    430041dc:	d518e101 	msr	cntkctl_el1, x1
    430041e0:	d51be242 	msr	cntp_cval_el0, x2
    430041e4:	a9410801 	ldp	x1, x2, [x0, #16]
    430041e8:	d51be201 	msr	cntp_tval_el0, x1
    430041ec:	d51be222 	msr	cntp_ctl_el0, x2
    430041f0:	a9420801 	ldp	x1, x2, [x0, #32]
    430041f4:	d51be301 	msr	cntv_tval_el0, x1
    430041f8:	d51be322 	msr	cntv_ctl_el0, x2
    430041fc:	d65f03c0 	ret

0000000043004200 <plat_get_sys_suspend_power_state>:
    43004200:	52800041 	mov	w1, #0x2                   	// #2
    43004204:	39000001 	strb	w1, [x0]
    43004208:	39000401 	strb	w1, [x0, #1]
    4300420c:	39000801 	strb	w1, [x0, #2]
    43004210:	d65f03c0 	ret

0000000043004214 <plat_validate_power_state>:
    43004214:	d3586402 	ubfx	x2, x0, #24, #2
    43004218:	71000c5f 	cmp	w2, #0x3
    4300421c:	54000061 	b.ne	43004228 <plat_validate_power_state+0x14>  // b.any
    43004220:	12800020 	mov	w0, #0xfffffffe            	// #-2
    43004224:	d65f03c0 	ret
    43004228:	37800100 	tbnz	w0, #16, 43004248 <plat_validate_power_state+0x34>
    4300422c:	35ffffa2 	cbnz	w2, 43004220 <plat_validate_power_state+0xc>
    43004230:	52800022 	mov	w2, #0x1                   	// #1
    43004234:	39000022 	strb	w2, [x1]
    43004238:	72003c1f 	tst	w0, #0xffff
    4300423c:	54ffff21 	b.ne	43004220 <plat_validate_power_state+0xc>  // b.any
    43004240:	52800000 	mov	w0, #0x0                   	// #0
    43004244:	17fffff8 	b	43004224 <plat_validate_power_state+0x10>
    43004248:	52800043 	mov	w3, #0x2                   	// #2
    4300424c:	39000023 	strb	w3, [x1]
    43004250:	34ffff42 	cbz	w2, 43004238 <plat_validate_power_state+0x24>
    43004254:	39000423 	strb	w3, [x1, #1]
    43004258:	7100085f 	cmp	w2, #0x2
    4300425c:	54fffee1 	b.ne	43004238 <plat_validate_power_state+0x24>  // b.any
    43004260:	39000822 	strb	w2, [x1, #2]
    43004264:	17fffff5 	b	43004238 <plat_validate_power_state+0x24>

0000000043004268 <plat_system_reset2>:
    43004268:	d29a0000 	mov	x0, #0xd000                	// #53248
    4300426c:	a9bf7bfd 	stp	x29, x30, [sp, #-16]!
    43004270:	f2a20020 	movk	x0, #0x1001, lsl #16
    43004274:	910003fd 	mov	x29, sp
    43004278:	b9400002 	ldr	w2, [x0]
    4300427c:	52800021 	mov	w1, #0x1                   	// #1
    43004280:	d1400400 	sub	x0, x0, #0x1, lsl #12
    43004284:	72a44001 	movk	w1, #0x2200, lsl #16
    43004288:	2a010042 	orr	w2, w2, w1
    4300428c:	b9100002 	str	w2, [x0, #4096]
    43004290:	51000421 	sub	w1, w1, #0x1
    43004294:	12800903 	mov	w3, #0xffffffb7            	// #-73
    43004298:	b9400002 	ldr	w2, [x0]
    4300429c:	0a030042 	and	w2, w2, w3
    430042a0:	2a010042 	orr	w2, w2, w1
    430042a4:	b9000002 	str	w2, [x0]
    430042a8:	11001021 	add	w1, w1, #0x4
    430042ac:	b9400002 	ldr	w2, [x0]
    430042b0:	2a010041 	orr	w1, w2, w1
    430042b4:	b9000001 	str	w1, [x0]
    430042b8:	52832e22 	mov	w2, #0x1971                	// #6513
    430042bc:	b9400801 	ldr	w1, [x0, #8]
    430042c0:	2a020021 	orr	w1, w1, w2
    430042c4:	b9000801 	str	w1, [x0, #8]
    430042c8:	52824122 	mov	w2, #0x1209                	// #4617
    430042cc:	b9401401 	ldr	w1, [x0, #20]
    430042d0:	2a020021 	orr	w1, w1, w2
    430042d4:	b9001401 	str	w1, [x0, #20]
    430042d8:	d503207f 	wfi
    430042dc:	940001e9 	bl	43004a80 <console_flush>
    430042e0:	94000588 	bl	43005900 <do_panic>

00000000430042e4 <plat_system_reset>:
    430042e4:	d2980000 	mov	x0, #0xc000                	// #49152
    430042e8:	a9bf7bfd 	stp	x29, x30, [sp, #-16]!
    430042ec:	f2a20020 	movk	x0, #0x1001, lsl #16
    430042f0:	910003fd 	mov	x29, sp
    430042f4:	b9400001 	ldr	w1, [x0]
    430042f8:	12800902 	mov	w2, #0xffffffb7            	// #-73
    430042fc:	52832e23 	mov	w3, #0x1971                	// #6513
    43004300:	0a020021 	and	w1, w1, w2
    43004304:	52a44002 	mov	w2, #0x22000000            	// #570425344
    43004308:	2a020021 	orr	w1, w1, w2
    4300430c:	b9000001 	str	w1, [x0]
    43004310:	11001042 	add	w2, w2, #0x4
    43004314:	b9400001 	ldr	w1, [x0]
    43004318:	2a020022 	orr	w2, w1, w2
    4300431c:	aa0003e1 	mov	x1, x0
    43004320:	b8008422 	str	w2, [x1], #8
    43004324:	b9400802 	ldr	w2, [x0, #8]
    43004328:	2a030042 	orr	w2, w2, w3
    4300432c:	b9000802 	str	w2, [x0, #8]
    43004330:	52824122 	mov	w2, #0x1209                	// #4617
    43004334:	b9400c20 	ldr	w0, [x1, #12]
    43004338:	2a020000 	orr	w0, w0, w2
    4300433c:	b9000c20 	str	w0, [x1, #12]
    43004340:	d503207f 	wfi
    43004344:	940001cf 	bl	43004a80 <console_flush>
    43004348:	9400056e 	bl	43005900 <do_panic>

000000004300434c <plat_system_off>:
    4300434c:	a9bf7bfd 	stp	x29, x30, [sp, #-16]!
    43004350:	910003fd 	mov	x29, sp
    43004354:	d503207f 	wfi
    43004358:	940001ca 	bl	43004a80 <console_flush>
    4300435c:	94000569 	bl	43005900 <do_panic>

0000000043004360 <plat_power_domain_suspend>:
    43004360:	d53800a2 	mrs	x2, mpidr_el1
    43004364:	12001c41 	and	w1, w2, #0xff
    43004368:	53083c42 	ubfx	w2, w2, #8, #8
    4300436c:	52801403 	mov	w3, #0xa0                  	// #160
    43004370:	9ba37c42 	umull	x2, w2, w3
    43004374:	52800a03 	mov	w3, #0x50                  	// #80
    43004378:	9ba30821 	umaddl	x1, w1, w3, x2
    4300437c:	b0000022 	adrp	x2, 43009000 <__STACKS_START__+0xf80>
    43004380:	911ea042 	add	x2, x2, #0x7a8
    43004384:	8b020021 	add	x1, x1, x2
    43004388:	d538e102 	mrs	x2, cntkctl_el1
    4300438c:	d53be243 	mrs	x3, cntp_cval_el0
    43004390:	a9000c22 	stp	x2, x3, [x1]
    43004394:	d53be202 	mrs	x2, cntp_tval_el0
    43004398:	d53be223 	mrs	x3, cntp_ctl_el0
    4300439c:	a9010c22 	stp	x2, x3, [x1, #16]
    430043a0:	d53be302 	mrs	x2, cntv_tval_el0
    430043a4:	d53be323 	mrs	x3, cntv_ctl_el0
    430043a8:	a9020c22 	stp	x2, x3, [x1, #32]
    430043ac:	d53be221 	mrs	x1, cntp_ctl_el0
    430043b0:	927f7821 	and	x1, x1, #0xfffffffe
    430043b4:	d51be221 	msr	cntp_ctl_el0, x1
    430043b8:	39400800 	ldrb	w0, [x0, #2]
    430043bc:	7100081f 	cmp	w0, #0x2
    430043c0:	54000041 	b.ne	430043c8 <plat_power_domain_suspend+0x68>  // b.any
    430043c4:	17fffec9 	b	43003ee8 <generic_timer_backup>
    430043c8:	d65f03c0 	ret

00000000430043cc <plat_power_domain_off>:
    430043cc:	d53800a0 	mrs	x0, mpidr_el1
    430043d0:	52800022 	mov	w2, #0x1                   	// #1
    430043d4:	12001c00 	and	w0, w0, #0xff
    430043d8:	52800001 	mov	w1, #0x0                   	// #0
    430043dc:	17fffe7e 	b	43003dd4 <spmc_cpu_corex_onoff>

00000000430043e0 <plat_power_domain_on>:
    430043e0:	d2800781 	mov	x1, #0x3c                  	// #60
    430043e4:	529e0002 	mov	w2, #0xf000                	// #61440
    430043e8:	f2a20801 	movk	x1, #0x1040, lsl #16
    430043ec:	f2401c00 	ands	x0, x0, #0xff
    430043f0:	b9000022 	str	w2, [x1]
    430043f4:	540001e0 	b.eq	43004430 <plat_power_domain_on+0x50>  // b.none
    430043f8:	f100041f 	cmp	x0, #0x1
    430043fc:	540001e1 	b.ne	43004438 <plat_power_domain_on+0x58>  // b.any
    43004400:	91001021 	add	x1, x1, #0x4
    43004404:	a9bf7bfd 	stp	x29, x30, [sp, #-16]!
    43004408:	b0000022 	adrp	x2, 43009000 <__STACKS_START__+0xf80>
    4300440c:	910003fd 	mov	x29, sp
    43004410:	f943d042 	ldr	x2, [x2, #1952]
    43004414:	b9000022 	str	w2, [x1]
    43004418:	52800002 	mov	w2, #0x0                   	// #0
    4300441c:	52800021 	mov	w1, #0x1                   	// #1
    43004420:	97fffe6d 	bl	43003dd4 <spmc_cpu_corex_onoff>
    43004424:	52800000 	mov	w0, #0x0                   	// #0
    43004428:	a8c17bfd 	ldp	x29, x30, [sp], #16
    4300442c:	d65f03c0 	ret
    43004430:	d1001021 	sub	x1, x1, #0x4
    43004434:	17fffff4 	b	43004404 <plat_power_domain_on+0x24>
    43004438:	128000c0 	mov	w0, #0xfffffff9            	// #-7
    4300443c:	d65f03c0 	ret

0000000043004440 <mtk_system_pwr_domain_resume>:
    43004440:	52984002 	mov	w2, #0xc200                	// #49664
    43004444:	528b4001 	mov	w1, #0x5a00                	// #23040
    43004448:	d2840000 	mov	x0, #0x2000                	// #8192
    4300444c:	b0000024 	adrp	x4, 43009000 <__STACKS_START__+0xf80>
    43004450:	52800023 	mov	w3, #0x1                   	// #1
    43004454:	911dc084 	add	x4, x4, #0x770
    43004458:	72a00022 	movk	w2, #0x1, lsl #16
    4300445c:	72a04c41 	movk	w1, #0x262, lsl #16
    43004460:	f2a22000 	movk	x0, #0x1100, lsl #16
    43004464:	140004e6 	b	430057fc <console_hsuart_register>

0000000043004468 <plat_power_domain_on_finish>:
    43004468:	a9be7bfd 	stp	x29, x30, [sp, #-32]!
    4300446c:	910003fd 	mov	x29, sp
    43004470:	f9000bf3 	str	x19, [sp, #16]
    43004474:	aa0003f3 	mov	x19, x0
    43004478:	39400800 	ldrb	w0, [x0, #2]
    4300447c:	7100081f 	cmp	w0, #0x2
    43004480:	540000a0 	b.eq	43004494 <plat_power_domain_on_finish+0x2c>  // b.none
    43004484:	97ffff2b 	bl	43004130 <mt_gic_cpuif_enable>
    43004488:	f9400bf3 	ldr	x19, [sp, #16]
    4300448c:	a8c27bfd 	ldp	x29, x30, [sp], #32
    43004490:	17ffff19 	b	430040f4 <mt_gic_rdistif_init>
    43004494:	97ffffeb 	bl	43004440 <mtk_system_pwr_domain_resume>
    43004498:	39400a60 	ldrb	w0, [x19, #2]
    4300449c:	7100081f 	cmp	w0, #0x2
    430044a0:	54ffff21 	b.ne	43004484 <plat_power_domain_on_finish+0x1c>  // b.any
    430044a4:	f9400bf3 	ldr	x19, [sp, #16]
    430044a8:	a8c27bfd 	ldp	x29, x30, [sp], #32
    430044ac:	d65f03c0 	ret

00000000430044b0 <plat_setup_psci_ops>:
    430044b0:	d0000002 	adrp	x2, 43006000 <efuse_write+0x268>
    430044b4:	91224042 	add	x2, x2, #0x890
    430044b8:	f9000022 	str	x2, [x1]
    430044bc:	b0000021 	adrp	x1, 43009000 <__STACKS_START__+0xf80>
    430044c0:	f903d020 	str	x0, [x1, #1952]
    430044c4:	52800000 	mov	w0, #0x0                   	// #0
    430044c8:	d65f03c0 	ret

00000000430044cc <plat_get_target_pwr_state>:
    430044cc:	d2800003 	mov	x3, #0x0                   	// #0
    430044d0:	52800044 	mov	w4, #0x2                   	// #2
    430044d4:	38636820 	ldrb	w0, [x1, x3]
    430044d8:	91000463 	add	x3, x3, #0x1
    430044dc:	6b04001f 	cmp	w0, w4
    430044e0:	1a849000 	csel	w0, w0, w4, ls	// ls = plast
    430044e4:	12001c04 	and	w4, w0, #0xff
    430044e8:	6b03005f 	cmp	w2, w3
    430044ec:	54ffff41 	b.ne	430044d4 <plat_get_target_pwr_state+0x8>  // b.any
    430044f0:	d65f03c0 	ret

00000000430044f4 <mt_sip_set_authorized_sreg>:
    430044f4:	52812082 	mov	w2, #0x904                 	// #2308
    430044f8:	72a28002 	movk	w2, #0x1400, lsl #16
    430044fc:	6b02001f 	cmp	w0, w2
    43004500:	540000c1 	b.ne	43004518 <mt_sip_set_authorized_sreg+0x24>  // b.any
    43004504:	d2812080 	mov	x0, #0x904                 	// #2308
    43004508:	f2a28000 	movk	x0, #0x1400, lsl #16
    4300450c:	b9000001 	str	w1, [x0]
    43004510:	d2800000 	mov	x0, #0x0                   	// #0
    43004514:	d65f03c0 	ret
    43004518:	92800000 	mov	x0, #0xffffffffffffffff    	// #-1
    4300451c:	17fffffe 	b	43004514 <mt_sip_set_authorized_sreg+0x20>

0000000043004520 <mediatek_plat_sip_handler>:
    43004520:	a9bd7bfd 	stp	x29, x30, [sp, #-48]!
    43004524:	2a0003e5 	mov	w5, w0
    43004528:	aa0103e0 	mov	x0, x1
    4300452c:	910003fd 	mov	x29, sp
    43004530:	a90153f3 	stp	x19, x20, [sp, #16]
    43004534:	aa0203f4 	mov	x20, x2
    43004538:	aa0603f3 	mov	x19, x6
    4300453c:	29047fff 	stp	wzr, wzr, [sp, #32]
    43004540:	290513e3 	stp	w3, w4, [sp, #40]
    43004544:	5280a063 	mov	w3, #0x503                 	// #1283
    43004548:	72b84003 	movk	w3, #0xc200, lsl #16
    4300454c:	6b0300bf 	cmp	w5, w3
    43004550:	54000720 	b.eq	43004634 <mediatek_plat_sip_handler+0x114>  // b.none
    43004554:	540002a8 	b.hi	430045a8 <mediatek_plat_sip_handler+0x88>  // b.pmore
    43004558:	52808081 	mov	w1, #0x404                 	// #1028
    4300455c:	72b04001 	movk	w1, #0x8200, lsl #16
    43004560:	6b0100bf 	cmp	w5, w1
    43004564:	54000128 	b.hi	43004588 <mediatek_plat_sip_handler+0x68>  // b.pmore
    43004568:	51000c21 	sub	w1, w1, #0x3
    4300456c:	6b0100bf 	cmp	w5, w1
    43004570:	da9f83e0 	csetm	x0, ls	// ls = plast
    43004574:	f9000260 	str	x0, [x19]
    43004578:	aa1303e0 	mov	x0, x19
    4300457c:	a94153f3 	ldp	x19, x20, [sp, #16]
    43004580:	a8c37bfd 	ldp	x29, x30, [sp], #48
    43004584:	d65f03c0 	ret
    43004588:	51000863 	sub	w3, w3, #0x2
    4300458c:	6b0300bf 	cmp	w5, w3
    43004590:	54000320 	b.eq	430045f4 <mediatek_plat_sip_handler+0xd4>  // b.none
    43004594:	11000463 	add	w3, w3, #0x1
    43004598:	6b0300bf 	cmp	w5, w3
    4300459c:	54000380 	b.eq	4300460c <mediatek_plat_sip_handler+0xec>  // b.none
    430045a0:	92800000 	mov	x0, #0xffffffffffffffff    	// #-1
    430045a4:	17fffff4 	b	43004574 <mediatek_plat_sip_handler+0x54>
    430045a8:	11000c63 	add	w3, w3, #0x3
    430045ac:	6b0300bf 	cmp	w5, w3
    430045b0:	54000620 	b.eq	43004674 <mediatek_plat_sip_handler+0x154>  // b.none
    430045b4:	54000128 	b.hi	430045d8 <mediatek_plat_sip_handler+0xb8>  // b.pmore
    430045b8:	51000863 	sub	w3, w3, #0x2
    430045bc:	b0000021 	adrp	x1, 43009000 <__STACKS_START__+0xf80>
    430045c0:	6b0300bf 	cmp	w5, w3
    430045c4:	912ef021 	add	x1, x1, #0xbbc
    430045c8:	540004c1 	b.ne	43004660 <mediatek_plat_sip_handler+0x140>  // b.any
    430045cc:	52800402 	mov	w2, #0x20                  	// #32
    430045d0:	97fffc1f 	bl	4300364c <mtk_efuse_write>
    430045d4:	14000025 	b	43004668 <mediatek_plat_sip_handler+0x148>
    430045d8:	11012863 	add	w3, w3, #0x4a
    430045dc:	6b0300bf 	cmp	w5, w3
    430045e0:	54fffe01 	b.ne	430045a0 <mediatek_plat_sip_handler+0x80>  // b.any
    430045e4:	910083e0 	add	x0, sp, #0x20
    430045e8:	97fffe64 	bl	43003f78 <plat_get_rnd>
    430045ec:	b94023e1 	ldr	w1, [sp, #32]
    430045f0:	14000005 	b	43004604 <mediatek_plat_sip_handler+0xe4>
    430045f4:	910093e1 	add	x1, sp, #0x24
    430045f8:	97fffbbc 	bl	430034e8 <mtk_efuse_get_len>
    430045fc:	b94027e1 	ldr	w1, [sp, #36]
    43004600:	a9017e7f 	stp	xzr, xzr, [x19, #16]
    43004604:	f9000661 	str	x1, [x19, #8]
    43004608:	14000009 	b	4300462c <mediatek_plat_sip_handler+0x10c>
    4300460c:	2a0203e3 	mov	w3, w2
    43004610:	9100a3e1 	add	x1, sp, #0x28
    43004614:	2a0003e2 	mov	w2, w0
    43004618:	b0000020 	adrp	x0, 43009000 <__STACKS_START__+0xf80>
    4300461c:	912ef000 	add	x0, x0, #0xbbc
    43004620:	97fffbc7 	bl	4300353c <mtk_efuse_send_data>
    43004624:	a9017e7f 	stp	xzr, xzr, [x19, #16]
    43004628:	f9000674 	str	x20, [x19, #8]
    4300462c:	2a0003e0 	mov	w0, w0
    43004630:	17ffffd1 	b	43004574 <mediatek_plat_sip_handler+0x54>
    43004634:	2a0203e3 	mov	w3, w2
    43004638:	9100a3e0 	add	x0, sp, #0x28
    4300463c:	2a0103e2 	mov	w2, w1
    43004640:	b0000021 	adrp	x1, 43009000 <__STACKS_START__+0xf80>
    43004644:	912ef021 	add	x1, x1, #0xbbc
    43004648:	97fffbcc 	bl	43003578 <mtk_efuse_get_data>
    4300464c:	b9402fe1 	ldr	w1, [sp, #44]
    43004650:	f9000e61 	str	x1, [x19, #24]
    43004654:	b9402be1 	ldr	w1, [sp, #40]
    43004658:	f9000a61 	str	x1, [x19, #16]
    4300465c:	17fffff3 	b	43004628 <mediatek_plat_sip_handler+0x108>
    43004660:	52800402 	mov	w2, #0x20                  	// #32
    43004664:	97fffbd4 	bl	430035b4 <mtk_efuse_read>
    43004668:	a900fe7f 	stp	xzr, xzr, [x19, #8]
    4300466c:	f9000e7f 	str	xzr, [x19, #24]
    43004670:	17ffffef 	b	4300462c <mediatek_plat_sip_handler+0x10c>
    43004674:	97fffc13 	bl	430036c0 <mtk_efuse_disable>
    43004678:	17fffffc 	b	43004668 <mediatek_plat_sip_handler+0x148>

000000004300467c <plat_get_power_domain_tree_desc>:
    4300467c:	f0000000 	adrp	x0, 43007000 <gpt_soc_data+0x1ba>
    43004680:	91057800 	add	x0, x0, #0x15e
    43004684:	d65f03c0 	ret

0000000043004688 <plat_core_pos_by_mpidr>:
    43004688:	92409c00 	and	x0, x0, #0xffffffffff
    4300468c:	d29fffe1 	mov	x1, #0xffff                	// #65535
    43004690:	9260dc00 	and	x0, x0, #0xffffffff00ffffff
    43004694:	eb01001f 	cmp	x0, x1
    43004698:	540000e8 	b.hi	430046b4 <plat_core_pos_by_mpidr+0x2c>  // b.pmore
    4300469c:	12001c01 	and	w1, w0, #0xff
    430046a0:	eb4023ff 	cmp	xzr, x0, lsr #8
    430046a4:	54000081 	b.ne	430046b4 <plat_core_pos_by_mpidr+0x2c>  // b.any
    430046a8:	f27f181f 	tst	x0, #0xfe
    430046ac:	5a9f0020 	csinv	w0, w1, wzr, eq	// eq = none
    430046b0:	d65f03c0 	ret
    430046b4:	12800000 	mov	w0, #0xffffffff            	// #-1
    430046b8:	17fffffe 	b	430046b0 <plat_core_pos_by_mpidr+0x28>

00000000430046bc <arm_arch_svc_smc_handler>:
    430046bc:	a9be7bfd 	stp	x29, x30, [sp, #-32]!
    430046c0:	2a0003e2 	mov	w2, w0
    430046c4:	aa0103e0 	mov	x0, x1
    430046c8:	910003fd 	mov	x29, sp
    430046cc:	f9000bf3 	str	x19, [sp, #16]
    430046d0:	32013be1 	mov	w1, #0x80003fff            	// #-2147467265
    430046d4:	aa0603f3 	mov	x19, x6
    430046d8:	6b01005f 	cmp	w2, w1
    430046dc:	54000260 	b.eq	43004728 <arm_arch_svc_smc_handler+0x6c>  // b.none
    430046e0:	540001a8 	b.hi	43004714 <arm_arch_svc_smc_handler+0x58>  // b.pmore
    430046e4:	320107e3 	mov	w3, #0x80000001            	// #-2147483647
    430046e8:	6b03005f 	cmp	w2, w3
    430046ec:	540002e0 	b.eq	43004748 <arm_arch_svc_smc_handler+0x8c>  // b.none
    430046f0:	11000463 	add	w3, w3, #0x1
    430046f4:	6b03005f 	cmp	w2, w3
    430046f8:	540006e0 	b.eq	430047d4 <arm_arch_svc_smc_handler+0x118>  // b.none
    430046fc:	1287ffc0 	mov	w0, #0xffffc001            	// #-16383
    43004700:	0b000021 	add	w1, w1, w0
    43004704:	6b01005f 	cmp	w2, w1
    43004708:	54000180 	b.eq	43004738 <arm_arch_svc_smc_handler+0x7c>  // b.none
    4300470c:	92800000 	mov	x0, #0xffffffffffffffff    	// #-1
    43004710:	1400000c 	b	43004740 <arm_arch_svc_smc_handler+0x84>
    43004714:	52900020 	mov	w0, #0x8001                	// #32769
    43004718:	72afffe0 	movk	w0, #0x7fff, lsl #16
    4300471c:	0b000042 	add	w2, w2, w0
    43004720:	7100045f 	cmp	w2, #0x1
    43004724:	54ffff48 	b.hi	4300470c <arm_arch_svc_smc_handler+0x50>  // b.pmore
    43004728:	aa1303e0 	mov	x0, x19
    4300472c:	f9400bf3 	ldr	x19, [sp, #16]
    43004730:	a8c27bfd 	ldp	x29, x30, [sp], #32
    43004734:	d65f03c0 	ret
    43004738:	d2800040 	mov	x0, #0x2                   	// #2
    4300473c:	f2a00020 	movk	x0, #0x1, lsl #16
    43004740:	f9000260 	str	x0, [x19]
    43004744:	17fffff9 	b	43004728 <arm_arch_svc_smc_handler+0x6c>
    43004748:	32013be1 	mov	w1, #0x80003fff            	// #-2147467265
    4300474c:	eb01001f 	cmp	x0, x1
    43004750:	54000360 	b.eq	430047bc <arm_arch_svc_smc_handler+0x100>  // b.none
    43004754:	540001c8 	b.hi	4300478c <arm_arch_svc_smc_handler+0xd0>  // b.pmore
    43004758:	320107e1 	mov	w1, #0x80000001            	// #-2147483647
    4300475c:	eb01001f 	cmp	x0, x1
    43004760:	540000c8 	b.hi	43004778 <arm_arch_svc_smc_handler+0xbc>  // b.pmore
    43004764:	b2407be1 	mov	x1, #0x7fffffff            	// #2147483647
    43004768:	eb01001f 	cmp	x0, x1
    4300476c:	5a9f83e0 	csetm	w0, ls	// ls = plast
    43004770:	93407c00 	sxtw	x0, w0
    43004774:	17fffff3 	b	43004740 <arm_arch_svc_smc_handler+0x84>
    43004778:	91000421 	add	x1, x1, #0x1
    4300477c:	eb01001f 	cmp	x0, x1
    43004780:	540001a0 	b.eq	430047b4 <arm_arch_svc_smc_handler+0xf8>  // b.none
    43004784:	12800000 	mov	w0, #0xffffffff            	// #-1
    43004788:	17fffffa 	b	43004770 <arm_arch_svc_smc_handler+0xb4>
    4300478c:	32013fe1 	mov	w1, #0x80007fff            	// #-2147450881
    43004790:	eb01001f 	cmp	x0, x1
    43004794:	540001c0 	b.eq	430047cc <arm_arch_svc_smc_handler+0x110>  // b.none
    43004798:	320183e1 	mov	w1, #0x80008000            	// #-2147450880
    4300479c:	eb01001f 	cmp	x0, x1
    430047a0:	54ffff21 	b.ne	43004784 <arm_arch_svc_smc_handler+0xc8>  // b.any
    430047a4:	940002fe 	bl	4300539c <check_wa_cve_2017_5715>
    430047a8:	7100001f 	cmp	w0, #0x0
    430047ac:	1a9f17e0 	cset	w0, eq	// eq = none
    430047b0:	17fffff0 	b	43004770 <arm_arch_svc_smc_handler+0xb4>
    430047b4:	97fffc5e 	bl	4300392c <plat_is_smccc_feature_available>
    430047b8:	17ffffee 	b	43004770 <arm_arch_svc_smc_handler+0xb4>
    430047bc:	94000300 	bl	430053bc <check_smccc_arch_wa3_applies>
    430047c0:	34ffff20 	cbz	w0, 430047a4 <arm_arch_svc_smc_handler+0xe8>
    430047c4:	52800000 	mov	w0, #0x0                   	// #0
    430047c8:	17ffffea 	b	43004770 <arm_arch_svc_smc_handler+0xb4>
    430047cc:	12800020 	mov	w0, #0xfffffffe            	// #-2
    430047d0:	17ffffe8 	b	43004770 <arm_arch_svc_smc_handler+0xb4>
    430047d4:	f100041f 	cmp	x0, #0x1
    430047d8:	54000061 	b.ne	430047e4 <arm_arch_svc_smc_handler+0x128>  // b.any
    430047dc:	97fffc5c 	bl	4300394c <plat_get_soc_revision>
    430047e0:	17ffffe4 	b	43004770 <arm_arch_svc_smc_handler+0xb4>
    430047e4:	b5000060 	cbnz	x0, 430047f0 <arm_arch_svc_smc_handler+0x134>
    430047e8:	97fffc56 	bl	43003940 <plat_get_soc_version>
    430047ec:	17ffffe1 	b	43004770 <arm_arch_svc_smc_handler+0xb4>
    430047f0:	12800040 	mov	w0, #0xfffffffd            	// #-3
    430047f4:	17ffffdf 	b	43004770 <arm_arch_svc_smc_handler+0xb4>

00000000430047f8 <std_svc_smc_handler>:
    430047f8:	a9be7bfd 	stp	x29, x30, [sp, #-32]!
    430047fc:	910003fd 	mov	x29, sp
    43004800:	f9000bf3 	str	x19, [sp, #16]
    43004804:	aa0603f3 	mov	x19, x6
    43004808:	37f000a0 	tbnz	w0, #30, 4300481c <std_svc_smc_handler+0x24>
    4300480c:	92407c21 	and	x1, x1, #0xffffffff
    43004810:	92407c42 	and	x2, x2, #0xffffffff
    43004814:	92407c63 	and	x3, x3, #0xffffffff
    43004818:	92407c84 	and	x4, x4, #0xffffffff
    4300481c:	721b281f 	tst	w0, #0xffe0
    43004820:	54000101 	b.ne	43004840 <std_svc_smc_handler+0x48>  // b.any
    43004824:	aa1303e6 	mov	x6, x19
    43004828:	97fff82b 	bl	430028d4 <psci_smc_handler>
    4300482c:	f9000260 	str	x0, [x19]
    43004830:	aa1303e0 	mov	x0, x19
    43004834:	f9400bf3 	ldr	x19, [sp, #16]
    43004838:	a8c27bfd 	ldp	x29, x30, [sp], #32
    4300483c:	d65f03c0 	ret
    43004840:	529fe021 	mov	w1, #0xff01                	// #65281
    43004844:	72b08001 	movk	w1, #0x8400, lsl #16
    43004848:	6b01001f 	cmp	w0, w1
    4300484c:	54000120 	b.eq	43004870 <std_svc_smc_handler+0x78>  // b.none
    43004850:	11000821 	add	w1, w1, #0x2
    43004854:	6b01001f 	cmp	w0, w1
    43004858:	54000240 	b.eq	430048a0 <std_svc_smc_handler+0xa8>  // b.none
    4300485c:	51000c21 	sub	w1, w1, #0x3
    43004860:	6b01001f 	cmp	w0, w1
    43004864:	d2800240 	mov	x0, #0x12                  	// #18
    43004868:	da9f0000 	csinv	x0, x0, xzr, eq	// eq = none
    4300486c:	17fffff0 	b	4300482c <std_svc_smc_handler+0x34>
    43004870:	d2882ac0 	mov	x0, #0x4156                	// #16726
    43004874:	f2bc5ec0 	movk	x0, #0xe2f6, lsl #16
    43004878:	f9000e60 	str	x0, [x19, #24]
    4300487c:	d285b5c0 	mov	x0, #0x2dae                	// #11694
    43004880:	f2bf7800 	movk	x0, #0xfbc0, lsl #16
    43004884:	f9000a60 	str	x0, [x19, #16]
    43004888:	d29f0c60 	mov	x0, #0xf863                	// #63587
    4300488c:	f2a8fd00 	movk	x0, #0x47e8, lsl #16
    43004890:	f9000660 	str	x0, [x19, #8]
    43004894:	d2920b60 	mov	x0, #0x905b                	// #36955
    43004898:	f2a211a0 	movk	x0, #0x108d, lsl #16
    4300489c:	17ffffe4 	b	4300482c <std_svc_smc_handler+0x34>
    430048a0:	d2800020 	mov	x0, #0x1                   	// #1
    430048a4:	f9000660 	str	x0, [x19, #8]
    430048a8:	d2800000 	mov	x0, #0x0                   	// #0
    430048ac:	17ffffe0 	b	4300482c <std_svc_smc_handler+0x34>

00000000430048b0 <std_svc_setup>:
    430048b0:	a9bf7bfd 	stp	x29, x30, [sp, #-16]!
    430048b4:	529ffc00 	mov	w0, #0xffe0                	// #65504
    430048b8:	910003fd 	mov	x29, sp
    430048bc:	97fff25c 	bl	4300122c <get_arm_std_svc_args>
    430048c0:	97fff956 	bl	43002e18 <psci_setup>
    430048c4:	7100001f 	cmp	w0, #0x0
    430048c8:	1a9f07e0 	cset	w0, ne	// ne = any
    430048cc:	a8c17bfd 	ldp	x29, x30, [sp], #16
    430048d0:	d65f03c0 	ret

00000000430048d4 <print_entry_point_info>:
    430048d4:	d65f03c0 	ret

00000000430048d8 <tf_log>:
    430048d8:	a9b67bfd 	stp	x29, x30, [sp, #-160]!
    430048dc:	910003fd 	mov	x29, sp
    430048e0:	a90153f3 	stp	x19, x20, [sp, #16]
    430048e4:	aa0003f4 	mov	x20, x0
    430048e8:	a9068be1 	stp	x1, x2, [sp, #104]
    430048ec:	b0000021 	adrp	x1, 43009000 <__STACKS_START__+0xf80>
    430048f0:	a90793e3 	stp	x3, x4, [sp, #120]
    430048f4:	b94bdc21 	ldr	w1, [x1, #3036]
    430048f8:	a9089be5 	stp	x5, x6, [sp, #136]
    430048fc:	f9004fe7 	str	x7, [sp, #152]
    43004900:	39400000 	ldrb	w0, [x0]
    43004904:	6b00003f 	cmp	w1, w0
    43004908:	54000263 	b.cc	43004954 <tf_log+0x7c>  // b.lo, b.ul, b.last
    4300490c:	94000072 	bl	43004ad4 <plat_log_get_prefix>
    43004910:	aa0003f3 	mov	x19, x0
    43004914:	39400260 	ldrb	w0, [x19]
    43004918:	35000240 	cbnz	w0, 43004960 <tf_log+0x88>
    4300491c:	910283e0 	add	x0, sp, #0xa0
    43004920:	a90403e0 	stp	x0, x0, [sp, #64]
    43004924:	910183e0 	add	x0, sp, #0x60
    43004928:	f9002be0 	str	x0, [sp, #80]
    4300492c:	128006e0 	mov	w0, #0xffffffc8            	// #-56
    43004930:	b9005be0 	str	w0, [sp, #88]
    43004934:	b9005fff 	str	wzr, [sp, #92]
    43004938:	a94407e0 	ldp	x0, x1, [sp, #64]
    4300493c:	a90207e0 	stp	x0, x1, [sp, #32]
    43004940:	a94507e0 	ldp	x0, x1, [sp, #80]
    43004944:	a90307e0 	stp	x0, x1, [sp, #48]
    43004948:	910083e1 	add	x1, sp, #0x20
    4300494c:	91000680 	add	x0, x20, #0x1
    43004950:	94000690 	bl	43006390 <vprintf>
    43004954:	a94153f3 	ldp	x19, x20, [sp, #16]
    43004958:	a8ca7bfd 	ldp	x29, x30, [sp], #160
    4300495c:	d65f03c0 	ret
    43004960:	91000673 	add	x19, x19, #0x1
    43004964:	9400078c 	bl	43006794 <putchar>
    43004968:	17ffffeb 	b	43004914 <tf_log+0x3c>

000000004300496c <console_is_registered>:
    4300496c:	b0000021 	adrp	x1, 43009000 <__STACKS_START__+0xf80>
    43004970:	f9442421 	ldr	x1, [x1, #2120]
    43004974:	b5000061 	cbnz	x1, 43004980 <console_is_registered+0x14>
    43004978:	52800000 	mov	w0, #0x0                   	// #0
    4300497c:	d65f03c0 	ret
    43004980:	eb00003f 	cmp	x1, x0
    43004984:	54000060 	b.eq	43004990 <console_is_registered+0x24>  // b.none
    43004988:	f9400021 	ldr	x1, [x1]
    4300498c:	17fffffa 	b	43004974 <console_is_registered+0x8>
    43004990:	52800020 	mov	w0, #0x1                   	// #1
    43004994:	17fffffa 	b	4300497c <console_is_registered+0x10>

0000000043004998 <console_register>:
    43004998:	a9bf7bfd 	stp	x29, x30, [sp, #-16]!
    4300499c:	aa0003e2 	mov	x2, x0
    430049a0:	910003fd 	mov	x29, sp
    430049a4:	97fffff2 	bl	4300496c <console_is_registered>
    430049a8:	7100041f 	cmp	w0, #0x1
    430049ac:	540000a0 	b.eq	430049c0 <console_register+0x28>  // b.none
    430049b0:	b0000020 	adrp	x0, 43009000 <__STACKS_START__+0xf80>
    430049b4:	f9442401 	ldr	x1, [x0, #2120]
    430049b8:	f9000041 	str	x1, [x2]
    430049bc:	f9042402 	str	x2, [x0, #2120]
    430049c0:	52800020 	mov	w0, #0x1                   	// #1
    430049c4:	a8c17bfd 	ldp	x29, x30, [sp], #16
    430049c8:	d65f03c0 	ret

00000000430049cc <console_switch_state>:
    430049cc:	90000021 	adrp	x1, 43008000 <__RO_END_UNALIGNED__>
    430049d0:	39017020 	strb	w0, [x1, #92]
    430049d4:	d65f03c0 	ret

00000000430049d8 <console_putc>:
    430049d8:	a9bd7bfd 	stp	x29, x30, [sp, #-48]!
    430049dc:	910003fd 	mov	x29, sp
    430049e0:	a9025bf5 	stp	x21, x22, [sp, #32]
    430049e4:	2a0003f5 	mov	w21, w0
    430049e8:	b0000020 	adrp	x0, 43009000 <__STACKS_START__+0xf80>
    430049ec:	a90153f3 	stp	x19, x20, [sp, #16]
    430049f0:	90000036 	adrp	x22, 43008000 <__RO_END_UNALIGNED__>
    430049f4:	910172d6 	add	x22, x22, #0x5c
    430049f8:	f9442413 	ldr	x19, [x0, #2120]
    430049fc:	12800ff4 	mov	w20, #0xffffff80            	// #-128
    43004a00:	b50000d3 	cbnz	x19, 43004a18 <console_putc+0x40>
    43004a04:	a9425bf5 	ldp	x21, x22, [sp, #32]
    43004a08:	2a1403e0 	mov	w0, w20
    43004a0c:	a94153f3 	ldp	x19, x20, [sp, #16]
    43004a10:	a8c37bfd 	ldp	x29, x30, [sp], #48
    43004a14:	d65f03c0 	ret
    43004a18:	f9400660 	ldr	x0, [x19, #8]
    43004a1c:	394002c1 	ldrb	w1, [x22]
    43004a20:	ea00003f 	tst	x1, x0
    43004a24:	54000060 	b.eq	43004a30 <console_putc+0x58>  // b.none
    43004a28:	f9400a62 	ldr	x2, [x19, #16]
    43004a2c:	b50000a2 	cbnz	x2, 43004a40 <console_putc+0x68>
    43004a30:	2a1403e0 	mov	w0, w20
    43004a34:	f9400273 	ldr	x19, [x19]
    43004a38:	2a0003f4 	mov	w20, w0
    43004a3c:	17fffff1 	b	43004a00 <console_putc+0x28>
    43004a40:	71002abf 	cmp	w21, #0xa
    43004a44:	54000120 	b.eq	43004a68 <console_putc+0x90>  // b.none
    43004a48:	f9400a62 	ldr	x2, [x19, #16]
    43004a4c:	aa1303e1 	mov	x1, x19
    43004a50:	2a1503e0 	mov	w0, w21
    43004a54:	d63f0040 	blr	x2
    43004a58:	3102029f 	cmn	w20, #0x80
    43004a5c:	7a401280 	ccmp	w20, w0, #0x0, ne	// ne = any
    43004a60:	54fffe8d 	b.le	43004a30 <console_putc+0x58>
    43004a64:	17fffff4 	b	43004a34 <console_putc+0x5c>
    43004a68:	3647ff00 	tbz	w0, #8, 43004a48 <console_putc+0x70>
    43004a6c:	aa1303e1 	mov	x1, x19
    43004a70:	528001a0 	mov	w0, #0xd                   	// #13
    43004a74:	d63f0040 	blr	x2
    43004a78:	36fffe80 	tbz	w0, #31, 43004a48 <console_putc+0x70>
    43004a7c:	17fffff7 	b	43004a58 <console_putc+0x80>

0000000043004a80 <console_flush>:
    43004a80:	a9be7bfd 	stp	x29, x30, [sp, #-32]!
    43004a84:	b0000020 	adrp	x0, 43009000 <__STACKS_START__+0xf80>
    43004a88:	910003fd 	mov	x29, sp
    43004a8c:	a90153f3 	stp	x19, x20, [sp, #16]
    43004a90:	90000034 	adrp	x20, 43008000 <__RO_END_UNALIGNED__>
    43004a94:	91017294 	add	x20, x20, #0x5c
    43004a98:	f9442413 	ldr	x19, [x0, #2120]
    43004a9c:	b5000093 	cbnz	x19, 43004aac <console_flush+0x2c>
    43004aa0:	a94153f3 	ldp	x19, x20, [sp, #16]
    43004aa4:	a8c27bfd 	ldp	x29, x30, [sp], #32
    43004aa8:	d65f03c0 	ret
    43004aac:	f9400660 	ldr	x0, [x19, #8]
    43004ab0:	39400281 	ldrb	w1, [x20]
    43004ab4:	ea00003f 	tst	x1, x0
    43004ab8:	540000a0 	b.eq	43004acc <console_flush+0x4c>  // b.none
    43004abc:	f9401261 	ldr	x1, [x19, #32]
    43004ac0:	b4000061 	cbz	x1, 43004acc <console_flush+0x4c>
    43004ac4:	aa1303e0 	mov	x0, x19
    43004ac8:	d63f0020 	blr	x1
    43004acc:	f9400273 	ldr	x19, [x19]
    43004ad0:	17fffff3 	b	43004a9c <console_flush+0x1c>

0000000043004ad4 <plat_log_get_prefix>:
    43004ad4:	7100c81f 	cmp	w0, #0x32
    43004ad8:	52800641 	mov	w1, #0x32                  	// #50
    43004adc:	1a819000 	csel	w0, w0, w1, ls	// ls = plast
    43004ae0:	52800141 	mov	w1, #0xa                   	// #10
    43004ae4:	6b01001f 	cmp	w0, w1
    43004ae8:	1a812000 	csel	w0, w0, w1, cs	// cs = hs, nlast
    43004aec:	1ac10800 	udiv	w0, w0, w1
    43004af0:	d0000001 	adrp	x1, 43006000 <efuse_write+0x268>
    43004af4:	9124e021 	add	x1, x1, #0x938
    43004af8:	51000400 	sub	w0, w0, #0x1
    43004afc:	f8607820 	ldr	x0, [x1, x0, lsl #3]
    43004b00:	d65f03c0 	ret

0000000043004b04 <bl31_plat_runtime_setup>:
    43004b04:	52800040 	mov	w0, #0x2                   	// #2
    43004b08:	17ffffb1 	b	430049cc <console_switch_state>

0000000043004b0c <plat_default_ea_handler>:
    43004b0c:	a9bf7bfd 	stp	x29, x30, [sp, #-16]!
    43004b10:	910003fd 	mov	x29, sp
    43004b14:	d53e4000 	mrs	x0, spsr_el3
    43004b18:	97ffffda 	bl	43004a80 <console_flush>
    43004b1c:	94000379 	bl	43005900 <do_panic>

0000000043004b20 <init_xlation_table_inner>:
    43004b20:	a9bb7bfd 	stp	x29, x30, [sp, #-80]!
    43004b24:	910003fd 	mov	x29, sp
    43004b28:	a9025bf5 	stp	x21, x22, [sp, #32]
    43004b2c:	2a0303f5 	mov	w21, w3
    43004b30:	0b030c63 	add	w3, w3, w3, lsl #3
    43004b34:	a90153f3 	stp	x19, x20, [sp, #16]
    43004b38:	aa0203f4 	mov	x20, x2
    43004b3c:	528004e2 	mov	w2, #0x27                  	// #39
    43004b40:	4b030042 	sub	w2, w2, w3
    43004b44:	a90363f7 	stp	x23, x24, [sp, #48]
    43004b48:	d2800037 	mov	x23, #0x1                   	// #1
    43004b4c:	d2803ff8 	mov	x24, #0x1ff                 	// #511
    43004b50:	9ac222f7 	lsl	x23, x23, x2
    43004b54:	9ac22318 	lsl	x24, x24, x2
    43004b58:	a9046bf9 	stp	x25, x26, [sp, #64]
    43004b5c:	b27f7bf9 	mov	x25, #0xfffffffe            	// #4294967294
    43004b60:	a940cc04 	ldp	x4, x19, [x0, #8]
    43004b64:	b4000253 	cbz	x19, 43004bac <init_xlation_table_inner+0x8c>
    43004b68:	8b040273 	add	x19, x19, x4
    43004b6c:	d1000673 	sub	x19, x19, #0x1
    43004b70:	eb01027f 	cmp	x19, x1
    43004b74:	540001a2 	b.cs	43004ba8 <init_xlation_table_inner+0x88>  // b.hs, b.nlast
    43004b78:	91008000 	add	x0, x0, #0x20
    43004b7c:	ea18003f 	tst	x1, x24
    43004b80:	54000080 	b.eq	43004b90 <init_xlation_table_inner+0x70>  // b.none
    43004b84:	d1000422 	sub	x2, x1, #0x1
    43004b88:	eb19005f 	cmp	x2, x25
    43004b8c:	54fffea9 	b.ls	43004b60 <init_xlation_table_inner+0x40>  // b.plast
    43004b90:	a94153f3 	ldp	x19, x20, [sp, #16]
    43004b94:	a9425bf5 	ldp	x21, x22, [sp, #32]
    43004b98:	a94363f7 	ldp	x23, x24, [sp, #48]
    43004b9c:	a9446bf9 	ldp	x25, x26, [sp, #64]
    43004ba0:	a8c57bfd 	ldp	x29, x30, [sp], #80
    43004ba4:	d65f03c0 	ret
    43004ba8:	92800013 	mov	x19, #0xffffffffffffffff    	// #-1
    43004bac:	8b17003a 	add	x26, x1, x23
    43004bb0:	d1000746 	sub	x6, x26, #0x1
    43004bb4:	eb0400df 	cmp	x6, x4
    43004bb8:	540009e3 	b.cc	43004cf4 <init_xlation_table_inner+0x1d4>  // b.lo, b.ul, b.last
    43004bbc:	34000655 	cbz	w21, 43004c84 <init_xlation_table_inner+0x164>
    43004bc0:	aa0003e3 	mov	x3, x0
    43004bc4:	12800005 	mov	w5, #0xffffffff            	// #-1
    43004bc8:	f9400862 	ldr	x2, [x3, #16]
    43004bcc:	b4000282 	cbz	x2, 43004c1c <init_xlation_table_inner+0xfc>
    43004bd0:	f9400467 	ldr	x7, [x3, #8]
    43004bd4:	eb0700df 	cmp	x6, x7
    43004bd8:	54000223 	b.cc	43004c1c <init_xlation_table_inner+0xfc>  // b.lo, b.ul, b.last
    43004bdc:	8b070042 	add	x2, x2, x7
    43004be0:	d1000442 	sub	x2, x2, #0x1
    43004be4:	eb02003f 	cmp	x1, x2
    43004be8:	54000168 	b.hi	43004c14 <init_xlation_table_inner+0xf4>  // b.pmore
    43004bec:	35000085 	cbnz	w5, 43004bfc <init_xlation_table_inner+0xdc>
    43004bf0:	b9401868 	ldr	w8, [x3, #24]
    43004bf4:	6b16011f 	cmp	w8, w22
    43004bf8:	540000e0 	b.eq	43004c14 <init_xlation_table_inner+0xf4>  // b.none
    43004bfc:	eb07003f 	cmp	x1, x7
    43004c00:	54000423 	b.cc	43004c84 <init_xlation_table_inner+0x164>  // b.lo, b.ul, b.last
    43004c04:	eb0200df 	cmp	x6, x2
    43004c08:	540003e8 	b.hi	43004c84 <init_xlation_table_inner+0x164>  // b.pmore
    43004c0c:	b9401876 	ldr	w22, [x3, #24]
    43004c10:	52800005 	mov	w5, #0x0                   	// #0
    43004c14:	91008063 	add	x3, x3, #0x20
    43004c18:	17ffffec 	b	43004bc8 <init_xlation_table_inner+0xa8>
    43004c1c:	35000345 	cbnz	w5, 43004c84 <init_xlation_table_inner+0x164>
    43004c20:	f9400003 	ldr	x3, [x0]
    43004c24:	d37f7ed3 	ubfiz	x19, x22, #1, #32
    43004c28:	927b0273 	and	x19, x19, #0x20
    43004c2c:	71000ebf 	cmp	w21, #0x3
    43004c30:	8b030023 	add	x3, x1, x3
    43004c34:	d2800062 	mov	x2, #0x3                   	// #3
    43004c38:	cb040063 	sub	x3, x3, x4
    43004c3c:	9a9f0442 	csinc	x2, x2, xzr, eq	// eq = none
    43004c40:	aa030273 	orr	x19, x19, x3
    43004c44:	b0000023 	adrp	x3, 43009000 <__STACKS_START__+0xf80>
    43004c48:	f9453863 	ldr	x3, [x3, #2672]
    43004c4c:	aa030042 	orr	x2, x2, x3
    43004c50:	72000ac3 	ands	w3, w22, #0x7
    43004c54:	aa020273 	orr	x19, x19, x2
    43004c58:	d27d02c2 	eor	x2, x22, #0x8
    43004c5c:	d3430c42 	ubfx	x2, x2, #3, #1
    43004c60:	d379e042 	lsl	x2, x2, #7
    43004c64:	b2760042 	orr	x2, x2, #0x400
    43004c68:	aa020273 	orr	x19, x19, x2
    43004c6c:	540002c1 	b.ne	43004cc4 <init_xlation_table_inner+0x1a4>  // b.any
    43004c70:	b0000022 	adrp	x2, 43009000 <__STACKS_START__+0xf80>
    43004c74:	f9453c42 	ldr	x2, [x2, #2680]
    43004c78:	aa020273 	orr	x19, x19, x2
    43004c7c:	d2804082 	mov	x2, #0x204                 	// #516
    43004c80:	aa020273 	orr	x19, x19, x2
    43004c84:	b100067f 	cmn	x19, #0x1
    43004c88:	54000181 	b.ne	43004cb8 <init_xlation_table_inner+0x198>  // b.any
    43004c8c:	b0000025 	adrp	x5, 43009000 <__STACKS_START__+0xf80>
    43004c90:	d0000024 	adrp	x4, 4300a000 <xlat_tables>
    43004c94:	91000084 	add	x4, x4, #0x0
    43004c98:	b94be0a3 	ldr	w3, [x5, #3040]
    43004c9c:	d3747c62 	ubfiz	x2, x3, #12, #32
    43004ca0:	11000463 	add	w3, w3, #0x1
    43004ca4:	8b040042 	add	x2, x2, x4
    43004ca8:	b90be0a3 	str	w3, [x5, #3040]
    43004cac:	b2400453 	orr	x19, x2, #0x3
    43004cb0:	110006a3 	add	w3, w21, #0x1
    43004cb4:	97ffff9b 	bl	43004b20 <init_xlation_table_inner>
    43004cb8:	aa1a03e1 	mov	x1, x26
    43004cbc:	f8008693 	str	x19, [x20], #8
    43004cc0:	17ffffaf 	b	43004b7c <init_xlation_table_inner+0x5c>
    43004cc4:	52800502 	mov	w2, #0x28                  	// #40
    43004cc8:	6a0202df 	tst	w22, w2
    43004ccc:	54000080 	b.eq	43004cdc <init_xlation_table_inner+0x1bc>  // b.none
    43004cd0:	b0000022 	adrp	x2, 43009000 <__STACKS_START__+0xf80>
    43004cd4:	f9453c42 	ldr	x2, [x2, #2680]
    43004cd8:	aa020273 	orr	x19, x19, x2
    43004cdc:	b2780662 	orr	x2, x19, #0x300
    43004ce0:	7100087f 	cmp	w3, #0x2
    43004ce4:	d2804104 	mov	x4, #0x208                 	// #520
    43004ce8:	aa040273 	orr	x19, x19, x4
    43004cec:	9a821273 	csel	x19, x19, x2, ne	// ne = any
    43004cf0:	17ffffe5 	b	43004c84 <init_xlation_table_inner+0x164>
    43004cf4:	d2800013 	mov	x19, #0x0                   	// #0
    43004cf8:	17fffff0 	b	43004cb8 <init_xlation_table_inner+0x198>

0000000043004cfc <print_mmap>:
    43004cfc:	d65f03c0 	ret

0000000043004d00 <mmap_add_region>:
    43004d00:	b40006c2 	cbz	x2, 43004dd8 <mmap_add_region+0xd8>
    43004d04:	a9bc7bfd 	stp	x29, x30, [sp, #-64]!
    43004d08:	910003fd 	mov	x29, sp
    43004d0c:	a90153f3 	stp	x19, x20, [sp, #16]
    43004d10:	aa0103f3 	mov	x19, x1
    43004d14:	aa0203f4 	mov	x20, x2
    43004d18:	b0000021 	adrp	x1, 43009000 <__STACKS_START__+0xf80>
    43004d1c:	91214021 	add	x1, x1, #0x850
    43004d20:	a90363f7 	stp	x23, x24, [sp, #48]
    43004d24:	aa0003f7 	mov	x23, x0
    43004d28:	2a0303f8 	mov	w24, w3
    43004d2c:	a9025bf5 	stp	x21, x22, [sp, #32]
    43004d30:	aa0103e0 	mov	x0, x1
    43004d34:	f9400422 	ldr	x2, [x1, #8]
    43004d38:	91008021 	add	x1, x1, #0x20
    43004d3c:	eb13005f 	cmp	x2, x19
    43004d40:	54000062 	b.cs	43004d4c <mmap_add_region+0x4c>  // b.hs, b.nlast
    43004d44:	f85f0022 	ldur	x2, [x1, #-16]
    43004d48:	b5ffff42 	cbnz	x2, 43004d30 <mmap_add_region+0x30>
    43004d4c:	f9400401 	ldr	x1, [x0, #8]
    43004d50:	aa0003f5 	mov	x21, x0
    43004d54:	91008000 	add	x0, x0, #0x20
    43004d58:	eb13003f 	cmp	x1, x19
    43004d5c:	54000081 	b.ne	43004d6c <mmap_add_region+0x6c>  // b.any
    43004d60:	f85f0001 	ldur	x1, [x0, #-16]
    43004d64:	eb14003f 	cmp	x1, x20
    43004d68:	54ffff28 	b.hi	43004d4c <mmap_add_region+0x4c>  // b.pmore
    43004d6c:	b0000022 	adrp	x2, 43009000 <__STACKS_START__+0xf80>
    43004d70:	91294042 	add	x2, x2, #0xa50
    43004d74:	aa1503e1 	mov	x1, x21
    43004d78:	cb150042 	sub	x2, x2, x21
    43004d7c:	94000524 	bl	4300620c <memmove>
    43004d80:	d1000696 	sub	x22, x20, #0x1
    43004d84:	b0000020 	adrp	x0, 43009000 <__STACKS_START__+0xf80>
    43004d88:	8b1702d6 	add	x22, x22, x23
    43004d8c:	a9004eb7 	stp	x23, x19, [x21]
    43004d90:	f9454401 	ldr	x1, [x0, #2696]
    43004d94:	f9000ab4 	str	x20, [x21, #16]
    43004d98:	b9001ab8 	str	w24, [x21, #24]
    43004d9c:	eb16003f 	cmp	x1, x22
    43004da0:	54000042 	b.cs	43004da8 <mmap_add_region+0xa8>  // b.hs, b.nlast
    43004da4:	f9054416 	str	x22, [x0, #2696]
    43004da8:	b0000020 	adrp	x0, 43009000 <__STACKS_START__+0xf80>
    43004dac:	d1000673 	sub	x19, x19, #0x1
    43004db0:	8b140262 	add	x2, x19, x20
    43004db4:	f9454001 	ldr	x1, [x0, #2688]
    43004db8:	eb02003f 	cmp	x1, x2
    43004dbc:	54000042 	b.cs	43004dc4 <mmap_add_region+0xc4>  // b.hs, b.nlast
    43004dc0:	f9054002 	str	x2, [x0, #2688]
    43004dc4:	a94153f3 	ldp	x19, x20, [sp, #16]
    43004dc8:	a9425bf5 	ldp	x21, x22, [sp, #32]
    43004dcc:	a94363f7 	ldp	x23, x24, [sp, #48]
    43004dd0:	a8c47bfd 	ldp	x29, x30, [sp], #64
    43004dd4:	d65f03c0 	ret
    43004dd8:	d65f03c0 	ret

0000000043004ddc <mmap_add>:
    43004ddc:	a9be7bfd 	stp	x29, x30, [sp, #-32]!
    43004de0:	910003fd 	mov	x29, sp
    43004de4:	f9000bf3 	str	x19, [sp, #16]
    43004de8:	aa0003f3 	mov	x19, x0
    43004dec:	f9400a62 	ldr	x2, [x19, #16]
    43004df0:	b9401a63 	ldr	w3, [x19, #24]
    43004df4:	b50000a2 	cbnz	x2, 43004e08 <mmap_add+0x2c>
    43004df8:	35000083 	cbnz	w3, 43004e08 <mmap_add+0x2c>
    43004dfc:	f9400bf3 	ldr	x19, [sp, #16]
    43004e00:	a8c27bfd 	ldp	x29, x30, [sp], #32
    43004e04:	d65f03c0 	ret
    43004e08:	f9400661 	ldr	x1, [x19, #8]
    43004e0c:	f8420660 	ldr	x0, [x19], #32
    43004e10:	97ffffbc 	bl	43004d00 <mmap_add_region>
    43004e14:	17fffff6 	b	43004dec <mmap_add+0x10>

0000000043004e18 <init_xlation_table>:
    43004e18:	a9bc7bfd 	stp	x29, x30, [sp, #-64]!
    43004e1c:	910003fd 	mov	x29, sp
    43004e20:	a90153f3 	stp	x19, x20, [sp, #16]
    43004e24:	aa0403f3 	mov	x19, x4
    43004e28:	aa0303f4 	mov	x20, x3
    43004e2c:	a9025bf5 	stp	x21, x22, [sp, #32]
    43004e30:	aa0103f6 	mov	x22, x1
    43004e34:	aa0003f5 	mov	x21, x0
    43004e38:	a90363f7 	stp	x23, x24, [sp, #48]
    43004e3c:	2a0203f7 	mov	w23, w2
    43004e40:	9400001b 	bl	43004eac <xlat_arch_current_el>
    43004e44:	2a0003f8 	mov	w24, w0
    43004e48:	9400001c 	bl	43004eb8 <xlat_arch_get_xn_desc>
    43004e4c:	b0000021 	adrp	x1, 43009000 <__STACKS_START__+0xf80>
    43004e50:	71000f1f 	cmp	w24, #0x3
    43004e54:	2a1703e3 	mov	w3, w23
    43004e58:	aa1603e2 	mov	x2, x22
    43004e5c:	f9053c20 	str	x0, [x1, #2680]
    43004e60:	9a9f17e0 	cset	x0, eq	// eq = none
    43004e64:	b0000021 	adrp	x1, 43009000 <__STACKS_START__+0xf80>
    43004e68:	d37ae400 	lsl	x0, x0, #6
    43004e6c:	f9053820 	str	x0, [x1, #2672]
    43004e70:	aa1503e1 	mov	x1, x21
    43004e74:	b0000020 	adrp	x0, 43009000 <__STACKS_START__+0xf80>
    43004e78:	91214000 	add	x0, x0, #0x850
    43004e7c:	97ffff29 	bl	43004b20 <init_xlation_table_inner>
    43004e80:	b0000020 	adrp	x0, 43009000 <__STACKS_START__+0xf80>
    43004e84:	a9425bf5 	ldp	x21, x22, [sp, #32]
    43004e88:	f9454000 	ldr	x0, [x0, #2688]
    43004e8c:	a94363f7 	ldp	x23, x24, [sp, #48]
    43004e90:	f9000280 	str	x0, [x20]
    43004e94:	b0000020 	adrp	x0, 43009000 <__STACKS_START__+0xf80>
    43004e98:	f9454400 	ldr	x0, [x0, #2696]
    43004e9c:	f9000260 	str	x0, [x19]
    43004ea0:	a94153f3 	ldp	x19, x20, [sp, #16]
    43004ea4:	a8c47bfd 	ldp	x29, x30, [sp], #64
    43004ea8:	d65f03c0 	ret

0000000043004eac <xlat_arch_current_el>:
    43004eac:	d5384240 	mrs	x0, currentel
    43004eb0:	53020c00 	ubfx	w0, w0, #2, #2
    43004eb4:	d65f03c0 	ret

0000000043004eb8 <xlat_arch_get_xn_desc>:
    43004eb8:	71000c1f 	cmp	w0, #0x3
    43004ebc:	d2e00401 	mov	x1, #0x20000000000000      	// #9007199254740992
    43004ec0:	d2e00800 	mov	x0, #0x40000000000000      	// #18014398509481984
    43004ec4:	9a801020 	csel	x0, x1, x0, ne	// ne = any
    43004ec8:	d65f03c0 	ret

0000000043004ecc <init_xlat_tables>:
    43004ecc:	a9be7bfd 	stp	x29, x30, [sp, #-32]!
    43004ed0:	910003fd 	mov	x29, sp
    43004ed4:	97ffff8a 	bl	43004cfc <print_mmap>
    43004ed8:	d2800000 	mov	x0, #0x0                   	// #0
    43004edc:	910043e4 	add	x4, sp, #0x10
    43004ee0:	910063e3 	add	x3, sp, #0x18
    43004ee4:	52800022 	mov	w2, #0x1                   	// #1
    43004ee8:	b0000021 	adrp	x1, 43009000 <__STACKS_START__+0xf80>
    43004eec:	91040021 	add	x1, x1, #0x100
    43004ef0:	97ffffca 	bl	43004e18 <init_xlation_table>
    43004ef4:	f9400be0 	ldr	x0, [sp, #16]
    43004ef8:	f2540c1f 	tst	x0, #0xf00000000000
    43004efc:	540001a1 	b.ne	43004f30 <init_xlat_tables+0x64>  // b.any
    43004f00:	f256041f 	tst	x0, #0xc0000000000
    43004f04:	540001a1 	b.ne	43004f38 <init_xlat_tables+0x6c>  // b.any
    43004f08:	f258041f 	tst	x0, #0x30000000000
    43004f0c:	540001a1 	b.ne	43004f40 <init_xlat_tables+0x74>  // b.any
    43004f10:	f25c0c1f 	tst	x0, #0xf000000000
    43004f14:	540001a1 	b.ne	43004f48 <init_xlat_tables+0x7c>  // b.any
    43004f18:	f2600c1f 	tst	x0, #0xf00000000
    43004f1c:	9a9f07e0 	cset	x0, ne	// ne = any
    43004f20:	b0000021 	adrp	x1, 43009000 <__STACKS_START__+0xf80>
    43004f24:	f9054820 	str	x0, [x1, #2704]
    43004f28:	a8c27bfd 	ldp	x29, x30, [sp], #32
    43004f2c:	d65f03c0 	ret
    43004f30:	d28000a0 	mov	x0, #0x5                   	// #5
    43004f34:	17fffffb 	b	43004f20 <init_xlat_tables+0x54>
    43004f38:	d2800080 	mov	x0, #0x4                   	// #4
    43004f3c:	17fffff9 	b	43004f20 <init_xlat_tables+0x54>
    43004f40:	d2800060 	mov	x0, #0x3                   	// #3
    43004f44:	17fffff7 	b	43004f20 <init_xlat_tables+0x54>
    43004f48:	d2800040 	mov	x0, #0x2                   	// #2
    43004f4c:	17fffff5 	b	43004f20 <init_xlat_tables+0x54>

0000000043004f50 <enable_mmu_el3>:
    43004f50:	d2809fe1 	mov	x1, #0x4ff                 	// #1279
    43004f54:	f2a00881 	movk	x1, #0x44, lsl #16
    43004f58:	d51ea201 	msr	mair_el3, x1
    43004f5c:	d50e871f 	tlbi	alle3
    43004f60:	d2800401 	mov	x1, #0x20                  	// #32
    43004f64:	f27f001f 	tst	x0, #0x2
    43004f68:	d286a402 	mov	x2, #0x3520                	// #13600
    43004f6c:	9a810042 	csel	x2, x2, x1, eq	// eq = none
    43004f70:	b0000021 	adrp	x1, 43009000 <__STACKS_START__+0xf80>
    43004f74:	f9454821 	ldr	x1, [x1, #2704]
    43004f78:	aa014041 	orr	x1, x2, x1, lsl #16
    43004f7c:	d2b01002 	mov	x2, #0x80800000            	// #2155872256
    43004f80:	aa020021 	orr	x1, x1, x2
    43004f84:	d51e2041 	msr	tcr_el3, x1
    43004f88:	b0000021 	adrp	x1, 43009000 <__STACKS_START__+0xf80>
    43004f8c:	91040021 	add	x1, x1, #0x100
    43004f90:	d51e2001 	msr	ttbr0_el3, x1
    43004f94:	d5033b9f 	dsb	ish
    43004f98:	d5033fdf 	isb
    43004f9c:	d53e1003 	mrs	x3, sctlr_el3
    43004fa0:	52800021 	mov	w1, #0x1                   	// #1
    43004fa4:	121d7862 	and	w2, w3, #0xfffffffb
    43004fa8:	72a00101 	movk	w1, #0x8, lsl #16
    43004fac:	2a010042 	orr	w2, w2, w1
    43004fb0:	11001021 	add	w1, w1, #0x4
    43004fb4:	f240001f 	tst	x0, #0x1
    43004fb8:	2a030021 	orr	w1, w1, w3
    43004fbc:	1a820021 	csel	w1, w1, w2, eq	// eq = none
    43004fc0:	d51e1001 	msr	sctlr_el3, x1
    43004fc4:	d5033fdf 	isb
    43004fc8:	d65f03c0 	ret

0000000043004fcc <enable_mmu_direct_el3>:
    43004fcc:	17ffffe1 	b	43004f50 <enable_mmu_el3>

0000000043004fd0 <report_unhandled_exception>:
    43004fd0:	9400030c 	bl	43005c00 <plat_panic_handler>

0000000043004fd4 <enter_lower_el_sync_ea>:
    43004fd4:	f9007bfe 	str	x30, [sp, #240]
    43004fd8:	d53e521e 	mrs	x30, esr_el3
    43004fdc:	d35a7fde 	ubfx	x30, x30, #26, #6
    43004fe0:	f10083df 	cmp	x30, #0x20
    43004fe4:	540001a0 	b.eq	43005018 <enter_lower_el_sync_ea+0x44>  // b.none
    43004fe8:	f10093df 	cmp	x30, #0x24
    43004fec:	54000160 	b.eq	43005018 <enter_lower_el_sync_ea+0x44>  // b.none
    43004ff0:	a90007e0 	stp	x0, x1, [sp]
    43004ff4:	a9010fe2 	stp	x2, x3, [sp, #16]
    43004ff8:	a90217e4 	stp	x4, x5, [sp, #32]
    43004ffc:	940000ca 	bl	43005324 <get_cpu_ops_ptr>
