
/home/ning/111222/bl-mt798x/atf-20220606-637ba581b/build-ram/mt7981/release/bl2/bl2.elf：     文件格式 elf64-littleaarch64
/home/ning/111222/bl-mt798x/atf-20220606-637ba581b/build-ram/mt7981/release/bl2/bl2.elf
体系结构：aarch64， 标志 0x00000112：
EXEC_P, HAS_SYMS, D_PAGED
起始地址 0x0000000000201000

程序头：
    LOAD off    0x0000000000000000 vaddr 0x0000000000200000 paddr 0x0000000000200000 align 2**16
         filesz 0x0000000000034541 memsz 0x0000000000036540 flags rwx
   STACK off    0x0000000000000000 vaddr 0x0000000000000000 paddr 0x0000000000000000 align 2**4
         filesz 0x0000000000000000 memsz 0x0000000000000000 flags rw-
私有标志 = 0x0：

节：
Idx Name          Size      VMA               LMA               File off  Algn
  0 ro            00033000  0000000000201000  0000000000201000  00001000  2**11
                  CONTENTS, ALLOC, LOAD, READONLY, CODE
  1 .data         00000541  0000000000234000  0000000000234000  00034000  2**3
                  CONTENTS, ALLOC, LOAD, DATA
  2 stacks        00001000  0000000000234580  0000000000234580  00034541  2**6
                  ALLOC
  3 .bss          00000fc0  0000000000235580  0000000000235580  00034541  2**4
                  ALLOC
  4 coherent_ram  00000000  0000000000237000  0000000000237000  00035000  2**12
                  CONTENTS
  5 .debug_info   0001219e  0000000000000000  0000000000000000  00035000  2**0
                  CONTENTS, READONLY, DEBUGGING, OCTETS
  6 .debug_abbrev 00004111  0000000000000000  0000000000000000  0004719e  2**0
                  CONTENTS, READONLY, DEBUGGING, OCTETS
  7 .debug_loclists 0000816e  0000000000000000  0000000000000000  0004b2af  2**0
                  CONTENTS, READONLY, DEBUGGING, OCTETS
  8 .debug_aranges 00001580  0000000000000000  0000000000000000  00053420  2**4
                  CONTENTS, READONLY, DEBUGGING, OCTETS
  9 .debug_rnglists 000012d0  0000000000000000  0000000000000000  000549a0  2**0
                  CONTENTS, READONLY, DEBUGGING, OCTETS
 10 .debug_line   00007f12  0000000000000000  0000000000000000  00055c70  2**0
                  CONTENTS, READONLY, DEBUGGING, OCTETS
 11 .debug_str    0000432a  0000000000000000  0000000000000000  0005db82  2**0
                  CONTENTS, READONLY, DEBUGGING, OCTETS
 12 .debug_line_str 000007d4  0000000000000000  0000000000000000  00061eac  2**0
                  CONTENTS, READONLY, DEBUGGING, OCTETS
 13 .comment      0000004f  0000000000000000  0000000000000000  00062680  2**0
                  CONTENTS, READONLY
 14 .debug_frame  00000a08  0000000000000000  0000000000000000  000626d0  2**3
                  CONTENTS, READONLY, DEBUGGING, OCTETS
 15 .debug_ranges 00000630  0000000000000000  0000000000000000  000630e0  2**4
                  CONTENTS, READONLY, DEBUGGING, OCTETS
SYMBOL TABLE:
0000000000201000 l    d  ro	0000000000000000 ro
0000000000234000 l    d  .data	0000000000000000 .data
0000000000234580 l    d  stacks	0000000000000000 stacks
0000000000235580 l    d  .bss	0000000000000000 .bss
0000000000237000 l    d  coherent_ram	0000000000000000 coherent_ram
0000000000000000 l    d  .debug_info	0000000000000000 .debug_info
0000000000000000 l    d  .debug_abbrev	0000000000000000 .debug_abbrev
0000000000000000 l    d  .debug_loclists	0000000000000000 .debug_loclists
0000000000000000 l    d  .debug_aranges	0000000000000000 .debug_aranges
0000000000000000 l    d  .debug_rnglists	0000000000000000 .debug_rnglists
0000000000000000 l    d  .debug_line	0000000000000000 .debug_line
0000000000000000 l    d  .debug_str	0000000000000000 .debug_str
0000000000000000 l    d  .debug_line_str	0000000000000000 .debug_line_str
0000000000000000 l    d  .comment	0000000000000000 .comment
0000000000000000 l    d  .debug_frame	0000000000000000 .debug_frame
0000000000000000 l    d  .debug_ranges	0000000000000000 .debug_ranges
0000000000000000 l    df *ABS*	0000000000000000 bl2_el3_entrypoint.o
00000000002010a0 l       ro	0000000000000000 do_primary_cold_boot
0000000000000000 l    df *ABS*	0000000000000000 bl2_run_next_image.o
0000000000000000 l    df *ABS*	0000000000000000 cortex_a53.o
0000000000000008 l       *ABS*	0000000000000000 CPU_MIDR_SIZE
0000000000000008 l       *ABS*	0000000000000000 CPU_EXTRA1_FUNC_SIZE
0000000000000008 l       *ABS*	0000000000000000 CPU_EXTRA2_FUNC_SIZE
0000000000000008 l       *ABS*	0000000000000000 CPU_EXTRA3_FUNC_SIZE
0000000000000008 l       *ABS*	0000000000000000 CPU_E_HANDLER_FUNC_SIZE
0000000000000008 l       *ABS*	0000000000000000 CPU_RESET_FUNC_SIZE
0000000000000000 l       *ABS*	0000000000000000 CPU_PWR_DWN_OPS_SIZE
0000000000000000 l       *ABS*	0000000000000000 CPU_ERRATA_FUNC_SIZE
0000000000000000 l       *ABS*	0000000000000000 CPU_ERRATA_LOCK_SIZE
0000000000000000 l       *ABS*	0000000000000000 CPU_ERRATA_PRINTED_SIZE
0000000000000000 l       *ABS*	0000000000000000 CPU_REG_DUMP_SIZE
0000000000000000 l       *ABS*	0000000000000000 CPU_MIDR
0000000000000008 l       *ABS*	0000000000000000 CPU_RESET_FUNC
0000000000000010 l       *ABS*	0000000000000000 CPU_EXTRA1_FUNC
0000000000000018 l       *ABS*	0000000000000000 CPU_EXTRA2_FUNC
0000000000000020 l       *ABS*	0000000000000000 CPU_EXTRA3_FUNC
0000000000000028 l       *ABS*	0000000000000000 CPU_E_HANDLER_FUNC
0000000000000030 l       *ABS*	0000000000000000 CPU_PWR_DWN_OPS
0000000000000030 l       *ABS*	0000000000000000 CPU_ERRATA_FUNC
0000000000000030 l       *ABS*	0000000000000000 CPU_ERRATA_LOCK
0000000000000030 l       *ABS*	0000000000000000 CPU_ERRATA_PRINTED
0000000000000030 l       *ABS*	0000000000000000 CPU_REG_DUMP
0000000000000030 l       *ABS*	0000000000000000 CPU_OPS_SIZE
0000000000201148 l     F ro	0000000000000020 errata_a53_826319_wa
0000000000201168 l     F ro	0000000000000008 check_errata_826319
0000000000201170 l     F ro	000000000000001c a53_disable_non_temporal_hint
000000000020118c l     F ro	0000000000000008 check_errata_disable_non_temporal_hint
0000000000201194 l     F ro	000000000000001c errata_a53_855873_wa
00000000002011b0 l     F ro	0000000000000008 check_errata_855873
00000000002011b8 l     F ro	0000000000000038 cortex_a53_reset_func
0000000000000000 l    df *ABS*	0000000000000000 cpu_helpers.o
0000000000000008 l       *ABS*	0000000000000000 CPU_MIDR_SIZE
0000000000000008 l       *ABS*	0000000000000000 CPU_EXTRA1_FUNC_SIZE
0000000000000008 l       *ABS*	0000000000000000 CPU_EXTRA2_FUNC_SIZE
0000000000000008 l       *ABS*	0000000000000000 CPU_EXTRA3_FUNC_SIZE
0000000000000008 l       *ABS*	0000000000000000 CPU_E_HANDLER_FUNC_SIZE
0000000000000008 l       *ABS*	0000000000000000 CPU_RESET_FUNC_SIZE
0000000000000000 l       *ABS*	0000000000000000 CPU_PWR_DWN_OPS_SIZE
0000000000000000 l       *ABS*	0000000000000000 CPU_ERRATA_FUNC_SIZE
0000000000000000 l       *ABS*	0000000000000000 CPU_ERRATA_LOCK_SIZE
0000000000000000 l       *ABS*	0000000000000000 CPU_ERRATA_PRINTED_SIZE
0000000000000000 l       *ABS*	0000000000000000 CPU_REG_DUMP_SIZE
0000000000000000 l       *ABS*	0000000000000000 CPU_MIDR
0000000000000008 l       *ABS*	0000000000000000 CPU_RESET_FUNC
0000000000000010 l       *ABS*	0000000000000000 CPU_EXTRA1_FUNC
0000000000000018 l       *ABS*	0000000000000000 CPU_EXTRA2_FUNC
0000000000000020 l       *ABS*	0000000000000000 CPU_EXTRA3_FUNC
0000000000000028 l       *ABS*	0000000000000000 CPU_E_HANDLER_FUNC
0000000000000030 l       *ABS*	0000000000000000 CPU_PWR_DWN_OPS
0000000000000030 l       *ABS*	0000000000000000 CPU_ERRATA_FUNC
0000000000000030 l       *ABS*	0000000000000000 CPU_ERRATA_LOCK
0000000000000030 l       *ABS*	0000000000000000 CPU_ERRATA_PRINTED
0000000000000030 l       *ABS*	0000000000000000 CPU_REG_DUMP
0000000000000030 l       *ABS*	0000000000000000 CPU_OPS_SIZE
000000000020124c l       ro	0000000000000000 search_def_ptr
0000000000000000 l    df *ABS*	0000000000000000 platform_up_stack.o
0000000000234580 l       stacks	0000000000000000 platform_normal_stacks
0000000000000006 l       *ABS*	0000000000000000 TZ_COUNT
0000000000000000 l    df *ABS*	0000000000000000 hsuart.o
0000000000201348 l       ro	0000000000000000 init_fail
00000000002012d0 l       ro	0000000000000000 set_baud_force_high_speed
00000000002012f8 l       ro	0000000000000000 set_baud_low_speed
000000000020130c l       ro	0000000000000000 set_divisor
0000000000201360 l       ro	0000000000000000 no_char
00000000002013b8 l     F ro	0000000000000008 console_hsuart_getc
00000000002013c0 l     F ro	0000000000000008 console_hsuart_putc
00000000002013c8 l     F ro	0000000000000008 console_hsuart_flush
0000000000201424 l       ro	0000000000000000 register_fail
00000000002013ec l       ro	0000000000000000 register_hsuart
0000000000000000 l    df *ABS*	0000000000000000 plat_helpers.o
0000000000201428 l       ro	0000000000000000 cb_panic
0000000000000000 l    df *ABS*	0000000000000000 debug.o
0000000000232ebe l       ro	0000000000000000 panic_msg
00000000002014b4 l       ro	0000000000000000 panic_common
00000000002014dc l       ro	0000000000000000 _panic_handler
0000000000000000 l    df *ABS*	0000000000000000 cache_helpers.o
0000000000201518 l       ro	0000000000000000 exit_loop_civac
0000000000201504 l       ro	0000000000000000 loop_civac
0000000000201550 l       ro	0000000000000000 exit_loop_ivac
000000000020153c l       ro	0000000000000000 loop_ivac
0000000000000000 l    df *ABS*	0000000000000000 misc_helpers.o
000000000020155c l     F ro	00000000000000e8 zeromem_dczva
0000000000201648 l       ro	0000000000000000 do_disable_mmu_el3
0000000000000000 l    df *ABS*	0000000000000000 platform_helpers.o
0000000000000000 l    df *ABS*	0000000000000000 bl2_arch_setup.c
0000000000000000 l    df *ABS*	0000000000000000 bl2_image_load_v2.c
0000000000000000 l    df *ABS*	0000000000000000 bl2_main.c
0000000000000000 l    df *ABS*	0000000000000000 desc_image_load.c
0000000000235580 l     O .bss	0000000000000010 next_bl_params
0000000000235590 l     O .bss	0000000000000010 bl_load_info
0000000000000000 l    df *ABS*	0000000000000000 image_decompress.c
00000000002355c0 l     O .bss	0000000000000008 decompressor_buf_base
00000000002359b0 l     O .bss	0000000000000004 decompressor_buf_size
00000000002355b8 l     O .bss	0000000000000008 decompressor
00000000002355a0 l     O .bss	0000000000000018 saved_image_info
0000000000000000 l    df *ABS*	0000000000000000 delay_timer.c
00000000002355c8 l     O .bss	0000000000000008 timer_ops
0000000000000000 l    df *ABS*	0000000000000000 gpio.c
00000000002355d0 l     O .bss	0000000000000008 ops
0000000000000000 l    df *ABS*	0000000000000000 io_fip.c
0000000000201b00 l     F ro	0000000000000008 device_type_fip
0000000000201b08 l     F ro	0000000000000014 fip_file_len
0000000000201b1c l     F ro	000000000000003c fip_file_close
0000000000235608 l     O .bss	0000000000000030 current_fip_file
0000000000201b58 l     F ro	00000000000000b8 fip_file_read
00000000002355f8 l     O .bss	0000000000000008 backend_image_spec
0000000000235600 l     O .bss	0000000000000008 backend_dev_handle
0000000000201c10 l     F ro	0000000000000060 fip_dev_open
00000000002359b4 l     O .bss	0000000000000004 fip_dev_count
00000000002355e8 l     O .bss	0000000000000010 state_pool
00000000002355d8 l     O .bss	0000000000000010 dev_info_pool
0000000000228668 l     O ro	0000000000000048 fip_dev_funcs
0000000000201c70 l     F ro	00000000000000b4 fip_dev_init
0000000000201d24 l     F ro	0000000000000100 fip_file_open
000000000022ac06 l     O ro	0000000000000010 uuid_null.0
0000000000201e24 l     F ro	000000000000005c fip_dev_close
00000000002286b0 l     O ro	0000000000000008 fip_dev_connector
0000000000000000 l    df *ABS*	0000000000000000 io_memmap.c
0000000000201eb8 l     F ro	0000000000000008 device_type_memmap
0000000000201ec0 l     F ro	0000000000000014 memmap_dev_open
0000000000234000 l     O .data	0000000000000010 memmap_dev_info
0000000000201ed4 l     F ro	0000000000000008 memmap_dev_close
0000000000201edc l     F ro	0000000000000034 memmap_block_open
0000000000235638 l     O .bss	0000000000000020 current_memmap_file
0000000000201f10 l     F ro	0000000000000020 memmap_block_seek
0000000000201f30 l     F ro	0000000000000014 memmap_block_len
0000000000201f44 l     F ro	0000000000000028 memmap_block_close
0000000000201f6c l     F ro	0000000000000048 memmap_block_write
0000000000201fb4 l     F ro	0000000000000050 memmap_block_read
0000000000228700 l     O ro	0000000000000008 memmap_dev_connector
00000000002286b8 l     O ro	0000000000000048 memmap_dev_funcs
0000000000000000 l    df *ABS*	0000000000000000 io_storage.c
000000000020203c l     F ro	0000000000000040 free_entity.isra.0
0000000000235658 l     O .bss	0000000000000020 entity_map
00000000002359bc l     O .bss	0000000000000004 entity_count
00000000002359b8 l     O .bss	0000000000000004 dev_count
0000000000235678 l     O .bss	0000000000000040 entity_pool
0000000000000000 l    df *ABS*	0000000000000000 tf_unxz.c
00000000002356b8 l     O .bss	0000000000000008 xzalloc_current
00000000002356c0 l     O .bss	0000000000000008 xzalloc_end
000000000023625c l     O .bss	0000000000000001 xz_crc32_initialized
0000000000000000 l    df *ABS*	0000000000000000 xz_crc32.c
00000000002359c0 l     O .bss	0000000000000400 xz_crc32_table
0000000000000000 l    df *ABS*	0000000000000000 xz_dec_lzma2.c
0000000000202474 l     F ro	00000000000000ac dict_repeat
0000000000202520 l     F ro	00000000000001cc lzma_len
00000000002026ec l     F ro	0000000000000908 lzma_main
0000000000000000 l    df *ABS*	0000000000000000 xz_dec_stream.c
00000000002036cc l     F ro	0000000000000020 get_unaligned_le32
00000000002036ec l     F ro	0000000000000078 dec_vli
0000000000203764 l     F ro	0000000000000044 index_update
00000000002037a8 l     F ro	0000000000000094 fill_temp
0000000000000000 l    df *ABS*	0000000000000000 mt_gpt.c
0000000000232e7a l     O ro	000000000000000c gpt_soc_data
0000000000000000 l    df *ABS*	0000000000000000 uart_dl.c
0000000000204128 l     F ro	0000000000000054 read_u32
000000000020417c l     F ro	0000000000000030 read_u16
00000000002041ac l     F ro	0000000000000038 write_u32
00000000002041e4 l     F ro	0000000000000028 write_u16
00000000002356d0 l     O .bss	0000000000000008 data_loadaddr
0000000000232e8a l     O ro	0000000000000004 request_cmd
0000000000232e86 l     O ro	0000000000000004 response_cmd
00000000002356c8 l     O .bss	0000000000000008 data_size
0000000000000000 l    df *ABS*	0000000000000000 bl2_boot_ram.c
0000000000000000 l    df *ABS*	0000000000000000 bl2_plat_setup.c
0000000000204548 l     F ro	0000000000000060 check_fip
0000000000235708 l     O .bss	0000000000000008 fip_dev_handle
00000000002045a8 l     F ro	0000000000000060 check_boot_dev
0000000000235720 l     O .bss	0000000000000008 boot_dev_handle
0000000000235710 l     O .bss	0000000000000008 fip_dev_con
0000000000235718 l     O .bss	0000000000000008 boot_dev_con
0000000000228718 l     O ro	0000000000000090 policies
00000000002356d8 l     O .bss	0000000000000030 console.0
0000000000232eae l     O ro	0000000000000010 bl31_uuid_spec
0000000000232e9e l     O ro	0000000000000010 bl32_uuid_spec
0000000000232e8e l     O ro	0000000000000010 bl33_uuid_spec
0000000000234018 l     O .data	0000000000000170 bl2_mem_params_descs
0000000000000000 l    df *ABS*	0000000000000000 emicfg.c
0000000000000000 l    df *ABS*	0000000000000000 mt7981_gpio.c
000000000020487c l     F ro	0000000000000030 mt_gpio_find_reg_addr
0000000000228e86 l     O ro	00000000000001c8 mt7981_pin_infos
0000000000228838 l     O ro	0000000000000020 CSWTCH.15
00000000002048ac l     F ro	00000000000000ac mt_gpio_set_pull_chip
0000000000000000 l    df *ABS*	0000000000000000 pll.c
0000000000000000 l    df *ABS*	0000000000000000 timer.c
0000000000204e08 l     F ro	0000000000000020 get_timer_value
0000000000234188 l     O .data	0000000000000028 gpt4
0000000000235728 l     O .bss	0000000000000010 ops
0000000000000000 l    df *ABS*	0000000000000000 bl_common.c
0000000000000000 l    df *ABS*	0000000000000000 tf_log.c
0000000000235dc0 l     O .bss	0000000000000004 max_log_level
0000000000000000 l    df *ABS*	0000000000000000 multi_console.c
0000000000000000 l    df *ABS*	0000000000000000 plat_bl_common.c
0000000000000000 l    df *ABS*	0000000000000000 plat_log_common.c
00000000002287e8 l     O ro	0000000000000028 plat_prefix_str
0000000000000000 l    df *ABS*	0000000000000000 dram.o
0000000000000000 l    df *ABS*	0000000000000000 memcmp.c
0000000000000000 l    df *ABS*	0000000000000000 memcpy.c
0000000000000000 l    df *ABS*	0000000000000000 memmove.c
0000000000000000 l    df *ABS*	0000000000000000 memset.c
0000000000000000 l    df *ABS*	0000000000000000 printf.c
0000000000228104 l     F ro	00000000000000dc unsigned_num_print
0000000000000000 l    df *ABS*	0000000000000000 putchar.c
0000000000000000 l    df *ABS*	0000000000000000 bl2_el3_exceptions.o
0000000000233800 l     F ro	0000000000000000 SynchronousExceptionSP0
0000000000233880 l     F ro	0000000000000000 IrqSP0
0000000000233900 l     F ro	0000000000000000 FiqSP0
0000000000233980 l     F ro	0000000000000000 SErrorSP0
0000000000233a00 l     F ro	0000000000000000 SynchronousExceptionSPx
0000000000233a80 l     F ro	0000000000000000 IrqSPx
0000000000233b00 l     F ro	0000000000000000 FiqSPx
0000000000233b80 l     F ro	0000000000000000 SErrorSPx
0000000000233c00 l     F ro	0000000000000000 SynchronousExceptionA64
0000000000233c80 l     F ro	0000000000000000 IrqA64
0000000000233d00 l     F ro	0000000000000000 FiqA64
0000000000233d80 l     F ro	0000000000000000 SErrorA64
0000000000233e00 l     F ro	0000000000000000 SynchronousExceptionA32
0000000000233e80 l     F ro	0000000000000000 IrqA32
0000000000233f00 l     F ro	0000000000000000 FiqA32
0000000000233f80 l     F ro	0000000000000000 SErrorA32
0000000000211c1c g     F ro	0000000000000258 ANA_DLL_non_shuffle_config
0000000000228638 g     F ro	000000000000002c putchar
00000000002013a0 g     F ro	0000000000000018 console_hsuart_core_flush
000000000020481c g     F ro	0000000000000060 mtk_mem_dbg_print
0000000000220e18 g     F ro	0000000000000020 u1MCK2UI_DivShift
0000000000219df0 g     F ro	0000000000000110 DIG_CONFIG_SHUF_DBI
00000000002270a4 g     F ro	0000000000000094 DramRankNumberDetection
00000000002364ba g     O .bss	0000000000000009 PC4_INIT
000000000020a954 g     F ro	000000000000003c CKE_FIX_OFF
0000000000201adc g     F ro	000000000000000c mdelay
00000000002361ac g     O .bss	0000000000000008 HW_ZQCAL_CTRL
0000000000208350 g     F ro	00000000000001c8 EnableDramcPhyDCMShuffle
0000000000236540 g       .bss	0000000000000000 __PMF_TIMESTAMP_START__
000000000020af1c g     F ro	0000000000000138 CKEFixOnOff
00000000002363d9 g     O .bss	00000000000000ba DUTTopSetGlobal
0000000000205028 g     F ro	0000000000000034 console_register
0000000000237000 g       coherent_ram	0000000000000000 __COHERENT_RAM_END__
00000000002011f0 g     F ro	0000000000000020 reset_handler
000000000020e604 g     F ro	0000000000000048 DIG_HW_ATTRIBUTE_INIT
0000000000201554 g     F ro	0000000000000008 zeromem
000000000020ac70 g     F ro	000000000000004c vPrintCalibrationBasicInfo
00000000002014ac g     F ro	0000000000000008 asm_print_newline
00000000002361b8 g     O .bss	0000000000000004 g_ddr_reserve_success
000000000020b290 g     F ro	00000000000001dc DramcEngine2SetPat
0000000000226e70 g     F ro	00000000000000f0 Test_Broadcast_Feature
0000000000227a8c g     F ro	00000000000000c4 drm_dram_reserved
0000000000227e4c g     F ro	0000000000000108 mtk_drm_init
000000000020bd88 g     F ro	0000000000000060 TA2_Test_Run_Time_HW
000000000020c0dc g     F ro	0000000000000058 DramcModeRegWriteByRank
000000000020420c g     F ro	0000000000000270 start_uart_dl
0000000000204f64 g     F ro	0000000000000004 print_entry_point_info
0000000000210d24 g     F ro	0000000000000310 ANA_PLL_shuffle_Config
00000000002285e4 g     F ro	0000000000000054 printf
000000000021f3f8 g     F ro	0000000000000014 TXPICGNewModeEnable
000000000021e0f4 g     F ro	00000000000001b4 Set_DQO1_Pinmux_Mapping
0000000000234000 g       ro	0000000000000000 __RW_START__
000000000020e530 g     F ro	0000000000000050 DIG_HW_NONSHUF_IMPCAL_SWITCH
000000000020a918 g     F ro	000000000000003c CKE_FIX_ON
000000000021a6e0 g     F ro	00000000000001a0 check_ddr_reserve_status
000000000021aca4 g     F ro	0000000000000008 doe_get_config
0000000000220ba4 g     F ro	00000000000001e4 O1PathOnOff
000000000021d938 g     F ro	0000000000000004 DDR3_SWZQ
0000000000233005 g     O ro	0000000000000010 PCDDR3_O1_Mapping_POP_DSC
000000000020404c g     F ro	0000000000000018 mtk_gpt_reset
000000000020d7d8 g     F ro	000000000000001c u4Dram_Register_Read
0000000000218268 g     F ro	0000000000000390 PERBIT_4BIT_PINUXSWAP_CONFIG
0000000000236540 g       coherent_ram	0000000000000000 __XLAT_TABLE_START__
000000000020db90 g     F ro	000000000000013c vPhyByteWriteFldAlign
0000000000235dc8 g     O .bss	0000000000000024 ANA_option
00000000002210f0 g     F ro	000000000000007c PCDDR_ShiftDQS_OENUI
000000000021a920 g     F ro	0000000000000204 dram_auto_detect_size
0000000000227d54 g     F ro	0000000000000040 drm_is_reserve_ddr_mode_success
00000000002047c8 g     F ro	0000000000000028 bl2_el3_early_platform_setup
000000000021a880 g     F ro	0000000000000004 get_dram_channel_nr
000000000021a67c g     F ro	0000000000000008 dramc_get_vio18_voltage
0000000000207d44 g     F ro	0000000000000030 get_FreqTbl_by_shuffleIndex
000000000021adbc g     F ro	00000000000000f4 reset_dramc_ddrphy
00000000002014b4 g     F ro	0000000000000030 do_panic
000000000020e64c g     F ro	00000000000000bc DIG_HW_NONSHU_MISC_FIX
00000000002364e9 g     O .bss	0000000000000008 gFinalRXVrefDQForSpeedUp
0000000000236208 g     O .bss	0000000000000010 gDramcSwImpedanceResult
0000000000205e94 g     F ro	00000000000000bc Get_WL_by_MR_PC3
000000000022805c g     F ro	0000000000000034 memmove
000000000020dad0 g     F ro	00000000000000c0 vPhyByteReadFldAlign
000000000020aa50 g     F ro	0000000000000010 is_ddr3_family
0000000000227394 g     F ro	000000000000000c Get_MDL_Used_Flag
00000000002364a1 g     O .bss	0000000000000011 LP4_INIT
0000000000209ad0 g     F ro	0000000000000134 ANA_TOP_FUNCTION_CFG
000000000020c42c g     F ro	0000000000000098 DramcRestoreRegisters
000000000021ef8c g     F ro	00000000000002e4 TXPICGSetting
000000000021a884 g     F ro	0000000000000018 get_dram_rank_nr
00000000002222b0 g     F ro	0000000000000114 DramPhyReset
000000000020f480 g     F ro	0000000000000444 print_RX_path_rg_val
0000000000208d2c g     F ro	000000000000086c Dramc_DDR_Reserved_Mode_setting
000000000020b46c g     F ro	0000000000000120 DramcEngine2CheckComplete
000000000020516c  w    F ro	0000000000000030 plat_log_get_prefix
000000000021a174 g     F ro	00000000000002b4 DramcDUTTopSet
00000000002364f5 g     O .bss	0000000000000008 ucbest_coarse_mck_P1_backup
0000000000201668  w    F ro	0000000000000004 plat_report_exception
000000000020f8c4 g     F ro	000000000000047c get_RX_path_config
000000000020383c g     F ro	0000000000000050 xz_dec_reset
0000000000217d88 g     F ro	0000000000000100 IO_Release
00000000002022d8 g     F ro	000000000000011c unxz
000000000021ee04 g     F ro	0000000000000048 DV_InitialSettings
000000000021f9b8 g     F ro	0000000000000018 SetMck8xLowPwrOption
000000000020ab20 g     F ro	00000000000000ec setFreqGroup
000000000021ef4c g     F ro	0000000000000040 DramcModifiedRefreshMode
0000000000234000 g       .data	0000000000000000 __DATA_START__
000000000020181c g     F ro	0000000000000030 get_bl_mem_params_node
0000000000204e28 g     F ro	0000000000000068 mtk_timer_init
000000000020dccc g     F ro	0000000000000084 print_HW_ZQCAL_config
0000000000205ce4 g     F ro	00000000000000b4 PC3_DRAM_INIT_CL_MRfield_config
000000000023453c g     O .data	0000000000000002 s2RxDelayPreCal
000000000021a61c g     F ro	0000000000000038 mdl_setting
000000000020af14 g     F ro	0000000000000008 GetEyeScanEnable
0000000000220dc0 g     F ro	0000000000000058 DramcZQCalibration
0000000000208b18 g     F ro	0000000000000214 dump_gating_error_rg
00000000002361c8 g     O .bss	0000000000000004 mt7981_dram_debug
0000000000227df0 g     F ro	0000000000000014 drm_release_rg_dramc_sref
000000000022904e g     O ro	0000000000000a78 ACTimingTbl_DDR3
0000000000226934 g     F ro	000000000000043c DramcSwImpedanceCal
000000000020c56c g     F ro	00000000000001e4 get_dram_rank_size_by_EMI_CONA
0000000000204608 g     F ro	00000000000000d0 bl2_platform_setup
000000000021dc5c g     F ro	00000000000002dc PC4_dram_init_single_rank
0000000000220d88 g     F ro	0000000000000038 u1IsPhaseMode
00000000002214e8 g     F ro	000000000000007c get_wlev_autok_respi
0000000000201678 g       ro	0000000000000000 __TEXT_RESIDENT_END__
000000000021e340 g     F ro	00000000000000ac MPLLInit
00000000002223c4 g     F ro	000000000000010c get_gating_start_pos
000000000022803c g     F ro	0000000000000020 memcpy
00000000002212e0 g     F ro	000000000000007c ShiftDQ_OENUI_AllRK
00000000002017b0 g     F ro	000000000000001c flush_bl_params_desc
000000000020155c g     F ro	00000000000000e8 zero_normalmem
0000000000214a50 g     F ro	0000000000000148 ANA_MIDPI_WITH_MD32
0000000000203f64 g     F ro	0000000000000064 xz_dec_init
0000000000227f54 g     F ro	00000000000000b4 set_mtk_drm_to_default
0000000000236516 g     O .bss	0000000000000001 gfirst_init_flag
00000000002047fc g     F ro	0000000000000004 platform_mem_init
0000000000209598 g     F ro	0000000000000268 Dramc_DDR_Reserved_Mode_BeforeSR
000000000020d87c g     F ro	00000000000000d8 vIO32WriteMsk_All
000000000020367c g     F ro	000000000000004c xz_dec_lzma2_reset
0000000000213d6c g     F ro	000000000000013c ANA_OPEN_LOOP_MODE_config
00000000002341b0 g     O .data	0000000000000078 szCalibStatusName
000000000020b8e0 g     F ro	0000000000000204 TA2_Test_Run_Time_HW_Presetting
0000000000227ddc g     F ro	0000000000000014 drm_release_rg_dramc_iso
0000000000204800 g     F ro	000000000000001c mtk_mem_init
000000000021f674 g     F ro	00000000000002a4 RODTSettings
000000000021afd0 g     F ro	00000000000000e0 get_dqsien_p2s_latency
000000000020bb84 g     F ro	0000000000000074 TA2_Test_Run_Time_HW_Write
0000000000208840 g     F ro	0000000000000068 ASVA5_8_CSCA_Pull_Down_DIS
0000000000201670  w    F ro	0000000000000008 plat_panic_handler
0000000000215320 g     F ro	0000000000000118 ANA_DLL_WITH_MD32
0000000000215e24 g     F ro	0000000000000074 ANA_init_sequence
0000000000204758 g     F ro	0000000000000004 plat_flush_next_bl_params
0000000000233130 g       ro	0000000000000000 __RT_SVC_DESCS_START__
000000000020ac30 g     F ro	000000000000000c Get_Vref_Calibration_OnOff
000000000020bde8 g     F ro	0000000000000298 DramcTriggerRTSWCMD
000000000021e3f0 g     F ro	0000000000000a14 vReplaceDVInit
0000000000225a78 g     F ro	0000000000000030 CmdOEOnOff
00000000002364e2 g     O .bss	0000000000000001 u1PrintModeRegWrite
0000000000235580 g       stacks	0000000000000000 __STACKS_END__
00000000002049b0 g     F ro	000000000000002c mt_set_gpio_pull
000000000021e0a4 g     F ro	0000000000000050 Set_DRAM_Pinmux_Sel
0000000000209800 g     F ro	00000000000001cc Dramc_DDR_Reserved_Mode_AfterSR
00000000002088a8 g     F ro	0000000000000048 wait_SREFx
0000000000217e88 g     F ro	00000000000003e0 DVFS_PRE_config
00000000002361c4 g     O .bss	0000000000000004 mt7981_ddr_size_limit
0000000000218898 g     F ro	0000000000000248 DIG_CONFIG_SHUF_ALG_TXCA
000000000020c080 g     F ro	000000000000005c DramcModeRegWriteByRank_RTSWCMD_MRW
00000000002171e4 g     F ro	0000000000000ba4 DRAMC_COMMON_Config
0000000000208588 g     F ro	000000000000012c DRM_DDR34_SWZQ
000000000021fb98 g     F ro	0000000000000194 PC4_UpdateInitialSettings
0000000000234010 g     O .data	0000000000000008 bl_mem_params_desc_ptr
0000000000205bc8 g     F ro	0000000000000040 Roundup_Operation
00000000002021e8 g     F ro	0000000000000020 io_size
0000000000228708 g     O ro	0000000000000010 mtk_boot_dev_fip_spec
0000000000225aa8 g     F ro	0000000000000af4 DramcMiockJmeter
000000000020612c g     F ro	0000000000000078 PC4_WR_INIT_TCCDL_config
000000000020c524 g     F ro	0000000000000014 get_cen_emi_cona
0000000000206258 g     F ro	00000000000000c8 PC4_DRAM_INIT_CL_MRfield_config
0000000000202ff4 g     F ro	0000000000000654 xz_dec_lzma2_run
00000000002136fc g     F ro	0000000000000278 ANA_RX_nonshuffle_config
00000000002020a4 g     F ro	0000000000000018 io_dev_open
0000000000201288  w    F ro	0000000000000010 plat_set_my_stack
00000000002287a8 g     O ro	0000000000000040 mtgpio_ops
0000000000233130 g       ro	0000000000000000 __RT_SVC_DESCS_END__
000000000022116c g     F ro	000000000000007c ShiftDQUI
000000000020aaec g     F ro	0000000000000008 u1GetRank
0000000000205c08 g     F ro	00000000000000dc PC3_DRAM_INIT_CWL_MRfield_config
000000000020e07c g     F ro	00000000000000b0 DRAMC_HW_FUNC_IMPCAL_config
00000000002017cc g     F ro	0000000000000050 get_bl_params_node_index
0000000000214510 g     F ro	00000000000000a0 ANA_Config_shuffle
000000000020c284 g     F ro	0000000000000088 DramcBackupMixedRG
000000000020147c g     F ro	0000000000000030 asm_print_hex
0000000000205994 g     F ro	0000000000000234 mtk_mem_init_real
0000000000212e30 g     F ro	00000000000004ec ANA_TX_shuffle_config
000000000021fd2c g     F ro	0000000000000084 SA_InitialSettings1
0000000000000fc0 g       *ABS*	0000000000000000 __BSS_SIZE__
000000000021e2a8 g     F ro	0000000000000098 Global_Option_Init
0000000000201464 g     F ro	0000000000000018 asm_print_str
0000000000201644 g     F ro	000000000000001c disable_mmu_el3
000000000020ac18 g     F ro	000000000000000c vGet_Div_Mode
000000000021cea4 g     F ro	000000000000098c TX_PATH_config
0000000000201458 g     F ro	000000000000000c plat_crash_console_flush
0000000000207e54 g     F ro	00000000000004fc EnableDramcPhyDCMNonShuffle
000000000020aac8 g     F ro	000000000000000c vSetPHY2ChannelMapping
000000000020515c  w    F ro	0000000000000008 plat_error_handler
000000000020e774 g     F ro	0000000000000064 DIG_HW_SHUF_CFG
0000000000236505 g     O .bss	0000000000000008 ucbest_coarse_ui_P1_backup
000000000020453c g     F ro	000000000000000c bl2_complete
000000000023625d g     O .bss	000000000000017c DUTShufConfigGlobal
00000000002064f8 g     F ro	000000000000013c Get_RL_by_MR_PC4
000000000020856c g     F ro	000000000000001c EnableRxDcmDPhy
000000000020d388 g     F ro	000000000000009c __meta_get
000000000021f270 g     F ro	0000000000000188 RXPICGSetting
00000000002124c0 g     F ro	0000000000000268 ANA_ARPI_shuffle_config
00000000002224d0 g     F ro	0000000000000b64 dramc_rx_dqs_gating_cal
000000000021a428 g     F ro	00000000000000f8 DramcDUTShuSet
0000000000213eec g     F ro	000000000000001c DIG_PHY_SHU_MISC_CG_CTRL
000000000020c54c g     F ro	0000000000000020 get_channel_nr_by_emi
0000000000236493 g     O .bss	0000000000000007 HWFUNCEnableGlobal
00000000002361cc g     O .bss	0000000000000004 mt7981_use_ddr4
0000000000204718 g     F ro	0000000000000038 bl2_plat_handle_post_image_load
000000000021a06c g     F ro	0000000000000108 DIG_CONFIG_SHUF
0000000000205d98 g     F ro	00000000000000fc PC3_DRAM_config
0000000000234000 g       ro	0000000000000000 __RO_END_UNALIGNED__
000000000020505c g     F ro	00000000000000a8 console_putc
000000000020d424 g     F ro	0000000000000074 NeedSwapARToBR
0000000000201428 g     F ro	0000000000000004 plat_secondary_cold_boot_setup
00000000002145b0 g     F ro	0000000000000030 ANA_PHY_Config
000000000021b130 g     F ro	0000000000000020 A_div_B_RU
000000000021a664 g     F ro	0000000000000008 dramc_get_vdram_voltage
000000000020ad68 g     F ro	0000000000000140 GetDataRateByFreq
00000000002231a8 g     F ro	0000000000000050 DramcRxWinRDDQCRun
000000000020e708 g     F ro	000000000000006c DIG_HW_NONSHUF_CFG
000000000020142c g     F ro	0000000000000020 plat_crash_console_init
000000000020df38 g     F ro	0000000000000144 print_HW_IMPCAL_config
000000000020dd50 g     F ro	0000000000000048 DRAMC_HW_FUNC_ZQCAL_config
00000000002014e4 g     F ro	0000000000000038 flush_dcache_range
000000000020388c g     F ro	00000000000006d8 xz_dec_run
00000000002343ec g     O .data	00000000000000a8 gFreqTbl_PC3
0000000000232ff5 g     O ro	0000000000000010 PCDDR3_O1_Mapping_POP
0000000000224d30 g     F ro	0000000000000d48 DramcTxWindowPerbitCal
000000000021b518 g     F ro	0000000000000524 print_TX_path_attribution
000000000020b864 g     F ro	000000000000007c TA2_Test_Run_Time_HW_Set_Column_Num
0000000000220790 g     F ro	0000000000000014 vInitGlobalVariablesByCondition
0000000000201ae8 g     F ro	000000000000000c timer_init
00000000002018b0 g     F ro	00000000000000d8 get_next_bl_params_from_mem_params_desc
0000000000221264 g     F ro	000000000000007c ShiftDQ_OENUI
0000000000233130 g       ro	0000000000000000 __PMF_SVC_DESCS_END__
0000000000201298 g     F ro	00000000000000b8 console_hsuart_init
000000000022054c g     F ro	0000000000000094 vSetCalibrationResult
0000000000234548 g       .data	0000000000000000 __RELA_END__
0000000000213974 g     F ro	000000000000013c RESETB_PULL_DN
0000000000234548 g       .data	0000000000000000 __RELA_START__
000000000021acac g     F ro	0000000000000110 DDRPhyFreqMeter
0000000000204acc g     F ro	0000000000000038 mt_set_pinmux_mode
000000000020c4c4 g     F ro	0000000000000060 DDRPhyGetRealFreq
000000000020aa60 g     F ro	0000000000000010 is_ddr4_family
0000000000211e74 g     F ro	000000000000064c ANA_DLL_shuffle_Config
000000000020d5fc g     F ro	00000000000001dc u4RegBaseAddrTranslate
000000000021b0b0 g     F ro	0000000000000080 get_oe_p2s_latency
0000000000227b64 g     F ro	0000000000000044 drm_is_dram_slf
000000000020ac3c g     F ro	0000000000000034 vGet_Dram_CBT_Mode
000000000023625a g     O .bss	0000000000000002 u2g_num_dlycell_perT
000000000021a65c g     F ro	0000000000000008 dramc_get_vcore_voltage
00000000002281e0 g     F ro	0000000000000404 vprintf
000000000020447c g     F ro	0000000000000018 uart_dl_api_getc
0000000000203fec g     F ro	0000000000000060 mtk_gpt_start
0000000000203648 g     F ro	0000000000000034 xz_dec_lzma2_create
000000000020c3a4 g     F ro	0000000000000088 DramcBackupRegisters
000000000020d228 g     F ro	00000000000000f4 __meta_backup
000000000020ce7c g     F ro	000000000000015c mem_init_emi
0000000000217184 g     F ro	0000000000000060 DDRPHY_PICG_Config
0000000000221074 g     F ro	000000000000007c PCDDR_ShiftDQSUI
0000000000224aec g     F ro	000000000000012c TxWinTransferDelayToUIPI
00000000002013d0 g     F ro	0000000000000058 console_hsuart_register
000000000021ef38 g     F ro	0000000000000004 DramcEnablePerBankRefresh
000000000020166c  w    F ro	0000000000000004 plat_reset_handler
000000000021a66c g     F ro	0000000000000008 dramc_get_vddq_voltage
000000000020d498 g     F ro	000000000000002c NeedSkipIO
0000000000213ea8 g     F ro	0000000000000044 DIG_DCM_nonshuffle_config
000000000020aa80 g     F ro	000000000000001c GetDramcBroadcast
0000000000201210 g     F ro	0000000000000040 get_cpu_ops_ptr
0000000000215438 g     F ro	0000000000000534 ANA_DLL_sequence
0000000000204750 g     F ro	0000000000000004 plat_get_bl_image_load_info
0000000000234228 g     O .data	00000000000000c0 DramContext
000000000020519c g     F ro	00000000000006f4 complex_mem_test
000000000020c750 g     F ro	0000000000000198 phy_addr_to_dram_addr
000000000022135c g     F ro	0000000000000040 ShiftDQSWCK_UI
0000000000222108 g     F ro	00000000000001a8 vResetDelayChainBeforeCalibration
00000000002275cc g     F ro	0000000000000208 Init_DRAM
000000000021ef3c g     F ro	0000000000000010 DramcRefreshRateDeBounceEnable
0000000000204e90 g     F ro	00000000000000d4 load_auth_image
0000000000219f00 g     F ro	00000000000000b4 DIG_CONFIG_SHUF_DVFSWLRL
0000000000234494 g     O .data	00000000000000a8 gFreqTbl_PC4
000000000021a674 g     F ro	0000000000000008 dramc_get_vmddr_voltage
0000000000237000 g       .bss	0000000000000000 __BL2_END__
000000000020ac24 g     F ro	000000000000000c vGet_Current_ShuLevel
000000000021dc58 g     F ro	0000000000000004 DDR4_SWZQ
000000000021b150 g     F ro	00000000000003c8 print_TX_path_config
0000000000204958 g     F ro	0000000000000034 mt_set_gpio_dir
0000000000203fc8 g     F ro	0000000000000010 xz_dec_end
000000000020de58 g     F ro	0000000000000078 DIG_HW_SHUF_ZQCAL_CFG
0000000000224c18 g     F ro	0000000000000118 DramcTXSetVref
00000000002019e0 g     F ro	0000000000000094 image_decompress
000000000020fd40 g     F ro	00000000000008d4 calculate_RX_path_rg_val
00000000002044ac g     F ro	0000000000000044 uart_dl_api_set_baud
000000000021d830 g     F ro	0000000000000108 TX_PATH_auto_gen_and_set
0000000000234541 g       .data	0000000000000000 __DATA_RAM_END__
00000000002361d0 g     O .bss	0000000000000038 JMeter_DelayCell_Table
000000000022659c g     F ro	00000000000000f0 GetVcoreDelayCellTime
0000000000236540 g       .bss	0000000000000000 __PMF_PERCPU_TIMESTAMP_END__
000000000020174c g     F ro	0000000000000034 bl2_main
0000000000234541 g       .data	0000000000000000 __DATA_END__
00000000002019a4 g     F ro	000000000000003c image_decompress_prepare
00000000002023f4 g     F ro	0000000000000044 xz_crc32_init
0000000000208518 g     F ro	0000000000000054 EnableDramcPhyDCM
0000000000201480 g       ro	0000000000000000 asm_print_hex_bits
0000000000235dc4 g     O .bss	0000000000000004 MEM_TYPE
000000000021ab24 g     F ro	0000000000000180 set_emi_cona_by_size
0000000000236540 g       .bss	0000000000000000 __BASE_XLAT_TABLE_START__
0000000000204a74 g     F ro	0000000000000030 mt_set_gpio_out
0000000000211034 g     F ro	0000000000000be8 ANA_CLK_DIV_config_setting
000000000020b644 g     F ro	0000000000000118 DramcEngine2Init
0000000000215e98 g     F ro	0000000000000078 ANA_init
000000000020aadc g     F ro	0000000000000004 vSetChannelNumber
0000000000233130 g       ro	0000000000000000 __CPU_OPS_START__
0000000000219cbc g     F ro	0000000000000134 DIG_CONFIG_SHUF_PRECAL
000000000021a520 g     F ro	0000000000000028 DramcHWFuncSet
0000000000227d94 g     F ro	0000000000000048 drm_release_rg_dramc_conf_iso
0000000000201a74 g     F ro	0000000000000068 udelay
00000000002061a4 g     F ro	00000000000000b4 PC4_DRAM_INIT_CWL_MRfield_config
0000000000226f60 g     F ro	0000000000000144 vDramCPUReadWriteTestAfterCalibration
000000000020151c g     F ro	0000000000000038 inv_dcache_range
000000000023453e g     O .data	0000000000000001 console_state
0000000000201684  w    F ro	0000000000000008 mtk_ar_update_bl_ar_ver
00000000002279cc g     F ro	000000000000009c DramcHWGatingDebugOnOff
0000000000201000 g     F ro	0000000000000110 bl2_entrypoint
0000000000213f08 g     F ro	000000000000006c ANA_IMP_configure
0000000000234310 g     O .data	00000000000000d8 arByteMapTable
000000000020e7d8 g     F ro	000000000000006c DIG_HW_NONSHUF_SWITCH
0000000000207bc4 g     F ro	0000000000000118 DramcDumpDebugInfo
0000000000205158  w    F ro	0000000000000004 bl2_el3_plat_prepare_exit
000000000020d954 g     F ro	0000000000000098 vPhyByteIO32WriteMsk
00000000002273d4 g     F ro	00000000000000c4 Init_Dram_Ctx_By_Type
00000000002163d4 g     F ro	00000000000007d4 DPHY_GAT_TRACK_Config
0000000000223274 g     F ro	0000000000000ef0 DramcRxWindowPerbitCal
0000000000228008 g     F ro	0000000000000034 memcmp
0000000000201250 g     F ro	0000000000000010 cpu_get_rev_var
00000000002141a0 g     F ro	0000000000000300 ANA_CLOCK_SWITCH
0000000000227ba8 g     F ro	00000000000000a4 drm_wait_for_reg_update_done
0000000000220b44 g     F ro	0000000000000060 vAfterCalibration
00000000002047f4 g     F ro	0000000000000008 plat_is_my_cpu_primary
00000000002273a0 g     F ro	0000000000000034 Init_DramcSwImpedanceCal
000000000021a89c g     F ro	0000000000000084 mt_set_emi
0000000000236540 g       .bss	0000000000000000 __BSS_END__
0000000000233160 g       ro	0000000000000000 __CPU_OPS_END__
00000000002364dc g     O .bss	0000000000000006 Gat_p
0000000000207d10 g     F ro	0000000000000034 vInitMappingFreqArray
000000000021ee4c g     F ro	0000000000000074 SA_InitialSettings2
00000000002088f0 g     F ro	0000000000000228 dump_last_dramc
00000000002021c8 g     F ro	0000000000000020 io_seek
000000000020aad4 g     F ro	0000000000000008 vGetPHY2ChannelMapping
0000000000202228 g     F ro	0000000000000048 io_close
000000000022139c g     F ro	000000000000014c vSetDramMRWriteLevelingOnOff
000000000021df38 g     F ro	000000000000016c PC4_DRAM_INIT
00000000002364fd g     O .bss	0000000000000008 ucbest_coarse_mck_backup
00000000002364c3 g     O .bss	0000000000000009 ana_top_p
00000000002044f0 g     F ro	000000000000004c mtk_boot_dev_setup
000000000020a418 g     F ro	000000000000036c DRAMC_SUBSYS_PRE_CONFIG
0000000000236515 g     O .bss	0000000000000001 gGet_MDL_Used_Flag
0000000000237000 g       coherent_ram	0000000000000000 __COHERENT_RAM_START__
000000000020aea8 g     F ro	000000000000006c DDRPhyFreqSel
0000000000235e8c g     O .bss	0000000000000030 LP5_INIT
0000000000233160 g       ro	0000000000000000 __GOT_END__
000000000021e3ec g     F ro	0000000000000004 XRTRTR_SHU_Setting
0000000000228090 g     F ro	0000000000000074 memset
00000000002049dc g     F ro	0000000000000098 mt_get_gpio_pull
0000000000226d70 g     F ro	0000000000000100 vSetVcoreByFreq
0000000000227e04 g     F ro	0000000000000034 drm_is_dvfsrc_success
00000000002271d8 g     F ro	00000000000001bc vDramCalibrationAllChannel
0000000000227b50 g     F ro	0000000000000014 drm_is_reserve_ddr_enabled
0000000000233130 g       ro	0000000000000000 __PARSER_LIB_DESCS_END__
0000000000216ba8 g     F ro	00000000000005dc DIG_CONFIG_NONSHUF_DCM
0000000000204494 g     F ro	0000000000000018 uart_dl_api_putc
00000000002047f0 g     F ro	0000000000000004 bl2_el3_plat_arch_setup
0000000000201110 g     F ro	0000000000000038 bl2_run_next_image
0000000000000000 g       *ABS*	0000000000000000 __COHERENT_RAM_UNALIGNED_SIZE__
0000000000201660 g     F ro	0000000000000008 disable_mmu_icache_el3
00000000002342f0 g     O .data	0000000000000004 bl_mem_params_desc_num
000000000020f16c g     F ro	0000000000000314 print_RX_path_config
00000000002364e5 g     O .bss	0000000000000004 gFinalRXVrefDQ
0000000000218804 g     F ro	0000000000000094 DIG_STATIC_SETTING
000000000020c8e8 g     F ro	0000000000000594 emi_config
0000000000227e38 g     F ro	0000000000000014 drm_is_dvfsrc_enable
000000000020c30c g     F ro	0000000000000098 DramcRestoreMixedRG
00000000002046d8 g     F ro	0000000000000014 bl2_plat_preload_setup
000000000021f918 g     F ro	00000000000000a0 DQSSTBSettings
000000000020168c g     F ro	00000000000000ac bl2_load_images
000000000022668c g     F ro	0000000000000004 Get_RX_DelayCell
00000000002099cc g     F ro	00000000000000c4 Patch_ReK
0000000000233800 g       ro	0000000000000000 bl2_el3_exceptions
0000000000201678 g     F ro	000000000000000c bl2_arch_setup
0000000000233160 g       ro	0000000000000000 __GOT_START__
000000000020b1cc g     F ro	0000000000000070 DramcSetRWOFOEN
000000000021daec g     F ro	000000000000016c PC3_DRAM_INIT
000000000020b814 g     F ro	0000000000000050 DramcEngine2End
000000000020b75c g     F ro	00000000000000b8 DramcEngine2Run
000000000020aae0 g     F ro	000000000000000c vSetRank
0000000000000000 g       *ABS*	0000000000000000 __PERCPU_TIMESTAMP_SIZE__
00000000002144a0 g     F ro	0000000000000070 ANA_Config_nonshuffle
000000000020bae4 g     F ro	00000000000000a0 TA2_Test_Run_Time_Pat_Setting
00000000002086b4 g     F ro	00000000000000c8 MD32_init
000000000020f050 g     F ro	00000000000000c4 MD32_initializaton
000000000020498c g     F ro	0000000000000024 mt_get_gpio_dir
0000000000202438 g     F ro	000000000000003c xz_crc32
0000000000214b98 g     F ro	0000000000000788 ANA_MIDPI_sequence
0000000000206030 g     F ro	00000000000000fc PC4_WR_INIT_MRfiled_config
0000000000209c04 g     F ro	0000000000000814 ANA_CLK_DIV_config
0000000000233130 g       ro	0000000000000000 __FCONF_POPULATOR_END__
0000000000207dc8 g     F ro	000000000000008c EnableCommonDCMShuffle
00000000002357c8 g     O .bss	00000000000000a0 default_emi_setting
0000000000201780 g     F ro	0000000000000030 flush_bl_params_desc_args
000000000021596c g     F ro	000000000000043c ANA_ClockOff_Sequence
00000000002207a4 g     F ro	00000000000003a0 vBeforeCalibration
0000000000219850 g     F ro	000000000000046c DIG_CONFIG_SHUF_DCM
0000000000202270 g     F ro	0000000000000068 xz_malloc
00000000002361c0 g     O .bss	0000000000000004 mt7981_ddr3_freq
0000000000226690 g     F ro	00000000000002a4 DramcSwImpedanceSaveRegister
0000000000236540 g       .bss	0000000000000000 __BASE_XLAT_TABLE_END__
0000000000223034 g     F ro	0000000000000174 DramcRxWinRDDQCInit
0000000000205104 g     F ro	0000000000000054 console_flush
0000000000210614 g     F ro	0000000000000710 RX_PATH_auto_gen_and_set
000000000020b58c g     F ro	00000000000000b8 DramcEngine2Compare
0000000000234000 g       ro	0000000000000000 __RO_END__
0000000000224428 g     F ro	0000000000000350 DramcAdjustCommandBus
000000000021a654 g     F ro	0000000000000008 dramc_set_vcore_voltage
00000000002020bc g     F ro	000000000000001c io_dev_init
0000000000202208 g     F ro	0000000000000020 io_read
0000000000207d74 g     F ro	0000000000000054 EnableCommonDCMNonShuffle
00000000002145e0 g     F ro	0000000000000470 ANA_PLL_sequence
00000000002361bc g     O .bss	0000000000000004 mt7981_bga_pkg
0000000000224164 g     F ro	00000000000002c4 DramModeRegReInit
00000000002359a8 g     O .bss	0000000000000008 gFreqTbl
000000000020aaf4 g     F ro	000000000000002c vSetRankNumber
0000000000235740 g     O .bss	0000000000000088 DV_p
0000000000235580 g       .bss	0000000000000000 __BSS_START__
0000000000234000 g       .data	0000000000000000 __DATA_RAM_START__
0000000000205f50 g     F ro	00000000000000e0 Get_RL_by_MR_PC3
0000000000227c4c g     F ro	0000000000000108 drm_update_reg
0000000000201000 g       ro	0000000000000000 __RO_START__
000000000020c538 g     F ro	0000000000000014 get_chn_emi_cona
00000000002343e8 g     O .data	0000000000000004 emi_setting_index
000000000020d198 g     F ro	0000000000000090 __meta_restore
0000000000219fb4 g     F ro	00000000000000b8 DIG_CONFIG_DVFS_DEPENDENCE
0000000000203fd8 g     F ro	0000000000000014 mtk_gpt_stop
000000000020877c g     F ro	00000000000000c4 ASVA5_8_CSCA_Pull_Down_EN
0000000000205164  w    F ro	0000000000000008 plat_try_next_boot_source
0000000000229ac6 g     O ro	0000000000001140 ACTimingTbl_DDR4
0000000000233130 g       ro	0000000000000000 __PMF_SVC_DESCS_START__
000000000020144c g     F ro	000000000000000c plat_crash_console_putc
000000000020e848 g     F ro	0000000000000808 MD32_initializaton_ch
000000000021f40c g     F ro	0000000000000268 DramcRunTimeConfig
0000000000235dec g     O .bss	00000000000000a0 DFS_TOP
0000000000201274 g     F ro	0000000000000014 cpu_rev_var_hs
00000000002020f4 g     F ro	00000000000000d4 io_open
0000000000228da4 g     O ro	0000000000000070 REG_BASE_ADDR_LIST
0000000000224778 g     F ro	00000000000000c8 dle_factor_handler
0000000000227498 g     F ro	0000000000000134 dump_dramc_ctx
0000000000201738 g     F ro	0000000000000014 bl2_el3_setup
000000000020b054 g     F ro	00000000000000e4 vAutoRefreshSwitch
0000000000218ae0 g     F ro	0000000000000d70 DIG_CONFIG_SHUF_MISC_FIX
0000000000204ffc g     F ro	000000000000002c console_is_registered
0000000000227964 g     F ro	0000000000000068 DramcHWGatingOnOff
000000000020d31c g     F ro	000000000000003c __meta_backup_and_set
000000000023623e g     O .bss	000000000000001c gMRVal
000000000021fdb0 g     F ro	000000000000011c DFSInitForCalibration
000000000020475c g     F ro	000000000000006c plat_get_image_source
00000000002063dc g     F ro	000000000000011c PC4_DRAM_config
000000000021eec0 g     F ro	0000000000000030 SetCKE2RankIndependent
0000000000224840 g     F ro	0000000000000238 DramcRxdatlatCal
0000000000204f68 g     F ro	0000000000000094 tf_log
0000000000204064 g     F ro	0000000000000064 mtk_gpt_init
000000000020207c g     F ro	0000000000000028 io_register_device
000000000020b138 g     F ro	0000000000000094 vCKERankCtrl
000000000020dd98 g     F ro	00000000000000c0 DIG_HW_NONSHUF_ZQCAL_CFG
000000000020d358 g     F ro	0000000000000030 __meta_advance
0000000000233130 g       ro	0000000000000000 __FCONF_POPULATOR_START__
000000000020d9ec g     F ro	00000000000000e4 vPhyByteIO32WriteMsk_All
0000000000209a90 g     F ro	0000000000000040 Before_Init_DRAM_While_Reserve_Mode_fail
0000000000201260 g     F ro	0000000000000014 cpu_rev_var_ls
0000000000201350 g     F ro	0000000000000018 console_hsuart_core_getc
000000000020ded0 g     F ro	0000000000000068 DIG_HW_NONSHUF_ZQCAL_SWITCH
0000000000237000 g       .bss	0000000000000000 __RW_END__
00000000002361b4 g     O .bss	0000000000000004 g_ddr_reserve_enable
0000000000207cdc g     F ro	0000000000000008 vSetDFSTable
000000000021d93c g     F ro	00000000000001b0 PC3_dram_init_single_rank
000000000021a684 g     F ro	000000000000005c release_dram
0000000000237000 g       coherent_ram	0000000000000000 __COHERENT_RAM_END_UNALIGNED__
000000000021f9d0 g     F ro	00000000000001c8 PC3_UpdateInitialSettings
0000000000201368 g     F ro	0000000000000038 console_hsuart_core_putc
000000000020a990 g     F ro	00000000000000c0 SetClkFreeRun
000000000020d148 g     F ro	0000000000000050 __meta_set
000000000020c134 g     F ro	000000000000003c u1NeedSkipDPMRG
000000000020e12c g     F ro	0000000000000404 DIG_HW_SHUF_IMPCAL_CFG
000000000021ba3c g     F ro	0000000000000524 get_TX_path_config
000000000020184c g     F ro	0000000000000064 get_bl_load_info_from_mem_params_desc
0000000000234580 g       stacks	0000000000000000 __STACKS_START__
000000000020f114 g     F ro	000000000000002c get_max_val
0000000000235868 g     O .bss	0000000000000140 emi_settings
0000000000236540 g       .bss	0000000000000000 __PMF_TIMESTAMP_END__
0000000000201000 g       ro	0000000000000000 __TEXT_RESIDENT_START__
00000000002036c8 g     F ro	0000000000000004 xz_dec_lzma2_end
00000000002277d4 g     F ro	0000000000000044 DDR_Enable_Gating_Tracking
000000000020bbf8 g     F ro	00000000000000a8 TA2_Show_Cnt
0000000000236540 g       coherent_ram	0000000000000000 __XLAT_TABLE_END__
0000000000206634 g     F ro	0000000000001590 DdrUpdateACTiming
00000000002046ec g     F ro	000000000000002c bl2_plat_handle_pre_image_load
000000000020d4c4 g     F ro	0000000000000138 u4PhyAoByteSwap
000000000020d7f4 g     F ro	0000000000000088 vIO32WriteMsk
00000000002231f8 g     F ro	000000000000007c DramcRxWinRDDQCEnd
000000000021bf60 g     F ro	0000000000000f44 calculate_TX_path_rg_val
00000000002342e8 g     O .data	0000000000000008 psCurrDramCtx
0000000000215f10 g     F ro	0000000000000384 DIG_PHY_config
00000000002185f8 g     F ro	000000000000020c PINMUX_BYTE_SWAP_CONFIG
0000000000202004 g     F ro	0000000000000038 register_io_dev_memmap
0000000000216294 g     F ro	0000000000000140 GATING_MODE_CFG
0000000000206320 g     F ro	00000000000000bc Get_WL_by_MR_PC4
000000000020b23c g     F ro	0000000000000054 DramcSetRankEngine2
000000000021aeb0 g     F ro	0000000000000120 get_dq_ca_p2s_latency
00000000002211e8 g     F ro	000000000000007c ShiftDQUI_AllRK
000000000020aa9c g     F ro	000000000000002c DramcBroadcastOnOff
0000000000224a78 g     F ro	0000000000000074 DramcDualRankRxdatlatCal
0000000000204aa4 g     F ro	0000000000000028 mt_get_gpio_in
0000000000204b04 g     F ro	0000000000000024 mt_get_pinmux_mode
0000000000204b34 g     F ro	00000000000002d4 mtk_pll_init
00000000002020d8 g     F ro	000000000000001c io_dev_close
000000000020e844 g     F ro	0000000000000004 DIG_HW_SHUF_SWITCH
000000000023623c g     O .bss	0000000000000002 gddrphyfmeter_value
000000000023650d g     O .bss	0000000000000008 ucbest_coarse_ui_backup
0000000000221564 g     F ro	0000000000000ba4 DramcWriteLeveling
00000000002014b4  w      ro	0000000000000000 el3_panic
000000000020acbc g     F ro	00000000000000ac GetFreqBySel
0000000000201e80 g     F ro	0000000000000038 register_io_dev_fip
0000000000201af4 g     F ro	000000000000000c gpio_init
000000000020aa70 g     F ro	0000000000000010 u1IsLP4Family
0000000000215da8 g     F ro	000000000000007c ANA_init_DRM
00000000002364b2 g     O .bss	0000000000000008 PC3_INIT
0000000000212728 g     F ro	0000000000000708 ANA_TX_nonshuffle_config
000000000023453f g     O .data	0000000000000001 u1MaType
000000000021eef0 g     F ro	0000000000000048 DramcShuTrackingDcmEnBySRAM
0000000000207ce4 g     F ro	000000000000002c vSetDFSFreqSelByTable
00000000002040c8 g     F ro	0000000000000060 mtk_gpt_get_counter
0000000000235738 g     O .bss	0000000000000008 console_list
0000000000213bac g     F ro	00000000000001c0 SPM_control
0000000000213f74 g     F ro	000000000000022c ANA_CLOCK_SWITCH_WITH_MD32
0000000000204754 g     F ro	0000000000000004 plat_get_next_bl_params
000000000020e580 g     F ro	0000000000000084 DIG_HW_NONSHUF_DQSG_SWITCH
00000000002364cc g     O .bss	0000000000000010 HW_IMPCAL_CTRL
000000000023649a g     O .bss	0000000000000007 _MappingFreqArray
000000000021331c g     F ro	00000000000003e0 ANA_RX_shuffle_config
0000000000227138 g     F ro	00000000000000a0 vCalibration_Flow_For_MDL
0000000000204b28 g     F ro	000000000000000c mtk_pin_init
0000000000201988 g     F ro	000000000000001c image_decompress_init
0000000000233015 g     O ro	0000000000000010 PCDDR4_O1_Mapping_POP
0000000000227818 g     F ro	000000000000014c Enable_ClkTxRxLatchEn
000000000020ac0c g     F ro	000000000000000c vGet_DDR_Loop_Mode
000000000020f140 g     F ro	000000000000002c get_min_val
000000000020bca0 g     F ro	00000000000000e8 TA2_Test_Run_Time_HW_Status
00000000002205e0 g     F ro	00000000000001b0 vPrintCalibrationResult
0000000000213ab0 g     F ro	00000000000000fc SUSPEND_ON
0000000000233130 g       ro	0000000000000000 __PARSER_LIB_DESCS_START__



Disassembly of section ro:

0000000000201000 <bl2_entrypoint>:
  201000:	aa0003f4 	mov	x20, x0
  201004:	aa0103f5 	mov	x21, x1
  201008:	aa0203f6 	mov	x22, x2
  20100c:	aa0303f7 	mov	x23, x3
  201010:	d2810600 	mov	x0, #0x830                 	// #2096
  201014:	f2a618a0 	movk	x0, #0x30c5, lsl #16
  201018:	d51e1000 	msr	sctlr_el3, x0
  20101c:	d5033fdf 	isb
  201020:	10193f00 	adr	x0, 233800 <SynchronousExceptionSP0>
  201024:	d51ec000 	msr	vbar_el3, x0
  201028:	d5033fdf 	isb
  20102c:	94000071 	bl	2011f0 <reset_handler>
  201030:	d2820141 	mov	x1, #0x100a                	// #4106
  201034:	d53e1000 	mrs	x0, sctlr_el3
  201038:	aa010000 	orr	x0, x0, x1
  20103c:	d51e1000 	msr	sctlr_el3, x0
  201040:	d5033fdf 	isb
  201044:	d2804700 	mov	x0, #0x238                 	// #568
  201048:	d51e1100 	msr	scr_el3, x0
  20104c:	d2900000 	mov	x0, #0x8000                	// #32768
  201050:	f2a01020 	movk	x0, #0x81, lsl #16
  201054:	f2c00080 	movk	x0, #0x4, lsl #32
  201058:	d5380501 	mrs	x1, id_aa64dfr0_el1
  20105c:	d368ac21 	ubfx	x1, x1, #40, #4
  201060:	b4000041 	cbz	x1, 201068 <bl2_entrypoint+0x68>
  201064:	b26d0000 	orr	x0, x0, #0x80000
  201068:	d51e1320 	msr	mdcr_el3, x0
  20106c:	d2801c00 	mov	x0, #0xe0                  	// #224
  201070:	d51b9c00 	msr	pmcr_el0, x0
  201074:	d50344ff 	msr	daifclr, #0x4
  201078:	d2a80000 	mov	x0, #0x40000000            	// #1073741824
  20107c:	d5380501 	mrs	x1, id_aa64dfr0_el1
  201080:	d3441c21 	ubfx	x1, x1, #4, #4
  201084:	b4000041 	cbz	x1, 20108c <bl2_entrypoint+0x8c>
  201088:	b26c0000 	orr	x0, x0, #0x100000
  20108c:	d51e1140 	msr	cptr_el3, x0
  201090:	94000dd9 	bl	2047f4 <plat_is_my_cpu_primary>
  201094:	35000060 	cbnz	w0, 2010a0 <do_primary_cold_boot>
  201098:	940000e4 	bl	201428 <plat_secondary_cold_boot_setup>
  20109c:	94000106 	bl	2014b4 <do_panic>

00000000002010a0 <do_primary_cold_boot>:
  2010a0:	94000dd7 	bl	2047fc <platform_mem_init>
  2010a4:	f0000180 	adrp	x0, 234000 <__RO_END_UNALIGNED__>
  2010a8:	91000000 	add	x0, x0, #0x0
  2010ac:	d00001a1 	adrp	x1, 237000 <__BL2_END__>
  2010b0:	91000021 	add	x1, x1, #0x0
  2010b4:	cb000021 	sub	x1, x1, x0
  2010b8:	94000119 	bl	20151c <inv_dcache_range>
  2010bc:	900001a0 	adrp	x0, 235000 <__STACKS_START__+0xa80>
  2010c0:	91160000 	add	x0, x0, #0x580
  2010c4:	b00001a1 	adrp	x1, 236000 <LP5_INIT+0x174>
  2010c8:	91150021 	add	x1, x1, #0x540
  2010cc:	cb000021 	sub	x1, x1, x0
  2010d0:	94000121 	bl	201554 <zeromem>
  2010d4:	d00001a0 	adrp	x0, 237000 <__BL2_END__>
  2010d8:	91000000 	add	x0, x0, #0x0
  2010dc:	d00001a1 	adrp	x1, 237000 <__BL2_END__>
  2010e0:	91000021 	add	x1, x1, #0x0
  2010e4:	cb000021 	sub	x1, x1, x0
  2010e8:	9400011b 	bl	201554 <zeromem>
  2010ec:	d50040bf 	msr	spsel, #0x0
  2010f0:	94000066 	bl	201288 <plat_set_my_stack>
  2010f4:	aa1403e0 	mov	x0, x20
  2010f8:	aa1503e1 	mov	x1, x21
  2010fc:	aa1603e2 	mov	x2, x22
  201100:	aa1703e3 	mov	x3, x23
  201104:	9400018d 	bl	201738 <bl2_el3_setup>
  201108:	94000191 	bl	20174c <bl2_main>
  20110c:	94000159 	bl	201670 <plat_panic_handler>

0000000000201110 <bl2_run_next_image>:
  201110:	aa0003f4 	mov	x20, x0
  201114:	94000153 	bl	201660 <disable_mmu_icache_el3>
  201118:	d50e871f 	tlbi	alle3
  20111c:	9400100f 	bl	205158 <bl2_el3_plat_prepare_exit>
  201120:	a9408680 	ldp	x0, x1, [x20, #8]
  201124:	d51e4020 	msr	elr_el3, x0
  201128:	d51e4001 	msr	spsr_el3, x1
  20112c:	a9449e86 	ldp	x6, x7, [x20, #72]
  201130:	a9439684 	ldp	x4, x5, [x20, #56]
  201134:	a9428e82 	ldp	x2, x3, [x20, #40]
  201138:	a9418680 	ldp	x0, x1, [x20, #24]
  20113c:	d69f03e0 	eret
  201140:	d503379f 	dsb	nsh
  201144:	d5033fdf 	isb

0000000000201148 <errata_a53_826319_wa>:
  201148:	aa1e03f1 	mov	x17, x30
  20114c:	94000007 	bl	201168 <check_errata_826319>
  201150:	b40000a0 	cbz	x0, 201164 <errata_a53_826319_wa+0x1c>
  201154:	d539f001 	mrs	x1, s3_1_c15_c0_0
  201158:	9271f821 	and	x1, x1, #0xffffffffffffbfff
  20115c:	b27d0021 	orr	x1, x1, #0x8
  201160:	d519f001 	msr	s3_1_c15_c0_0, x1
  201164:	d65f0220 	ret	x17

0000000000201168 <check_errata_826319>:
  201168:	d2800041 	mov	x1, #0x2                   	// #2
  20116c:	1400003d 	b	201260 <cpu_rev_var_ls>

0000000000201170 <a53_disable_non_temporal_hint>:
  201170:	aa1e03f1 	mov	x17, x30
  201174:	94000006 	bl	20118c <check_errata_disable_non_temporal_hint>
  201178:	b4000080 	cbz	x0, 201188 <a53_disable_non_temporal_hint+0x18>
  20117c:	d539f201 	mrs	x1, s3_1_c15_c2_0
  201180:	b2680021 	orr	x1, x1, #0x1000000
  201184:	d519f201 	msr	s3_1_c15_c2_0, x1
  201188:	d65f0220 	ret	x17

000000000020118c <check_errata_disable_non_temporal_hint>:
  20118c:	d2800061 	mov	x1, #0x3                   	// #3
  201190:	14000034 	b	201260 <cpu_rev_var_ls>

0000000000201194 <errata_a53_855873_wa>:
  201194:	aa1e03f1 	mov	x17, x30
  201198:	94000006 	bl	2011b0 <check_errata_855873>
  20119c:	b4000080 	cbz	x0, 2011ac <errata_a53_855873_wa+0x18>
  2011a0:	d539f201 	mrs	x1, s3_1_c15_c2_0
  2011a4:	b2540021 	orr	x1, x1, #0x100000000000
  2011a8:	d519f201 	msr	s3_1_c15_c2_0, x1
  2011ac:	d65f0220 	ret	x17

00000000002011b0 <check_errata_855873>:
  2011b0:	d2800061 	mov	x1, #0x3                   	// #3
  2011b4:	14000030 	b	201274 <cpu_rev_var_hs>

00000000002011b8 <cortex_a53_reset_func>:
  2011b8:	aa1e03f3 	mov	x19, x30
  2011bc:	94000025 	bl	201250 <cpu_get_rev_var>
  2011c0:	aa0003f2 	mov	x18, x0
  2011c4:	aa1203e0 	mov	x0, x18
  2011c8:	97ffffe0 	bl	201148 <errata_a53_826319_wa>
  2011cc:	aa1203e0 	mov	x0, x18
  2011d0:	97ffffe8 	bl	201170 <a53_disable_non_temporal_hint>
  2011d4:	aa1203e0 	mov	x0, x18
  2011d8:	97ffffef 	bl	201194 <errata_a53_855873_wa>
  2011dc:	d539f220 	mrs	x0, s3_1_c15_c2_1
  2011e0:	b27a0000 	orr	x0, x0, #0x40
  2011e4:	d519f220 	msr	s3_1_c15_c2_1, x0
  2011e8:	d5033fdf 	isb
  2011ec:	d65f0260 	ret	x19

00000000002011f0 <reset_handler>:
  2011f0:	aa1e03f3 	mov	x19, x30
  2011f4:	9400011e 	bl	20166c <plat_reset_handler>
  2011f8:	94000006 	bl	201210 <get_cpu_ops_ptr>
  2011fc:	f9400402 	ldr	x2, [x0, #8]
  201200:	aa1303fe 	mov	x30, x19
  201204:	b4000042 	cbz	x2, 20120c <reset_handler+0x1c>
  201208:	d61f0040 	br	x2
  20120c:	d65f03c0 	ret

0000000000201210 <get_cpu_ops_ptr>:
  201210:	d5380002 	mrs	x2, midr_el1
  201214:	d29ffe03 	mov	x3, #0xfff0                	// #65520
  201218:	f2bfe003 	movk	x3, #0xff00, lsl #16
  20121c:	0a030042 	and	w2, w2, w3
  201220:	1018fa05 	adr	x5, 233160 <__CPU_OPS_END__>
  201224:	d2800000 	mov	x0, #0x0                   	// #0
  201228:	1018f844 	adr	x4, 233130 <__CPU_OPS_START__>
  20122c:	eb05009f 	cmp	x4, x5
  201230:	540000e0 	b.eq	20124c <search_def_ptr>  // b.none
  201234:	f8430481 	ldr	x1, [x4], #48
  201238:	0a030021 	and	w1, w1, w3
  20123c:	6b02003f 	cmp	w1, w2
  201240:	54ffff61 	b.ne	20122c <get_cpu_ops_ptr+0x1c>  // b.any
  201244:	d100c080 	sub	x0, x4, #0x30
  201248:	d65f03c0 	ret

000000000020124c <search_def_ptr>:
  20124c:	d65f03c0 	ret

0000000000201250 <cpu_get_rev_var>:
  201250:	d5380001 	mrs	x1, midr_el1
  201254:	d3505c20 	ubfx	x0, x1, #16, #8
  201258:	b3400c20 	bfxil	x0, x1, #0, #4
  20125c:	d65f03c0 	ret

0000000000201260 <cpu_rev_var_ls>:
  201260:	d2800022 	mov	x2, #0x1                   	// #1
  201264:	d2800003 	mov	x3, #0x0                   	// #0
  201268:	eb01001f 	cmp	x0, x1
  20126c:	9a839040 	csel	x0, x2, x3, ls	// ls = plast
  201270:	d65f03c0 	ret

0000000000201274 <cpu_rev_var_hs>:
  201274:	d2800022 	mov	x2, #0x1                   	// #1
  201278:	d2800003 	mov	x3, #0x0                   	// #0
  20127c:	eb01001f 	cmp	x0, x1
  201280:	9a832040 	csel	x0, x2, x3, cs	// cs = hs, nlast
  201284:	d65f03c0 	ret

0000000000201288 <plat_set_my_stack>:
  201288:	900001a0 	adrp	x0, 235000 <__STACKS_START__+0xa80>
  20128c:	91160000 	add	x0, x0, #0x580
  201290:	9100001f 	mov	sp, x0
  201294:	d65f03c0 	ret

0000000000201298 <console_hsuart_init>:
  201298:	b4000580 	cbz	x0, 201348 <init_fail>
  20129c:	34000561 	cbz	w1, 201348 <init_fail>
  2012a0:	34000542 	cbz	w2, 201348 <init_fail>
  2012a4:	b900041f 	str	wzr, [x0, #4]
  2012a8:	52800064 	mov	w4, #0x3                   	// #3
  2012ac:	b9001004 	str	w4, [x0, #16]
  2012b0:	528000e4 	mov	w4, #0x7                   	// #7
  2012b4:	b9000804 	str	w4, [x0, #8]
  2012b8:	6b1f007f 	cmp	w3, wzr
  2012bc:	540000a1 	b.ne	2012d0 <set_baud_force_high_speed>  // b.any
  2012c0:	52984003 	mov	w3, #0xc200                	// #49664
  2012c4:	72a00023 	movk	w3, #0x1, lsl #16
  2012c8:	6b03005f 	cmp	w2, w3
  2012cc:	5400016d 	b.le	2012f8 <set_baud_low_speed>

00000000002012d0 <set_baud_force_high_speed>:
  2012d0:	52800063 	mov	w3, #0x3                   	// #3
  2012d4:	b9002403 	str	w3, [x0, #36]
  2012d8:	51000423 	sub	w3, w1, #0x1
  2012dc:	53185c44 	lsl	w4, w2, #8
  2012e0:	0b040063 	add	w3, w3, w4
  2012e4:	1ac40863 	udiv	w3, w3, w4
  2012e8:	1b027c62 	mul	w2, w3, w2
  2012ec:	0b420421 	add	w1, w1, w2, lsr #1
  2012f0:	1ac20821 	udiv	w1, w1, w2
  2012f4:	14000006 	b	20130c <set_divisor>

00000000002012f8 <set_baud_low_speed>:
  2012f8:	b900241f 	str	wzr, [x0, #36]
  2012fc:	0b020c21 	add	w1, w1, w2, lsl #3
  201300:	531c6c42 	lsl	w2, w2, #4
  201304:	1ac20823 	udiv	w3, w1, w2
  201308:	52800021 	mov	w1, #0x1                   	// #1

000000000020130c <set_divisor>:
  20130c:	52801062 	mov	w2, #0x83                  	// #131
  201310:	b9000c02 	str	w2, [x0, #12]
  201314:	12001c62 	and	w2, w3, #0xff
  201318:	b9000002 	str	w2, [x0]
  20131c:	53083c63 	ubfx	w3, w3, #8, #8
  201320:	b9000403 	str	w3, [x0, #4]
  201324:	52800062 	mov	w2, #0x3                   	// #3
  201328:	b9000c02 	str	w2, [x0, #12]
  20132c:	51000423 	sub	w3, w1, #0x1
  201330:	b9002803 	str	w3, [x0, #40]
  201334:	51000821 	sub	w1, w1, #0x2
  201338:	13017c21 	asr	w1, w1, #1
  20133c:	b9002c01 	str	w1, [x0, #44]
  201340:	52800020 	mov	w0, #0x1                   	// #1
  201344:	d65f03c0 	ret

0000000000201348 <init_fail>:
  201348:	2a1f03e0 	mov	w0, wzr
  20134c:	d65f03c0 	ret

0000000000201350 <console_hsuart_core_getc>:
  201350:	b9401401 	ldr	w1, [x0, #20]
  201354:	36000061 	tbz	w1, #0, 201360 <no_char>
  201358:	b9400000 	ldr	w0, [x0]
  20135c:	d65f03c0 	ret

0000000000201360 <no_char>:
  201360:	12800000 	mov	w0, #0xffffffff            	// #-1
  201364:	d65f03c0 	ret

0000000000201368 <console_hsuart_core_putc>:
  201368:	7100281f 	cmp	w0, #0xa
  20136c:	540000e1 	b.ne	201388 <console_hsuart_core_putc+0x20>  // b.any
  201370:	b9401422 	ldr	w2, [x1, #20]
  201374:	121b0442 	and	w2, w2, #0x60
  201378:	7101805f 	cmp	w2, #0x60
  20137c:	54ffffa1 	b.ne	201370 <console_hsuart_core_putc+0x8>  // b.any
  201380:	528001a2 	mov	w2, #0xd                   	// #13
  201384:	b9000022 	str	w2, [x1]
  201388:	b9401422 	ldr	w2, [x1, #20]
  20138c:	121b0442 	and	w2, w2, #0x60
  201390:	7101805f 	cmp	w2, #0x60
  201394:	54ffffa1 	b.ne	201388 <console_hsuart_core_putc+0x20>  // b.any
  201398:	b9000020 	str	w0, [x1]
  20139c:	d65f03c0 	ret

00000000002013a0 <console_hsuart_core_flush>:
  2013a0:	b9401401 	ldr	w1, [x0, #20]
  2013a4:	121b0421 	and	w1, w1, #0x60
  2013a8:	7101803f 	cmp	w1, #0x60
  2013ac:	54ffffa1 	b.ne	2013a0 <console_hsuart_core_flush>  // b.any
  2013b0:	2a1f03e0 	mov	w0, wzr
  2013b4:	d65f03c0 	ret

00000000002013b8 <console_hsuart_getc>:
  2013b8:	f9401400 	ldr	x0, [x0, #40]
  2013bc:	17ffffe5 	b	201350 <console_hsuart_core_getc>

00000000002013c0 <console_hsuart_putc>:
  2013c0:	f9401421 	ldr	x1, [x1, #40]
  2013c4:	17ffffe9 	b	201368 <console_hsuart_core_putc>

00000000002013c8 <console_hsuart_flush>:
  2013c8:	f9401400 	ldr	x0, [x0, #40]
  2013cc:	17fffff5 	b	2013a0 <console_hsuart_core_flush>

00000000002013d0 <console_hsuart_register>:
  2013d0:	aa1e03e7 	mov	x7, x30
  2013d4:	aa0403e6 	mov	x6, x4
  2013d8:	b4000266 	cbz	x6, 201424 <register_fail>
  2013dc:	f90014c0 	str	x0, [x6, #40]
  2013e0:	34000061 	cbz	w1, 2013ec <register_hsuart>
  2013e4:	97ffffad 	bl	201298 <console_hsuart_init>
  2013e8:	b40001e0 	cbz	x0, 201424 <register_fail>

00000000002013ec <register_hsuart>:
  2013ec:	aa0603e0 	mov	x0, x6
  2013f0:	aa0703fe 	mov	x30, x7
  2013f4:	90000001 	adrp	x1, 201000 <bl2_entrypoint>
  2013f8:	910f0021 	add	x1, x1, #0x3c0
  2013fc:	f9000801 	str	x1, [x0, #16]
  201400:	90000001 	adrp	x1, 201000 <bl2_entrypoint>
  201404:	910ee021 	add	x1, x1, #0x3b8
  201408:	f9000c01 	str	x1, [x0, #24]
  20140c:	90000001 	adrp	x1, 201000 <bl2_entrypoint>
  201410:	910f2021 	add	x1, x1, #0x3c8
  201414:	f9001001 	str	x1, [x0, #32]
  201418:	d28000a1 	mov	x1, #0x5                   	// #5
  20141c:	f9000401 	str	x1, [x0, #8]
  201420:	14000f02 	b	205028 <console_register>

0000000000201424 <register_fail>:
  201424:	d65f00e0 	ret	x7

0000000000201428 <plat_secondary_cold_boot_setup>:
  201428:	14000000 	b	201428 <plat_secondary_cold_boot_setup>

000000000020142c <plat_crash_console_init>:
  20142c:	d2840000 	mov	x0, #0x2000                	// #8192
  201430:	f2a22000 	movk	x0, #0x1100, lsl #16
  201434:	d28b4001 	mov	x1, #0x5a00                	// #23040
  201438:	f2a04c41 	movk	x1, #0x262, lsl #16
  20143c:	d2984002 	mov	x2, #0xc200                	// #49664
  201440:	f2a00022 	movk	x2, #0x1, lsl #16
  201444:	d2800023 	mov	x3, #0x1                   	// #1
  201448:	17ffff94 	b	201298 <console_hsuart_init>

000000000020144c <plat_crash_console_putc>:
  20144c:	d2840001 	mov	x1, #0x2000                	// #8192
  201450:	f2a22001 	movk	x1, #0x1100, lsl #16
  201454:	17ffffc5 	b	201368 <console_hsuart_core_putc>

0000000000201458 <plat_crash_console_flush>:
  201458:	d2840000 	mov	x0, #0x2000                	// #8192
  20145c:	f2a22000 	movk	x0, #0x1100, lsl #16
  201460:	17ffffd0 	b	2013a0 <console_hsuart_core_flush>

0000000000201464 <asm_print_str>:
  201464:	aa1e03e3 	mov	x3, x30
  201468:	38401480 	ldrb	w0, [x4], #1
  20146c:	b4000060 	cbz	x0, 201478 <asm_print_str+0x14>
  201470:	97fffff7 	bl	20144c <plat_crash_console_putc>
  201474:	17fffffd 	b	201468 <asm_print_str+0x4>
  201478:	d65f0060 	ret	x3

000000000020147c <asm_print_hex>:
  20147c:	d2800805 	mov	x5, #0x40                  	// #64

0000000000201480 <asm_print_hex_bits>:
  201480:	aa1e03e3 	mov	x3, x30
  201484:	d10010a5 	sub	x5, x5, #0x4
  201488:	9ac52480 	lsr	x0, x4, x5
  20148c:	92400c00 	and	x0, x0, #0xf
  201490:	f100281f 	cmp	x0, #0xa
  201494:	54000043 	b.cc	20149c <asm_print_hex_bits+0x1c>  // b.lo, b.ul, b.last
  201498:	91009c00 	add	x0, x0, #0x27
  20149c:	9100c000 	add	x0, x0, #0x30
  2014a0:	97ffffeb 	bl	20144c <plat_crash_console_putc>
  2014a4:	b5ffff05 	cbnz	x5, 201484 <asm_print_hex_bits+0x4>
  2014a8:	d65f0060 	ret	x3

00000000002014ac <asm_print_newline>:
  2014ac:	d2800140 	mov	x0, #0xa                   	// #10
  2014b0:	17ffffe7 	b	20144c <plat_crash_console_putc>

00000000002014b4 <do_panic>:
  2014b4:	aa1e03e6 	mov	x6, x30
  2014b8:	97ffffdd 	bl	20142c <plat_crash_console_init>
  2014bc:	b4000100 	cbz	x0, 2014dc <_panic_handler>
  2014c0:	5018cfe4 	adr	x4, 232ebe <panic_msg>
  2014c4:	97ffffe8 	bl	201464 <asm_print_str>
  2014c8:	aa0603e4 	mov	x4, x6
  2014cc:	d1001084 	sub	x4, x4, #0x4
  2014d0:	97ffffeb 	bl	20147c <asm_print_hex>
  2014d4:	97fffff6 	bl	2014ac <asm_print_newline>
  2014d8:	97ffffe0 	bl	201458 <plat_crash_console_flush>

00000000002014dc <_panic_handler>:
  2014dc:	aa0603fe 	mov	x30, x6
  2014e0:	14000064 	b	201670 <plat_panic_handler>

00000000002014e4 <flush_dcache_range>:
  2014e4:	b40001a1 	cbz	x1, 201518 <exit_loop_civac>
  2014e8:	d53b0023 	mrs	x3, ctr_el0
  2014ec:	d3504c63 	ubfx	x3, x3, #16, #4
  2014f0:	d2800082 	mov	x2, #0x4                   	// #4
  2014f4:	9ac32042 	lsl	x2, x2, x3
  2014f8:	8b010001 	add	x1, x0, x1
  2014fc:	d1000443 	sub	x3, x2, #0x1
  201500:	8a230000 	bic	x0, x0, x3

0000000000201504 <loop_civac>:
  201504:	d50b7e20 	dc	civac, x0
  201508:	8b020000 	add	x0, x0, x2
  20150c:	eb01001f 	cmp	x0, x1
  201510:	54ffffa3 	b.cc	201504 <loop_civac>  // b.lo, b.ul, b.last
  201514:	d5033f9f 	dsb	sy

0000000000201518 <exit_loop_civac>:
  201518:	d65f03c0 	ret

000000000020151c <inv_dcache_range>:
  20151c:	b40001a1 	cbz	x1, 201550 <exit_loop_ivac>
  201520:	d53b0023 	mrs	x3, ctr_el0
  201524:	d3504c63 	ubfx	x3, x3, #16, #4
  201528:	d2800082 	mov	x2, #0x4                   	// #4
  20152c:	9ac32042 	lsl	x2, x2, x3
  201530:	8b010001 	add	x1, x0, x1
  201534:	d1000443 	sub	x3, x2, #0x1
  201538:	8a230000 	bic	x0, x0, x3

000000000020153c <loop_ivac>:
  20153c:	d5087620 	dc	ivac, x0
  201540:	8b020000 	add	x0, x0, x2
  201544:	eb01001f 	cmp	x0, x1
  201548:	54ffffa3 	b.cc	20153c <loop_ivac>  // b.lo, b.ul, b.last
  20154c:	d5033f9f 	dsb	sy

0000000000201550 <exit_loop_ivac>:
  201550:	d65f03c0 	ret

0000000000201554 <zeromem>:
  201554:	8b010002 	add	x2, x0, x1
  201558:	14000030 	b	201618 <zero_normalmem+0xbc>

000000000020155c <zero_normalmem>:
  20155c:	8b010002 	add	x2, x0, x1
  201560:	d53b00e3 	mrs	x3, dczid_el0
  201564:	d3400c63 	ubfx	x3, x3, #0, #4
  201568:	d2800085 	mov	x5, #0x4                   	// #4
  20156c:	9ac320a3 	lsl	x3, x5, x3
  201570:	eb03003f 	cmp	x1, x3
  201574:	54000523 	b.cc	201618 <zero_normalmem+0xbc>  // b.lo, b.ul, b.last
  201578:	d1000461 	sub	x1, x3, #0x1
  20157c:	ea01001f 	tst	x0, x1
  201580:	54000260 	b.eq	2015cc <zero_normalmem+0x70>  // b.none
  201584:	aa010004 	orr	x4, x0, x1
  201588:	91000484 	add	x4, x4, #0x1
  20158c:	b4000464 	cbz	x4, 201618 <zero_normalmem+0xbc>
  201590:	eb02009f 	cmp	x4, x2
  201594:	54000428 	b.hi	201618 <zero_normalmem+0xbc>  // b.pmore
  201598:	f2400c1f 	tst	x0, #0xf
  20159c:	540000e0 	b.eq	2015b8 <zero_normalmem+0x5c>  // b.none
  2015a0:	b2400c05 	orr	x5, x0, #0xf
  2015a4:	910004a5 	add	x5, x5, #0x1
  2015a8:	b4000385 	cbz	x5, 201618 <zero_normalmem+0xbc>
  2015ac:	3800141f 	strb	wzr, [x0], #1
  2015b0:	eb05001f 	cmp	x0, x5
  2015b4:	54ffffc1 	b.ne	2015ac <zero_normalmem+0x50>  // b.any
  2015b8:	eb04001f 	cmp	x0, x4
  2015bc:	54000082 	b.cs	2015cc <zero_normalmem+0x70>  // b.hs, b.nlast
  2015c0:	a8817c1f 	stp	xzr, xzr, [x0], #16
  2015c4:	eb04001f 	cmp	x0, x4
  2015c8:	54ffffc3 	b.cc	2015c0 <zero_normalmem+0x64>  // b.lo, b.ul, b.last
  2015cc:	8a210044 	bic	x4, x2, x1
  2015d0:	eb04001f 	cmp	x0, x4
  2015d4:	540000a2 	b.cs	2015e8 <zero_normalmem+0x8c>  // b.hs, b.nlast
  2015d8:	d50b7420 	dc	zva, x0
  2015dc:	8b030000 	add	x0, x0, x3
  2015e0:	eb04001f 	cmp	x0, x4
  2015e4:	54ffffa3 	b.cc	2015d8 <zero_normalmem+0x7c>  // b.lo, b.ul, b.last
  2015e8:	927cec44 	and	x4, x2, #0xfffffffffffffff0
  2015ec:	eb04001f 	cmp	x0, x4
  2015f0:	54000082 	b.cs	201600 <zero_normalmem+0xa4>  // b.hs, b.nlast
  2015f4:	a8817c1f 	stp	xzr, xzr, [x0], #16
  2015f8:	eb04001f 	cmp	x0, x4
  2015fc:	54ffffc3 	b.cc	2015f4 <zero_normalmem+0x98>  // b.lo, b.ul, b.last
  201600:	eb02001f 	cmp	x0, x2
  201604:	54000080 	b.eq	201614 <zero_normalmem+0xb8>  // b.none
  201608:	3800141f 	strb	wzr, [x0], #1
  20160c:	eb02001f 	cmp	x0, x2
  201610:	54ffffc1 	b.ne	201608 <zero_normalmem+0xac>  // b.any
  201614:	d65f03c0 	ret
  201618:	f2400c1f 	tst	x0, #0xf
  20161c:	54fffe60 	b.eq	2015e8 <zero_normalmem+0x8c>  // b.none
  201620:	b2400c04 	orr	x4, x0, #0xf
  201624:	91000484 	add	x4, x4, #0x1
  201628:	b4fffec4 	cbz	x4, 201600 <zero_normalmem+0xa4>
  20162c:	eb02009f 	cmp	x4, x2
  201630:	54fffe82 	b.cs	201600 <zero_normalmem+0xa4>  // b.hs, b.nlast
  201634:	3800141f 	strb	wzr, [x0], #1
  201638:	eb04001f 	cmp	x0, x4
  20163c:	54ffffc1 	b.ne	201634 <zero_normalmem+0xd8>  // b.any
  201640:	17ffffea 	b	2015e8 <zero_normalmem+0x8c>

0000000000201644 <disable_mmu_el3>:
  201644:	d28000a1 	mov	x1, #0x5                   	// #5

0000000000201648 <do_disable_mmu_el3>:
  201648:	d53e1000 	mrs	x0, sctlr_el3
  20164c:	8a210000 	bic	x0, x0, x1
  201650:	d51e1000 	msr	sctlr_el3, x0
  201654:	d5033fdf 	isb
  201658:	d5033f9f 	dsb	sy
  20165c:	d65f03c0 	ret

0000000000201660 <disable_mmu_icache_el3>:
  201660:	d28200a1 	mov	x1, #0x1005                	// #4101
  201664:	17fffff9 	b	201648 <do_disable_mmu_el3>

0000000000201668 <plat_report_exception>:
  201668:	d65f03c0 	ret

000000000020166c <plat_reset_handler>:
  20166c:	d65f03c0 	ret

0000000000201670 <plat_panic_handler>:
  201670:	d503207f 	wfi
  201674:	17ffffff 	b	201670 <plat_panic_handler>

0000000000201678 <bl2_arch_setup>:
  201678:	d2a00600 	mov	x0, #0x300000              	// #3145728
  20167c:	d5181040 	msr	cpacr_el1, x0
  201680:	d65f03c0 	ret

0000000000201684 <mtk_ar_update_bl_ar_ver>:
  201684:	52800000 	mov	w0, #0x0                   	// #0
  201688:	d65f03c0 	ret

000000000020168c <bl2_load_images>:
  20168c:	a9be7bfd 	stp	x29, x30, [sp, #-32]!
  201690:	910003fd 	mov	x29, sp
  201694:	a90153f3 	stp	x19, x20, [sp, #16]
  201698:	94000c2e 	bl	204750 <plat_get_bl_image_load_info>
  20169c:	52800014 	mov	w20, #0x0                   	// #0
  2016a0:	f9400413 	ldr	x19, [x0, #8]
  2016a4:	b5000213 	cbnz	x19, 2016e4 <bl2_load_images+0x58>
  2016a8:	94000c2b 	bl	204754 <plat_get_next_bl_params>
  2016ac:	aa0003f3 	mov	x19, x0
  2016b0:	f9400400 	ldr	x0, [x0, #8]
  2016b4:	f9400800 	ldr	x0, [x0, #16]
  2016b8:	f9400c01 	ldr	x1, [x0, #24]
  2016bc:	b5000041 	cbnz	x1, 2016c4 <bl2_load_images+0x38>
  2016c0:	f9000c13 	str	x19, [x0, #24]
  2016c4:	94000c25 	bl	204758 <plat_flush_next_bl_params>
  2016c8:	97ffffef 	bl	201684 <mtk_ar_update_bl_ar_ver>
  2016cc:	350001e0 	cbnz	w0, 201708 <bl2_load_images+0x7c>
  2016d0:	f9400660 	ldr	x0, [x19, #8]
  2016d4:	a94153f3 	ldp	x19, x20, [sp, #16]
  2016d8:	f9400800 	ldr	x0, [x0, #16]
  2016dc:	a8c27bfd 	ldp	x29, x30, [sp], #32
  2016e0:	d65f03c0 	ret
  2016e4:	f9400660 	ldr	x0, [x19, #8]
  2016e8:	b9400400 	ldr	w0, [x0, #4]
  2016ec:	36100080 	tbz	w0, #2, 2016fc <bl2_load_images+0x70>
  2016f0:	35000054 	cbnz	w20, 2016f8 <bl2_load_images+0x6c>
  2016f4:	94000bc5 	bl	204608 <bl2_platform_setup>
  2016f8:	52800034 	mov	w20, #0x1                   	// #1
  2016fc:	b9400260 	ldr	w0, [x19]
  201700:	94000bfb 	bl	2046ec <bl2_plat_handle_pre_image_load>
  201704:	34000040 	cbz	w0, 20170c <bl2_load_images+0x80>
  201708:	94000e95 	bl	20515c <plat_error_handler>
  20170c:	f9400661 	ldr	x1, [x19, #8]
  201710:	b9400260 	ldr	w0, [x19]
  201714:	b9400422 	ldr	w2, [x1, #4]
  201718:	37080062 	tbnz	w2, #1, 201724 <bl2_load_images+0x98>
  20171c:	94000ddd 	bl	204e90 <load_auth_image>
  201720:	35ffff40 	cbnz	w0, 201708 <bl2_load_images+0x7c>
  201724:	b9400260 	ldr	w0, [x19]
  201728:	94000bfc 	bl	204718 <bl2_plat_handle_post_image_load>
  20172c:	35fffee0 	cbnz	w0, 201708 <bl2_load_images+0x7c>
  201730:	f9400a73 	ldr	x19, [x19, #16]
  201734:	17ffffdc 	b	2016a4 <bl2_load_images+0x18>

0000000000201738 <bl2_el3_setup>:
  201738:	a9bf7bfd 	stp	x29, x30, [sp, #-16]!
  20173c:	910003fd 	mov	x29, sp
  201740:	94000c22 	bl	2047c8 <bl2_el3_early_platform_setup>
  201744:	a8c17bfd 	ldp	x29, x30, [sp], #16
  201748:	14000c2a 	b	2047f0 <bl2_el3_plat_arch_setup>

000000000020174c <bl2_main>:
  20174c:	a9be7bfd 	stp	x29, x30, [sp, #-32]!
  201750:	910003fd 	mov	x29, sp
  201754:	f9000bf3 	str	x19, [sp, #16]
  201758:	97ffffc8 	bl	201678 <bl2_arch_setup>
  20175c:	94000bdf 	bl	2046d8 <bl2_plat_preload_setup>
  201760:	97ffffcb 	bl	20168c <bl2_load_images>
  201764:	aa0003f3 	mov	x19, x0
  201768:	94000dff 	bl	204f64 <print_entry_point_info>
  20176c:	94000e66 	bl	205104 <console_flush>
  201770:	aa1303e0 	mov	x0, x19
  201774:	f9400bf3 	ldr	x19, [sp, #16]
  201778:	a8c27bfd 	ldp	x29, x30, [sp], #32
  20177c:	17fffe65 	b	201110 <bl2_run_next_image>

0000000000201780 <flush_bl_params_desc_args>:
  201780:	a9be7bfd 	stp	x29, x30, [sp, #-32]!
  201784:	910003fd 	mov	x29, sp
  201788:	f9000bf3 	str	x19, [sp, #16]
  20178c:	aa0203f3 	mov	x19, x2
  201790:	52801702 	mov	w2, #0xb8                  	// #184
  201794:	9ba27c21 	umull	x1, w1, w2
  201798:	97ffff53 	bl	2014e4 <flush_dcache_range>
  20179c:	aa1303e0 	mov	x0, x19
  2017a0:	d2800201 	mov	x1, #0x10                  	// #16
  2017a4:	f9400bf3 	ldr	x19, [sp, #16]
  2017a8:	a8c27bfd 	ldp	x29, x30, [sp], #32
  2017ac:	17ffff4e 	b	2014e4 <flush_dcache_range>

00000000002017b0 <flush_bl_params_desc>:
  2017b0:	f0000180 	adrp	x0, 234000 <__RO_END_UNALIGNED__>
  2017b4:	900001a2 	adrp	x2, 235000 <__STACKS_START__+0xa80>
  2017b8:	91160042 	add	x2, x2, #0x580
  2017bc:	b942f001 	ldr	w1, [x0, #752]
  2017c0:	f0000180 	adrp	x0, 234000 <__RO_END_UNALIGNED__>
  2017c4:	f9400800 	ldr	x0, [x0, #16]
  2017c8:	17ffffee 	b	201780 <flush_bl_params_desc_args>

00000000002017cc <get_bl_params_node_index>:
  2017cc:	f0000181 	adrp	x1, 234000 <__RO_END_UNALIGNED__>
  2017d0:	d2801703 	mov	x3, #0xb8                  	// #184
  2017d4:	b942f024 	ldr	w4, [x1, #752]
  2017d8:	f0000181 	adrp	x1, 234000 <__RO_END_UNALIGNED__>
  2017dc:	f9400822 	ldr	x2, [x1, #16]
  2017e0:	d2800001 	mov	x1, #0x0                   	// #0
  2017e4:	d102e042 	sub	x2, x2, #0xb8
  2017e8:	6b01009f 	cmp	w4, w1
  2017ec:	54000068 	b.hi	2017f8 <get_bl_params_node_index+0x2c>  // b.pmore
  2017f0:	12800000 	mov	w0, #0xffffffff            	// #-1
  2017f4:	14000007 	b	201810 <get_bl_params_node_index+0x44>
  2017f8:	9b030c26 	madd	x6, x1, x3, x3
  2017fc:	91000425 	add	x5, x1, #0x1
  201800:	b8666846 	ldr	w6, [x2, x6]
  201804:	6b0000df 	cmp	w6, w0
  201808:	54000061 	b.ne	201814 <get_bl_params_node_index+0x48>  // b.any
  20180c:	2a0103e0 	mov	w0, w1
  201810:	d65f03c0 	ret
  201814:	aa0503e1 	mov	x1, x5
  201818:	17fffff4 	b	2017e8 <get_bl_params_node_index+0x1c>

000000000020181c <get_bl_mem_params_node>:
  20181c:	a9bf7bfd 	stp	x29, x30, [sp, #-16]!
  201820:	910003fd 	mov	x29, sp
  201824:	97ffffea 	bl	2017cc <get_bl_params_node_index>
  201828:	37f800e0 	tbnz	w0, #31, 201844 <get_bl_mem_params_node+0x28>
  20182c:	f0000181 	adrp	x1, 234000 <__RO_END_UNALIGNED__>
  201830:	52801702 	mov	w2, #0xb8                  	// #184
  201834:	f9400821 	ldr	x1, [x1, #16]
  201838:	9b220400 	smaddl	x0, w0, w2, x1
  20183c:	a8c17bfd 	ldp	x29, x30, [sp], #16
  201840:	d65f03c0 	ret
  201844:	d2800000 	mov	x0, #0x0                   	// #0
  201848:	17fffffd 	b	20183c <get_bl_mem_params_node+0x20>

000000000020184c <get_bl_load_info_from_mem_params_desc>:
  20184c:	f0000180 	adrp	x0, 234000 <__RO_END_UNALIGNED__>
  201850:	b942f004 	ldr	w4, [x0, #752]
  201854:	340002a4 	cbz	w4, 2018a8 <get_bl_load_info_from_mem_params_desc+0x5c>
  201858:	f0000180 	adrp	x0, 234000 <__RO_END_UNALIGNED__>
  20185c:	900001a2 	adrp	x2, 235000 <__STACKS_START__+0xa80>
  201860:	d2804083 	mov	x3, #0x204                 	// #516
  201864:	f9400801 	ldr	x1, [x0, #16]
  201868:	91164040 	add	x0, x2, #0x590
  20186c:	f2a00203 	movk	x3, #0x10, lsl #16
  201870:	f902c843 	str	x3, [x2, #1424]
  201874:	91020021 	add	x1, x1, #0x80
  201878:	52800002 	mov	w2, #0x0                   	// #0
  20187c:	f9000401 	str	x1, [x0, #8]
  201880:	aa0103e3 	mov	x3, x1
  201884:	b8580025 	ldur	w5, [x1, #-128]
  201888:	11000442 	add	w2, w2, #0x1
  20188c:	b8188465 	str	w5, [x3], #-120
  201890:	f9000423 	str	x3, [x1, #8]
  201894:	6b02009f 	cmp	w4, w2
  201898:	540000a0 	b.eq	2018ac <get_bl_load_info_from_mem_params_desc+0x60>  // b.none
  20189c:	9102e021 	add	x1, x1, #0xb8
  2018a0:	f8158021 	stur	x1, [x1, #-168]
  2018a4:	17fffff7 	b	201880 <get_bl_load_info_from_mem_params_desc+0x34>
  2018a8:	d2800000 	mov	x0, #0x0                   	// #0
  2018ac:	d65f03c0 	ret

00000000002018b0 <get_next_bl_params_from_mem_params_desc>:
  2018b0:	f0000180 	adrp	x0, 234000 <__RO_END_UNALIGNED__>
  2018b4:	b942f00a 	ldr	w10, [x0, #752]
  2018b8:	3400064a 	cbz	w10, 201980 <get_next_bl_params_from_mem_params_desc+0xd0>
  2018bc:	a9bf7bfd 	stp	x29, x30, [sp, #-16]!
  2018c0:	f0000180 	adrp	x0, 234000 <__RO_END_UNALIGNED__>
  2018c4:	d2c00303 	mov	x3, #0x1800000000          	// #103079215104
  2018c8:	910003fd 	mov	x29, sp
  2018cc:	f940080b 	ldr	x11, [x0, #16]
  2018d0:	52800000 	mov	w0, #0x0                   	// #0
  2018d4:	aa0b03e1 	mov	x1, x11
  2018d8:	f9401022 	ldr	x2, [x1, #32]
  2018dc:	925d0442 	and	x2, x2, #0x1800000000
  2018e0:	eb03005f 	cmp	x2, x3
  2018e4:	54000421 	b.ne	201968 <get_next_bl_params_from_mem_params_desc+0xb8>  // b.any
  2018e8:	900001a2 	adrp	x2, 235000 <__STACKS_START__+0xa80>
  2018ec:	91026021 	add	x1, x1, #0x98
  2018f0:	f902c441 	str	x1, [x2, #1416]
  2018f4:	900001a7 	adrp	x7, 235000 <__STACKS_START__+0xa80>
  2018f8:	d28040a1 	mov	x1, #0x205                 	// #517
  2018fc:	f2a00201 	movk	x1, #0x10, lsl #16
  201900:	d2800008 	mov	x8, #0x0                   	// #0
  201904:	f902c0e1 	str	x1, [x7, #1408]
  201908:	52800009 	mov	w9, #0x0                   	// #0
  20190c:	5280170c 	mov	w12, #0xb8                  	// #184
  201910:	9bac7c00 	umull	x0, w0, w12
  201914:	aa0803e2 	mov	x2, x8
  201918:	8b000161 	add	x1, x11, x0
  20191c:	91026028 	add	x8, x1, #0x98
  201920:	b8606960 	ldr	w0, [x11, x0]
  201924:	b9009820 	str	w0, [x1, #152]
  201928:	91002020 	add	x0, x1, #0x8
  20192c:	f9000500 	str	x0, [x8, #8]
  201930:	91008020 	add	x0, x1, #0x20
  201934:	f9000900 	str	x0, [x8, #16]
  201938:	b4000042 	cbz	x2, 201940 <get_next_bl_params_from_mem_params_desc+0x90>
  20193c:	f9000c48 	str	x8, [x2, #24]
  201940:	b9407820 	ldr	w0, [x1, #120]
  201944:	3100041f 	cmn	w0, #0x1
  201948:	540000a0 	b.eq	20195c <get_next_bl_params_from_mem_params_desc+0xac>  // b.none
  20194c:	11000529 	add	w9, w9, #0x1
  201950:	97ffff9f 	bl	2017cc <get_bl_params_node_index>
  201954:	6b09015f 	cmp	w10, w9
  201958:	54fffdc1 	b.ne	201910 <get_next_bl_params_from_mem_params_desc+0x60>  // b.any
  20195c:	911600e0 	add	x0, x7, #0x580
  201960:	a8c17bfd 	ldp	x29, x30, [sp], #16
  201964:	d65f03c0 	ret
  201968:	11000400 	add	w0, w0, #0x1
  20196c:	9102e021 	add	x1, x1, #0xb8
  201970:	6b00015f 	cmp	w10, w0
  201974:	54fffb21 	b.ne	2018d8 <get_next_bl_params_from_mem_params_desc+0x28>  // b.any
  201978:	52800000 	mov	w0, #0x0                   	// #0
  20197c:	17ffffde 	b	2018f4 <get_next_bl_params_from_mem_params_desc+0x44>
  201980:	d2800000 	mov	x0, #0x0                   	// #0
  201984:	d65f03c0 	ret

0000000000201988 <image_decompress_init>:
  201988:	900001a3 	adrp	x3, 235000 <__STACKS_START__+0xa80>
  20198c:	f902e060 	str	x0, [x3, #1472]
  201990:	900001a0 	adrp	x0, 235000 <__STACKS_START__+0xa80>
  201994:	b909b001 	str	w1, [x0, #2480]
  201998:	900001a0 	adrp	x0, 235000 <__STACKS_START__+0xa80>
  20199c:	f902dc02 	str	x2, [x0, #1464]
  2019a0:	d65f03c0 	ret

00000000002019a4 <image_decompress_prepare>:
  2019a4:	900001a2 	adrp	x2, 235000 <__STACKS_START__+0xa80>
  2019a8:	91168041 	add	x1, x2, #0x5a0
  2019ac:	f9400003 	ldr	x3, [x0]
  2019b0:	f902d043 	str	x3, [x2, #1440]
  2019b4:	f9400402 	ldr	x2, [x0, #8]
  2019b8:	f9000422 	str	x2, [x1, #8]
  2019bc:	f9400802 	ldr	x2, [x0, #16]
  2019c0:	f9000822 	str	x2, [x1, #16]
  2019c4:	900001a1 	adrp	x1, 235000 <__STACKS_START__+0xa80>
  2019c8:	f942e021 	ldr	x1, [x1, #1472]
  2019cc:	f9000401 	str	x1, [x0, #8]
  2019d0:	900001a1 	adrp	x1, 235000 <__STACKS_START__+0xa80>
  2019d4:	b949b021 	ldr	w1, [x1, #2480]
  2019d8:	b9001401 	str	w1, [x0, #20]
  2019dc:	d65f03c0 	ret

00000000002019e0 <image_decompress>:
  2019e0:	a9bd7bfd 	stp	x29, x30, [sp, #-48]!
  2019e4:	910003fd 	mov	x29, sp
  2019e8:	f9400404 	ldr	x4, [x0, #8]
  2019ec:	a90153f3 	stp	x19, x20, [sp, #16]
  2019f0:	b9401001 	ldr	w1, [x0, #16]
  2019f4:	aa0003f3 	mov	x19, x0
  2019f8:	900001a0 	adrp	x0, 235000 <__STACKS_START__+0xa80>
  2019fc:	91168002 	add	x2, x0, #0x5a0
  201a00:	f942d000 	ldr	x0, [x0, #1440]
  201a04:	f9000260 	str	x0, [x19]
  201a08:	f9400440 	ldr	x0, [x2, #8]
  201a0c:	f9000660 	str	x0, [x19, #8]
  201a10:	a90203e4 	stp	x4, x0, [sp, #32]
  201a14:	900001a0 	adrp	x0, 235000 <__STACKS_START__+0xa80>
  201a18:	8b214084 	add	x4, x4, w1, uxtw
  201a1c:	b949b005 	ldr	w5, [x0, #2480]
  201a20:	900001a0 	adrp	x0, 235000 <__STACKS_START__+0xa80>
  201a24:	f9400843 	ldr	x3, [x2, #16]
  201a28:	f9000a63 	str	x3, [x19, #16]
  201a2c:	f942dc06 	ldr	x6, [x0, #1464]
  201a30:	4b0100a5 	sub	w5, w5, w1
  201a34:	d360fc63 	lsr	x3, x3, #32
  201a38:	9100a3e2 	add	x2, sp, #0x28
  201a3c:	2a0103e1 	mov	w1, w1
  201a40:	910083e0 	add	x0, sp, #0x20
  201a44:	d63f00c0 	blr	x6
  201a48:	2a0003f4 	mov	w20, w0
  201a4c:	350000c0 	cbnz	w0, 201a64 <image_decompress+0x84>
  201a50:	f9400660 	ldr	x0, [x19, #8]
  201a54:	f94017e1 	ldr	x1, [sp, #40]
  201a58:	4b000021 	sub	w1, w1, w0
  201a5c:	b9001261 	str	w1, [x19, #16]
  201a60:	97fffea1 	bl	2014e4 <flush_dcache_range>
  201a64:	2a1403e0 	mov	w0, w20
  201a68:	a94153f3 	ldp	x19, x20, [sp, #16]
  201a6c:	a8c37bfd 	ldp	x29, x30, [sp], #48
  201a70:	d65f03c0 	ret

0000000000201a74 <udelay>:
  201a74:	a9bd7bfd 	stp	x29, x30, [sp, #-48]!
  201a78:	910003fd 	mov	x29, sp
  201a7c:	f90013f5 	str	x21, [sp, #32]
  201a80:	900001b5 	adrp	x21, 235000 <__STACKS_START__+0xa80>
  201a84:	a90153f3 	stp	x19, x20, [sp, #16]
  201a88:	2a0003f3 	mov	w19, w0
  201a8c:	f942e6a0 	ldr	x0, [x21, #1480]
  201a90:	f9400000 	ldr	x0, [x0]
  201a94:	d63f0000 	blr	x0
  201a98:	2a0003f4 	mov	w20, w0
  201a9c:	f942e6a1 	ldr	x1, [x21, #1480]
  201aa0:	29410420 	ldp	w0, w1, [x1, #8]
  201aa4:	d1000402 	sub	x2, x0, #0x1
  201aa8:	9ba10a73 	umaddl	x19, w19, w1, x2
  201aac:	9ac00a73 	udiv	x19, x19, x0
  201ab0:	91000673 	add	x19, x19, #0x1
  201ab4:	f942e6a0 	ldr	x0, [x21, #1480]
  201ab8:	f9400000 	ldr	x0, [x0]
  201abc:	d63f0000 	blr	x0
  201ac0:	4b000281 	sub	w1, w20, w0
  201ac4:	eb13003f 	cmp	x1, x19
  201ac8:	54ffff63 	b.cc	201ab4 <udelay+0x40>  // b.lo, b.ul, b.last
  201acc:	a94153f3 	ldp	x19, x20, [sp, #16]
  201ad0:	f94013f5 	ldr	x21, [sp, #32]
  201ad4:	a8c37bfd 	ldp	x29, x30, [sp], #48
  201ad8:	d65f03c0 	ret

0000000000201adc <mdelay>:
  201adc:	52807d01 	mov	w1, #0x3e8                 	// #1000
  201ae0:	1b017c00 	mul	w0, w0, w1
  201ae4:	17ffffe4 	b	201a74 <udelay>

0000000000201ae8 <timer_init>:
  201ae8:	900001a1 	adrp	x1, 235000 <__STACKS_START__+0xa80>
  201aec:	f902e420 	str	x0, [x1, #1480]
  201af0:	d65f03c0 	ret

0000000000201af4 <gpio_init>:
  201af4:	900001a1 	adrp	x1, 235000 <__STACKS_START__+0xa80>
  201af8:	f902e820 	str	x0, [x1, #1488]
  201afc:	d65f03c0 	ret

0000000000201b00 <device_type_fip>:
  201b00:	52800080 	mov	w0, #0x4                   	// #4
  201b04:	d65f03c0 	ret

0000000000201b08 <fip_file_len>:
  201b08:	f9400400 	ldr	x0, [x0, #8]
  201b0c:	f9401000 	ldr	x0, [x0, #32]
  201b10:	f9000020 	str	x0, [x1]
  201b14:	52800000 	mov	w0, #0x0                   	// #0
  201b18:	d65f03c0 	ret

0000000000201b1c <fip_file_close>:
  201b1c:	a9be7bfd 	stp	x29, x30, [sp, #-32]!
  201b20:	900001a1 	adrp	x1, 235000 <__STACKS_START__+0xa80>
  201b24:	910003fd 	mov	x29, sp
  201b28:	f9000bf3 	str	x19, [sp, #16]
  201b2c:	aa0003f3 	mov	x19, x0
  201b30:	91182020 	add	x0, x1, #0x608
  201b34:	f9400c01 	ldr	x1, [x0, #24]
  201b38:	b4000061 	cbz	x1, 201b44 <fip_file_close+0x28>
  201b3c:	d2800601 	mov	x1, #0x30                  	// #48
  201b40:	97fffe85 	bl	201554 <zeromem>
  201b44:	f900067f 	str	xzr, [x19, #8]
  201b48:	52800000 	mov	w0, #0x0                   	// #0
  201b4c:	f9400bf3 	ldr	x19, [sp, #16]
  201b50:	a8c27bfd 	ldp	x29, x30, [sp], #32
  201b54:	d65f03c0 	ret

0000000000201b58 <fip_file_read>:
  201b58:	a9bc7bfd 	stp	x29, x30, [sp, #-64]!
  201b5c:	910003fd 	mov	x29, sp
  201b60:	a90153f3 	stp	x19, x20, [sp, #16]
  201b64:	aa0003f4 	mov	x20, x0
  201b68:	900001a0 	adrp	x0, 235000 <__STACKS_START__+0xa80>
  201b6c:	aa0103f3 	mov	x19, x1
  201b70:	a9025bf5 	stp	x21, x22, [sp, #32]
  201b74:	aa0203f6 	mov	x22, x2
  201b78:	f942fc01 	ldr	x1, [x0, #1528]
  201b7c:	900001a0 	adrp	x0, 235000 <__STACKS_START__+0xa80>
  201b80:	aa0303f5 	mov	x21, x3
  201b84:	9100e3e2 	add	x2, sp, #0x38
  201b88:	f9430000 	ldr	x0, [x0, #1536]
  201b8c:	9400015a 	bl	2020f4 <io_open>
  201b90:	350003c0 	cbnz	w0, 201c08 <fip_file_read+0xb0>
  201b94:	f9400694 	ldr	x20, [x20, #8]
  201b98:	52800021 	mov	w1, #0x1                   	// #1
  201b9c:	f9400e80 	ldr	x0, [x20, #24]
  201ba0:	b9400282 	ldr	w2, [x20]
  201ba4:	8b000042 	add	x2, x2, x0
  201ba8:	f9401fe0 	ldr	x0, [sp, #56]
  201bac:	94000187 	bl	2021c8 <io_seek>
  201bb0:	34000120 	cbz	w0, 201bd4 <fip_file_read+0x7c>
  201bb4:	12800033 	mov	w19, #0xfffffffe            	// #-2
  201bb8:	f9401fe0 	ldr	x0, [sp, #56]
  201bbc:	9400019b 	bl	202228 <io_close>
  201bc0:	a9425bf5 	ldp	x21, x22, [sp, #32]
  201bc4:	2a1303e0 	mov	w0, w19
  201bc8:	a94153f3 	ldp	x19, x20, [sp, #16]
  201bcc:	a8c47bfd 	ldp	x29, x30, [sp], #64
  201bd0:	d65f03c0 	ret
  201bd4:	f9401fe0 	ldr	x0, [sp, #56]
  201bd8:	aa1303e1 	mov	x1, x19
  201bdc:	9100c3e3 	add	x3, sp, #0x30
  201be0:	aa1603e2 	mov	x2, x22
  201be4:	94000189 	bl	202208 <io_read>
  201be8:	2a0003f3 	mov	w19, w0
  201bec:	35fffe40 	cbnz	w0, 201bb4 <fip_file_read+0x5c>
  201bf0:	f9401be1 	ldr	x1, [sp, #48]
  201bf4:	b9400280 	ldr	w0, [x20]
  201bf8:	f90002a1 	str	x1, [x21]
  201bfc:	0b010000 	add	w0, w0, w1
  201c00:	b9000280 	str	w0, [x20]
  201c04:	17ffffed 	b	201bb8 <fip_file_read+0x60>
  201c08:	12800033 	mov	w19, #0xfffffffe            	// #-2
  201c0c:	17ffffed 	b	201bc0 <fip_file_read+0x68>

0000000000201c10 <fip_dev_open>:
  201c10:	900001a6 	adrp	x6, 235000 <__STACKS_START__+0xa80>
  201c14:	aa0003e4 	mov	x4, x0
  201c18:	b949b4c0 	ldr	w0, [x6, #2484]
  201c1c:	34000060 	cbz	w0, 201c28 <fip_dev_open+0x18>
  201c20:	12800160 	mov	w0, #0xfffffff4            	// #-12
  201c24:	d65f03c0 	ret
  201c28:	900001a3 	adrp	x3, 235000 <__STACKS_START__+0xa80>
  201c2c:	12800022 	mov	w2, #0xfffffffe            	// #-2
  201c30:	900001a7 	adrp	x7, 235000 <__STACKS_START__+0xa80>
  201c34:	911760e5 	add	x5, x7, #0x5d8
  201c38:	f942f460 	ldr	x0, [x3, #1512]
  201c3c:	f100001f 	cmp	x0, #0x0
  201c40:	1a9f1040 	csel	w0, w2, wzr, ne	// ne = any
  201c44:	f0000122 	adrp	x2, 228000 <set_mtk_drm_to_default+0xac>
  201c48:	9119a042 	add	x2, x2, #0x668
  201c4c:	f902ece2 	str	x2, [x7, #1496]
  201c50:	9117a062 	add	x2, x3, #0x5e8
  201c54:	f90004a2 	str	x2, [x5, #8]
  201c58:	52800022 	mov	w2, #0x1                   	// #1
  201c5c:	b909b4c2 	str	w2, [x6, #2484]
  201c60:	35fffe00 	cbnz	w0, 201c20 <fip_dev_open+0x10>
  201c64:	f902f464 	str	x4, [x3, #1512]
  201c68:	f9000025 	str	x5, [x1]
  201c6c:	17ffffee 	b	201c24 <fip_dev_open+0x14>

0000000000201c70 <fip_dev_init>:
  201c70:	a9bb7bfd 	stp	x29, x30, [sp, #-80]!
  201c74:	aa0103e3 	mov	x3, x1
  201c78:	910003fd 	mov	x29, sp
  201c7c:	a90153f3 	stp	x19, x20, [sp, #16]
  201c80:	900001b4 	adrp	x20, 235000 <__STACKS_START__+0xa80>
  201c84:	900001b3 	adrp	x19, 235000 <__STACKS_START__+0xa80>
  201c88:	9117e282 	add	x2, x20, #0x5f8
  201c8c:	91180261 	add	x1, x19, #0x600
  201c90:	f90013f5 	str	x21, [sp, #32]
  201c94:	f9400415 	ldr	x21, [x0, #8]
  201c98:	2a0303e0 	mov	w0, w3
  201c9c:	94000ab0 	bl	20475c <plat_get_image_source>
  201ca0:	340000e0 	cbz	w0, 201cbc <fip_dev_init+0x4c>
  201ca4:	12800033 	mov	w19, #0xfffffffe            	// #-2
  201ca8:	f94013f5 	ldr	x21, [sp, #32]
  201cac:	2a1303e0 	mov	w0, w19
  201cb0:	a94153f3 	ldp	x19, x20, [sp, #16]
  201cb4:	a8c57bfd 	ldp	x29, x30, [sp], #80
  201cb8:	d65f03c0 	ret
  201cbc:	f942fe81 	ldr	x1, [x20, #1528]
  201cc0:	9100c3e2 	add	x2, sp, #0x30
  201cc4:	f9430260 	ldr	x0, [x19, #1536]
  201cc8:	9400010b 	bl	2020f4 <io_open>
  201ccc:	35fffec0 	cbnz	w0, 201ca4 <fip_dev_init+0x34>
  201cd0:	f9401be0 	ldr	x0, [sp, #48]
  201cd4:	9100e3e3 	add	x3, sp, #0x38
  201cd8:	910103e1 	add	x1, sp, #0x40
  201cdc:	d2800202 	mov	x2, #0x10                  	// #16
  201ce0:	9400014a 	bl	202208 <io_read>
  201ce4:	2a0003f3 	mov	w19, w0
  201ce8:	35000140 	cbnz	w0, 201d10 <fip_dev_init+0xa0>
  201cec:	b94043e1 	ldr	w1, [sp, #64]
  201cf0:	52800020 	mov	w0, #0x1                   	// #1
  201cf4:	72b54c80 	movk	w0, #0xaa64, lsl #16
  201cf8:	6b00003f 	cmp	w1, w0
  201cfc:	54000101 	b.ne	201d1c <fip_dev_init+0xac>  // b.any
  201d00:	b94047e0 	ldr	w0, [sp, #68]
  201d04:	340000c0 	cbz	w0, 201d1c <fip_dev_init+0xac>
  201d08:	b9404fe0 	ldr	w0, [sp, #76]
  201d0c:	790012a0 	strh	w0, [x21, #8]
  201d10:	f9401be0 	ldr	x0, [sp, #48]
  201d14:	94000145 	bl	202228 <io_close>
  201d18:	17ffffe4 	b	201ca8 <fip_dev_init+0x38>
  201d1c:	12800033 	mov	w19, #0xfffffffe            	// #-2
  201d20:	17fffffc 	b	201d10 <fip_dev_init+0xa0>

0000000000201d24 <fip_file_open>:
  201d24:	a9ba7bfd 	stp	x29, x30, [sp, #-96]!
  201d28:	910003fd 	mov	x29, sp
  201d2c:	a9025bf5 	stp	x21, x22, [sp, #32]
  201d30:	f90023f9 	str	x25, [sp, #64]
  201d34:	900001b9 	adrp	x25, 235000 <__STACKS_START__+0xa80>
  201d38:	91182335 	add	x21, x25, #0x608
  201d3c:	a90153f3 	stp	x19, x20, [sp, #16]
  201d40:	a90363f7 	stp	x23, x24, [sp, #48]
  201d44:	f9400ea0 	ldr	x0, [x21, #24]
  201d48:	b5000600 	cbnz	x0, 201e08 <fip_file_open+0xe4>
  201d4c:	900001a0 	adrp	x0, 235000 <__STACKS_START__+0xa80>
  201d50:	aa0103f8 	mov	x24, x1
  201d54:	aa0203f6 	mov	x22, x2
  201d58:	910143e2 	add	x2, sp, #0x50
  201d5c:	f942fc01 	ldr	x1, [x0, #1528]
  201d60:	900001a0 	adrp	x0, 235000 <__STACKS_START__+0xa80>
  201d64:	f9430000 	ldr	x0, [x0, #1536]
  201d68:	940000e3 	bl	2020f4 <io_open>
  201d6c:	35000520 	cbnz	w0, 201e10 <fip_file_open+0xec>
  201d70:	f9402be0 	ldr	x0, [sp, #80]
  201d74:	d2800202 	mov	x2, #0x10                  	// #16
  201d78:	52800021 	mov	w1, #0x1                   	// #1
  201d7c:	94000113 	bl	2021c8 <io_seek>
  201d80:	35000300 	cbnz	w0, 201de0 <fip_file_open+0xbc>
  201d84:	900001b4 	adrp	x20, 235000 <__STACKS_START__+0xa80>
  201d88:	b0000157 	adrp	x23, 22a000 <ACTimingTbl_DDR4+0x53a>
  201d8c:	91184294 	add	x20, x20, #0x610
  201d90:	91301af7 	add	x23, x23, #0xc06
  201d94:	f9402be0 	ldr	x0, [sp, #80]
  201d98:	910163e3 	add	x3, sp, #0x58
  201d9c:	aa1403e1 	mov	x1, x20
  201da0:	d2800502 	mov	x2, #0x28                  	// #40
  201da4:	94000119 	bl	202208 <io_read>
  201da8:	2a0003f3 	mov	w19, w0
  201dac:	350001c0 	cbnz	w0, 201de4 <fip_file_open+0xc0>
  201db0:	aa1803e1 	mov	x1, x24
  201db4:	aa1403e0 	mov	x0, x20
  201db8:	d2800202 	mov	x2, #0x10                  	// #16
  201dbc:	94009893 	bl	228008 <memcmp>
  201dc0:	2a0003f3 	mov	w19, w0
  201dc4:	340002a0 	cbz	w0, 201e18 <fip_file_open+0xf4>
  201dc8:	aa1703e1 	mov	x1, x23
  201dcc:	aa1403e0 	mov	x0, x20
  201dd0:	d2800202 	mov	x2, #0x10                  	// #16
  201dd4:	9400988d 	bl	228008 <memcmp>
  201dd8:	35fffde0 	cbnz	w0, 201d94 <fip_file_open+0x70>
  201ddc:	f9000ebf 	str	xzr, [x21, #24]
  201de0:	12800033 	mov	w19, #0xfffffffe            	// #-2
  201de4:	f9402be0 	ldr	x0, [sp, #80]
  201de8:	94000110 	bl	202228 <io_close>
  201dec:	a9425bf5 	ldp	x21, x22, [sp, #32]
  201df0:	2a1303e0 	mov	w0, w19
  201df4:	a94153f3 	ldp	x19, x20, [sp, #16]
  201df8:	a94363f7 	ldp	x23, x24, [sp, #48]
  201dfc:	f94023f9 	ldr	x25, [sp, #64]
  201e00:	a8c67bfd 	ldp	x29, x30, [sp], #96
  201e04:	d65f03c0 	ret
  201e08:	128002d3 	mov	w19, #0xffffffe9            	// #-23
  201e0c:	17fffff8 	b	201dec <fip_file_open+0xc8>
  201e10:	12800033 	mov	w19, #0xfffffffe            	// #-2
  201e14:	17fffff6 	b	201dec <fip_file_open+0xc8>
  201e18:	b9060b3f 	str	wzr, [x25, #1544]
  201e1c:	f90006d5 	str	x21, [x22, #8]
  201e20:	17fffff1 	b	201de4 <fip_file_open+0xc0>

0000000000201e24 <fip_dev_close>:
  201e24:	900001a1 	adrp	x1, 235000 <__STACKS_START__+0xa80>
  201e28:	f9400400 	ldr	x0, [x0, #8]
  201e2c:	f903003f 	str	xzr, [x1, #1536]
  201e30:	900001a1 	adrp	x1, 235000 <__STACKS_START__+0xa80>
  201e34:	f902fc3f 	str	xzr, [x1, #1528]
  201e38:	900001a1 	adrp	x1, 235000 <__STACKS_START__+0xa80>
  201e3c:	f942f422 	ldr	x2, [x1, #1512]
  201e40:	f9400001 	ldr	x1, [x0]
  201e44:	eb01005f 	cmp	x2, x1
  201e48:	54000181 	b.ne	201e78 <fip_dev_close+0x54>  // b.any
  201e4c:	a9bf7bfd 	stp	x29, x30, [sp, #-16]!
  201e50:	d2800201 	mov	x1, #0x10                  	// #16
  201e54:	910003fd 	mov	x29, sp
  201e58:	97fffdbf 	bl	201554 <zeromem>
  201e5c:	900001a1 	adrp	x1, 235000 <__STACKS_START__+0xa80>
  201e60:	a8c17bfd 	ldp	x29, x30, [sp], #16
  201e64:	b949b420 	ldr	w0, [x1, #2484]
  201e68:	51000400 	sub	w0, w0, #0x1
  201e6c:	b909b420 	str	w0, [x1, #2484]
  201e70:	52800000 	mov	w0, #0x0                   	// #0
  201e74:	d65f03c0 	ret
  201e78:	12800020 	mov	w0, #0xfffffffe            	// #-2
  201e7c:	d65f03c0 	ret

0000000000201e80 <register_io_dev_fip>:
  201e80:	a9be7bfd 	stp	x29, x30, [sp, #-32]!
  201e84:	910003fd 	mov	x29, sp
  201e88:	f9000bf3 	str	x19, [sp, #16]
  201e8c:	aa0003f3 	mov	x19, x0
  201e90:	900001a0 	adrp	x0, 235000 <__STACKS_START__+0xa80>
  201e94:	91176000 	add	x0, x0, #0x5d8
  201e98:	94000079 	bl	20207c <io_register_device>
  201e9c:	35000080 	cbnz	w0, 201eac <register_io_dev_fip+0x2c>
  201ea0:	f0000121 	adrp	x1, 228000 <set_mtk_drm_to_default+0xac>
  201ea4:	911ac021 	add	x1, x1, #0x6b0
  201ea8:	f9000261 	str	x1, [x19]
  201eac:	f9400bf3 	ldr	x19, [sp, #16]
  201eb0:	a8c27bfd 	ldp	x29, x30, [sp], #32
  201eb4:	d65f03c0 	ret

0000000000201eb8 <device_type_memmap>:
  201eb8:	52800040 	mov	w0, #0x2                   	// #2
  201ebc:	d65f03c0 	ret

0000000000201ec0 <memmap_dev_open>:
  201ec0:	f0000180 	adrp	x0, 234000 <__RO_END_UNALIGNED__>
  201ec4:	91000000 	add	x0, x0, #0x0
  201ec8:	f9000020 	str	x0, [x1]
  201ecc:	52800000 	mov	w0, #0x0                   	// #0
  201ed0:	d65f03c0 	ret

0000000000201ed4 <memmap_dev_close>:
  201ed4:	52800000 	mov	w0, #0x0                   	// #0
  201ed8:	d65f03c0 	ret

0000000000201edc <memmap_block_open>:
  201edc:	900001a4 	adrp	x4, 235000 <__STACKS_START__+0xa80>
  201ee0:	9118e083 	add	x3, x4, #0x638
  201ee4:	b9463880 	ldr	w0, [x4, #1592]
  201ee8:	35000100 	cbnz	w0, 201f08 <memmap_block_open+0x2c>
  201eec:	52800025 	mov	w5, #0x1                   	// #1
  201ef0:	b9063885 	str	w5, [x4, #1592]
  201ef4:	a9400424 	ldp	x4, x1, [x1]
  201ef8:	a900fc64 	stp	x4, xzr, [x3, #8]
  201efc:	f9000c61 	str	x1, [x3, #24]
  201f00:	f9000443 	str	x3, [x2, #8]
  201f04:	d65f03c0 	ret
  201f08:	12800160 	mov	w0, #0xfffffff4            	// #-12
  201f0c:	17fffffe 	b	201f04 <memmap_block_open+0x28>

0000000000201f10 <memmap_block_seek>:
  201f10:	7100043f 	cmp	w1, #0x1
  201f14:	540000a1 	b.ne	201f28 <memmap_block_seek+0x18>  // b.any
  201f18:	f9400400 	ldr	x0, [x0, #8]
  201f1c:	f9000802 	str	x2, [x0, #16]
  201f20:	52800000 	mov	w0, #0x0                   	// #0
  201f24:	d65f03c0 	ret
  201f28:	12800020 	mov	w0, #0xfffffffe            	// #-2
  201f2c:	17fffffe 	b	201f24 <memmap_block_seek+0x14>

0000000000201f30 <memmap_block_len>:
  201f30:	f9400400 	ldr	x0, [x0, #8]
  201f34:	f9400c00 	ldr	x0, [x0, #24]
  201f38:	f9000020 	str	x0, [x1]
  201f3c:	52800000 	mov	w0, #0x0                   	// #0
  201f40:	d65f03c0 	ret

0000000000201f44 <memmap_block_close>:
  201f44:	a9bf7bfd 	stp	x29, x30, [sp, #-16]!
  201f48:	d2800401 	mov	x1, #0x20                  	// #32
  201f4c:	910003fd 	mov	x29, sp
  201f50:	f900041f 	str	xzr, [x0, #8]
  201f54:	900001a0 	adrp	x0, 235000 <__STACKS_START__+0xa80>
  201f58:	9118e000 	add	x0, x0, #0x638
  201f5c:	97fffd7e 	bl	201554 <zeromem>
  201f60:	52800000 	mov	w0, #0x0                   	// #0
  201f64:	a8c17bfd 	ldp	x29, x30, [sp], #16
  201f68:	d65f03c0 	ret

0000000000201f6c <memmap_block_write>:
  201f6c:	a9bd7bfd 	stp	x29, x30, [sp, #-48]!
  201f70:	910003fd 	mov	x29, sp
  201f74:	a90153f3 	stp	x19, x20, [sp, #16]
  201f78:	aa0203f3 	mov	x19, x2
  201f7c:	f9400414 	ldr	x20, [x0, #8]
  201f80:	a9025bf5 	stp	x21, x22, [sp, #32]
  201f84:	aa0303f5 	mov	x21, x3
  201f88:	a9408283 	ldp	x3, x0, [x20, #8]
  201f8c:	8b020016 	add	x22, x0, x2
  201f90:	8b030000 	add	x0, x0, x3
  201f94:	9400982a 	bl	22803c <memcpy>
  201f98:	f90002b3 	str	x19, [x21]
  201f9c:	f9000a96 	str	x22, [x20, #16]
  201fa0:	52800000 	mov	w0, #0x0                   	// #0
  201fa4:	a94153f3 	ldp	x19, x20, [sp, #16]
  201fa8:	a9425bf5 	ldp	x21, x22, [sp, #32]
  201fac:	a8c37bfd 	ldp	x29, x30, [sp], #48
  201fb0:	d65f03c0 	ret

0000000000201fb4 <memmap_block_read>:
  201fb4:	a9bd7bfd 	stp	x29, x30, [sp, #-48]!
  201fb8:	aa0003e4 	mov	x4, x0
  201fbc:	aa0103e0 	mov	x0, x1
  201fc0:	910003fd 	mov	x29, sp
  201fc4:	a90153f3 	stp	x19, x20, [sp, #16]
  201fc8:	aa0203f3 	mov	x19, x2
  201fcc:	f9400494 	ldr	x20, [x4, #8]
  201fd0:	a9025bf5 	stp	x21, x22, [sp, #32]
  201fd4:	aa0303f5 	mov	x21, x3
  201fd8:	a9408683 	ldp	x3, x1, [x20, #8]
  201fdc:	8b020036 	add	x22, x1, x2
  201fe0:	8b030021 	add	x1, x1, x3
  201fe4:	94009816 	bl	22803c <memcpy>
  201fe8:	f90002b3 	str	x19, [x21]
  201fec:	f9000a96 	str	x22, [x20, #16]
  201ff0:	52800000 	mov	w0, #0x0                   	// #0
  201ff4:	a94153f3 	ldp	x19, x20, [sp, #16]
  201ff8:	a9425bf5 	ldp	x21, x22, [sp, #32]
  201ffc:	a8c37bfd 	ldp	x29, x30, [sp], #48
  202000:	d65f03c0 	ret

0000000000202004 <register_io_dev_memmap>:
  202004:	a9be7bfd 	stp	x29, x30, [sp, #-32]!
  202008:	910003fd 	mov	x29, sp
  20200c:	f9000bf3 	str	x19, [sp, #16]
  202010:	aa0003f3 	mov	x19, x0
  202014:	d0000180 	adrp	x0, 234000 <__RO_END_UNALIGNED__>
  202018:	91000000 	add	x0, x0, #0x0
  20201c:	94000018 	bl	20207c <io_register_device>
  202020:	35000080 	cbnz	w0, 202030 <register_io_dev_memmap+0x2c>
  202024:	d0000121 	adrp	x1, 228000 <set_mtk_drm_to_default+0xac>
  202028:	911c0021 	add	x1, x1, #0x700
  20202c:	f9000261 	str	x1, [x19]
  202030:	f9400bf3 	ldr	x19, [sp, #16]
  202034:	a8c27bfd 	ldp	x29, x30, [sp], #32
  202038:	d65f03c0 	ret

000000000020203c <free_entity.isra.0>:
  20203c:	f0000182 	adrp	x2, 235000 <__STACKS_START__+0xa80>
  202040:	91196042 	add	x2, x2, #0x658
  202044:	d2800001 	mov	x1, #0x0                   	// #0
  202048:	f8617843 	ldr	x3, [x2, x1, lsl #3]
  20204c:	eb03001f 	cmp	x0, x3
  202050:	540000a0 	b.eq	202064 <free_entity.isra.0+0x28>  // b.none
  202054:	91000421 	add	x1, x1, #0x1
  202058:	f100103f 	cmp	x1, #0x4
  20205c:	54ffff61 	b.ne	202048 <free_entity.isra.0+0xc>  // b.any
  202060:	d65f03c0 	ret
  202064:	f821585f 	str	xzr, [x2, w1, uxtw #3]
  202068:	f0000181 	adrp	x1, 235000 <__STACKS_START__+0xa80>
  20206c:	b949bc20 	ldr	w0, [x1, #2492]
  202070:	51000400 	sub	w0, w0, #0x1
  202074:	b909bc20 	str	w0, [x1, #2492]
  202078:	17fffffa 	b	202060 <free_entity.isra.0+0x24>

000000000020207c <io_register_device>:
  20207c:	f0000181 	adrp	x1, 235000 <__STACKS_START__+0xa80>
  202080:	b949b820 	ldr	w0, [x1, #2488]
  202084:	7100081f 	cmp	w0, #0x2
  202088:	540000a8 	b.hi	20209c <io_register_device+0x20>  // b.pmore
  20208c:	11000400 	add	w0, w0, #0x1
  202090:	b909b820 	str	w0, [x1, #2488]
  202094:	52800000 	mov	w0, #0x0                   	// #0
  202098:	d65f03c0 	ret
  20209c:	12800160 	mov	w0, #0xfffffff4            	// #-12
  2020a0:	17fffffe 	b	202098 <io_register_device+0x1c>

00000000002020a4 <io_dev_open>:
  2020a4:	aa0003e3 	mov	x3, x0
  2020a8:	aa0103e0 	mov	x0, x1
  2020ac:	aa0203e1 	mov	x1, x2
  2020b0:	f9400063 	ldr	x3, [x3]
  2020b4:	aa0303f0 	mov	x16, x3
  2020b8:	d61f0200 	br	x16

00000000002020bc <io_dev_init>:
  2020bc:	f9400002 	ldr	x2, [x0]
  2020c0:	f9401c42 	ldr	x2, [x2, #56]
  2020c4:	b4000062 	cbz	x2, 2020d0 <io_dev_init+0x14>
  2020c8:	aa0203f0 	mov	x16, x2
  2020cc:	d61f0200 	br	x16
  2020d0:	52800000 	mov	w0, #0x0                   	// #0
  2020d4:	d65f03c0 	ret

00000000002020d8 <io_dev_close>:
  2020d8:	f9400001 	ldr	x1, [x0]
  2020dc:	f9402021 	ldr	x1, [x1, #64]
  2020e0:	b4000061 	cbz	x1, 2020ec <io_dev_close+0x14>
  2020e4:	aa0103f0 	mov	x16, x1
  2020e8:	d61f0200 	br	x16
  2020ec:	52800000 	mov	w0, #0x0                   	// #0
  2020f0:	d65f03c0 	ret

00000000002020f4 <io_open>:
  2020f4:	a9bc7bfd 	stp	x29, x30, [sp, #-64]!
  2020f8:	f0000185 	adrp	x5, 235000 <__STACKS_START__+0xa80>
  2020fc:	910003fd 	mov	x29, sp
  202100:	a90153f3 	stp	x19, x20, [sp, #16]
  202104:	aa0003f3 	mov	x19, x0
  202108:	b949bca0 	ldr	w0, [x5, #2492]
  20210c:	a9025bf5 	stp	x21, x22, [sp, #32]
  202110:	f9001bf7 	str	x23, [sp, #48]
  202114:	71000c1f 	cmp	w0, #0x3
  202118:	54000508 	b.hi	2021b8 <io_open+0xc4>  // b.pmore
  20211c:	f0000184 	adrp	x4, 235000 <__STACKS_START__+0xa80>
  202120:	aa0203f6 	mov	x22, x2
  202124:	91196084 	add	x4, x4, #0x658
  202128:	d2800003 	mov	x3, #0x0                   	// #0
  20212c:	f8637882 	ldr	x2, [x4, x3, lsl #3]
  202130:	b40003a2 	cbz	x2, 2021a4 <io_open+0xb0>
  202134:	91000463 	add	x3, x3, #0x1
  202138:	f100107f 	cmp	x3, #0x4
  20213c:	54ffff81 	b.ne	20212c <io_open+0x38>  // b.any
  202140:	52800003 	mov	w3, #0x0                   	// #0
  202144:	12800022 	mov	w2, #0xfffffffe            	// #-2
  202148:	d37c7c77 	ubfiz	x23, x3, #4, #32
  20214c:	f0000195 	adrp	x21, 235000 <__STACKS_START__+0xa80>
  202150:	9119e2b5 	add	x21, x21, #0x678
  202154:	11000400 	add	w0, w0, #0x1
  202158:	8b1502f4 	add	x20, x23, x21
  20215c:	b909bca0 	str	w0, [x5, #2492]
  202160:	f8235894 	str	x20, [x4, w3, uxtw #3]
  202164:	350002e2 	cbnz	w2, 2021c0 <io_open+0xcc>
  202168:	f9400260 	ldr	x0, [x19]
  20216c:	aa1403e2 	mov	x2, x20
  202170:	f9400403 	ldr	x3, [x0, #8]
  202174:	aa1303e0 	mov	x0, x19
  202178:	d63f0060 	blr	x3
  20217c:	2a0003e4 	mov	w4, w0
  202180:	35000160 	cbnz	w0, 2021ac <io_open+0xb8>
  202184:	f8376ab3 	str	x19, [x21, x23]
  202188:	f90002d4 	str	x20, [x22]
  20218c:	a94153f3 	ldp	x19, x20, [sp, #16]
  202190:	2a0403e0 	mov	w0, w4
  202194:	a9425bf5 	ldp	x21, x22, [sp, #32]
  202198:	f9401bf7 	ldr	x23, [sp, #48]
  20219c:	a8c47bfd 	ldp	x29, x30, [sp], #64
  2021a0:	d65f03c0 	ret
  2021a4:	52800002 	mov	w2, #0x0                   	// #0
  2021a8:	17ffffe8 	b	202148 <io_open+0x54>
  2021ac:	aa1403e0 	mov	x0, x20
  2021b0:	97ffffa3 	bl	20203c <free_entity.isra.0>
  2021b4:	17fffff6 	b	20218c <io_open+0x98>
  2021b8:	12800164 	mov	w4, #0xfffffff4            	// #-12
  2021bc:	17fffff4 	b	20218c <io_open+0x98>
  2021c0:	12800024 	mov	w4, #0xfffffffe            	// #-2
  2021c4:	17fffff2 	b	20218c <io_open+0x98>

00000000002021c8 <io_seek>:
  2021c8:	f9400003 	ldr	x3, [x0]
  2021cc:	f9400063 	ldr	x3, [x3]
  2021d0:	f9400863 	ldr	x3, [x3, #16]
  2021d4:	b4000063 	cbz	x3, 2021e0 <io_seek+0x18>
  2021d8:	aa0303f0 	mov	x16, x3
  2021dc:	d61f0200 	br	x16
  2021e0:	12800240 	mov	w0, #0xffffffed            	// #-19
  2021e4:	d65f03c0 	ret

00000000002021e8 <io_size>:
  2021e8:	f9400002 	ldr	x2, [x0]
  2021ec:	f9400042 	ldr	x2, [x2]
  2021f0:	f9400c42 	ldr	x2, [x2, #24]
  2021f4:	b4000062 	cbz	x2, 202200 <io_size+0x18>
  2021f8:	aa0203f0 	mov	x16, x2
  2021fc:	d61f0200 	br	x16
  202200:	12800240 	mov	w0, #0xffffffed            	// #-19
  202204:	d65f03c0 	ret

0000000000202208 <io_read>:
  202208:	f9400004 	ldr	x4, [x0]
  20220c:	f9400084 	ldr	x4, [x4]
  202210:	f9401084 	ldr	x4, [x4, #32]
  202214:	b4000064 	cbz	x4, 202220 <io_read+0x18>
  202218:	aa0403f0 	mov	x16, x4
  20221c:	d61f0200 	br	x16
  202220:	12800240 	mov	w0, #0xffffffed            	// #-19
  202224:	d65f03c0 	ret

0000000000202228 <io_close>:
  202228:	a9be7bfd 	stp	x29, x30, [sp, #-32]!
  20222c:	910003fd 	mov	x29, sp
  202230:	f9400001 	ldr	x1, [x0]
  202234:	f9400021 	ldr	x1, [x1]
  202238:	f9401821 	ldr	x1, [x1, #48]
  20223c:	f9000bf3 	str	x19, [sp, #16]
  202240:	aa0003f3 	mov	x19, x0
  202244:	b4000121 	cbz	x1, 202268 <io_close+0x40>
  202248:	d63f0020 	blr	x1
  20224c:	2a0003e4 	mov	w4, w0
  202250:	aa1303e0 	mov	x0, x19
  202254:	97ffff7a 	bl	20203c <free_entity.isra.0>
  202258:	f9400bf3 	ldr	x19, [sp, #16]
  20225c:	2a0403e0 	mov	w0, w4
  202260:	a8c27bfd 	ldp	x29, x30, [sp], #32
  202264:	d65f03c0 	ret
  202268:	52800004 	mov	w4, #0x0                   	// #0
  20226c:	17fffff9 	b	202250 <io_close+0x28>

0000000000202270 <xz_malloc>:
  202270:	a9bd7bfd 	stp	x29, x30, [sp, #-48]!
  202274:	aa0003e2 	mov	x2, x0
  202278:	910003fd 	mov	x29, sp
  20227c:	a90153f3 	stp	x19, x20, [sp, #16]
  202280:	f0000194 	adrp	x20, 235000 <__STACKS_START__+0xa80>
  202284:	f9435e93 	ldr	x19, [x20, #1720]
  202288:	f90013f5 	str	x21, [sp, #32]
  20228c:	d1000673 	sub	x19, x19, #0x1
  202290:	b2400a73 	orr	x19, x19, #0x7
  202294:	91000673 	add	x19, x19, #0x1
  202298:	8b000275 	add	x21, x19, x0
  20229c:	f0000180 	adrp	x0, 235000 <__STACKS_START__+0xa80>
  2022a0:	f9436000 	ldr	x0, [x0, #1728]
  2022a4:	eb15001f 	cmp	x0, x21
  2022a8:	54000143 	b.cc	2022d0 <xz_malloc+0x60>  // b.lo, b.ul, b.last
  2022ac:	aa1303e0 	mov	x0, x19
  2022b0:	52800001 	mov	w1, #0x0                   	// #0
  2022b4:	94009777 	bl	228090 <memset>
  2022b8:	f9035e95 	str	x21, [x20, #1720]
  2022bc:	f94013f5 	ldr	x21, [sp, #32]
  2022c0:	aa1303e0 	mov	x0, x19
  2022c4:	a94153f3 	ldp	x19, x20, [sp, #16]
  2022c8:	a8c37bfd 	ldp	x29, x30, [sp], #48
  2022cc:	d65f03c0 	ret
  2022d0:	d2800013 	mov	x19, #0x0                   	// #0
  2022d4:	17fffffa 	b	2022bc <xz_malloc+0x4c>

00000000002022d8 <unxz>:
  2022d8:	a9b87bfd 	stp	x29, x30, [sp, #-128]!
  2022dc:	910003fd 	mov	x29, sp
  2022e0:	f90023f9 	str	x25, [sp, #64]
  2022e4:	900001b9 	adrp	x25, 236000 <LP5_INIT+0x174>
  2022e8:	a90153f3 	stp	x19, x20, [sp, #16]
  2022ec:	aa0003f4 	mov	x20, x0
  2022f0:	39497320 	ldrb	w0, [x25, #604]
  2022f4:	a9025bf5 	stp	x21, x22, [sp, #32]
  2022f8:	aa0203f3 	mov	x19, x2
  2022fc:	aa0103f5 	mov	x21, x1
  202300:	a90363f7 	stp	x23, x24, [sp, #48]
  202304:	aa0503f6 	mov	x22, x5
  202308:	aa0303f8 	mov	x24, x3
  20230c:	aa0403f7 	mov	x23, x4
  202310:	37000080 	tbnz	w0, #0, 202320 <unxz+0x48>
  202314:	94000038 	bl	2023f4 <xz_crc32_init>
  202318:	52800020 	mov	w0, #0x1                   	// #1
  20231c:	39097320 	strb	w0, [x25, #604]
  202320:	f0000180 	adrp	x0, 235000 <__STACKS_START__+0xa80>
  202324:	8b1602f6 	add	x22, x23, x22
  202328:	52800001 	mov	w1, #0x0                   	// #0
  20232c:	f9036016 	str	x22, [x0, #1728]
  202330:	f0000180 	adrp	x0, 235000 <__STACKS_START__+0xa80>
  202334:	f9035c17 	str	x23, [x0, #1720]
  202338:	52800000 	mov	w0, #0x0                   	// #0
  20233c:	9400070a 	bl	203f64 <xz_dec_init>
  202340:	aa0003f6 	mov	x22, x0
  202344:	b4000500 	cbz	x0, 2023e4 <unxz+0x10c>
  202348:	f9400281 	ldr	x1, [x20]
  20234c:	a9057fe1 	stp	x1, xzr, [sp, #80]
  202350:	f9400261 	ldr	x1, [x19]
  202354:	f90033f5 	str	x21, [sp, #96]
  202358:	f90037e1 	str	x1, [sp, #104]
  20235c:	910143e1 	add	x1, sp, #0x50
  202360:	a90763ff 	stp	xzr, x24, [sp, #112]
  202364:	9400054a 	bl	20388c <xz_dec_run>
  202368:	7100141f 	cmp	w0, #0x5
  20236c:	54000241 	b.ne	2023b4 <unxz+0xdc>  // b.any
  202370:	f9400260 	ldr	x0, [x19]
  202374:	aa1503e2 	mov	x2, x21
  202378:	f9400281 	ldr	x1, [x20]
  20237c:	94009730 	bl	22803c <memcpy>
  202380:	f9400280 	ldr	x0, [x20]
  202384:	8b150000 	add	x0, x0, x21
  202388:	f9000280 	str	x0, [x20]
  20238c:	f9400260 	ldr	x0, [x19]
  202390:	8b150000 	add	x0, x0, x21
  202394:	f9000260 	str	x0, [x19]
  202398:	52800000 	mov	w0, #0x0                   	// #0
  20239c:	a94153f3 	ldp	x19, x20, [sp, #16]
  2023a0:	a9425bf5 	ldp	x21, x22, [sp, #32]
  2023a4:	a94363f7 	ldp	x23, x24, [sp, #48]
  2023a8:	f94023f9 	ldr	x25, [sp, #64]
  2023ac:	a8c87bfd 	ldp	x29, x30, [sp], #128
  2023b0:	d65f03c0 	ret
  2023b4:	7100041f 	cmp	w0, #0x1
  2023b8:	540001a1 	b.ne	2023ec <unxz+0x114>  // b.any
  2023bc:	aa1603e0 	mov	x0, x22
  2023c0:	94000702 	bl	203fc8 <xz_dec_end>
  2023c4:	f9400280 	ldr	x0, [x20]
  2023c8:	f9402fe1 	ldr	x1, [sp, #88]
  2023cc:	8b010000 	add	x0, x0, x1
  2023d0:	f9000280 	str	x0, [x20]
  2023d4:	f9403be1 	ldr	x1, [sp, #112]
  2023d8:	f9400260 	ldr	x0, [x19]
  2023dc:	8b010000 	add	x0, x0, x1
  2023e0:	17ffffed 	b	202394 <unxz+0xbc>
  2023e4:	12800160 	mov	w0, #0xfffffff4            	// #-12
  2023e8:	17ffffed 	b	20239c <unxz+0xc4>
  2023ec:	12800080 	mov	w0, #0xfffffffb            	// #-5
  2023f0:	17ffffeb 	b	20239c <unxz+0xc4>

00000000002023f4 <xz_crc32_init>:
  2023f4:	52906405 	mov	w5, #0x8320                	// #33568
  2023f8:	f0000183 	adrp	x3, 235000 <__STACKS_START__+0xa80>
  2023fc:	91270063 	add	x3, x3, #0x9c0
  202400:	d2800000 	mov	x0, #0x0                   	// #0
  202404:	72bdb705 	movk	w5, #0xedb8, lsl #16
  202408:	2a0003e1 	mov	w1, w0
  20240c:	52800102 	mov	w2, #0x8                   	// #8
  202410:	93400024 	sbfx	x4, x1, #0, #1
  202414:	71000442 	subs	w2, w2, #0x1
  202418:	0a050084 	and	w4, w4, w5
  20241c:	4a410481 	eor	w1, w4, w1, lsr #1
  202420:	54ffff81 	b.ne	202410 <xz_crc32_init+0x1c>  // b.any
  202424:	b8207861 	str	w1, [x3, x0, lsl #2]
  202428:	91000400 	add	x0, x0, #0x1
  20242c:	f104001f 	cmp	x0, #0x100
  202430:	54fffec1 	b.ne	202408 <xz_crc32_init+0x14>  // b.any
  202434:	d65f03c0 	ret

0000000000202438 <xz_crc32>:
  202438:	f0000185 	adrp	x5, 235000 <__STACKS_START__+0xa80>
  20243c:	2a2203e2 	mvn	w2, w2
  202440:	912700a5 	add	x5, x5, #0x9c0
  202444:	d2800004 	mov	x4, #0x0                   	// #0
  202448:	eb04003f 	cmp	x1, x4
  20244c:	54000061 	b.ne	202458 <xz_crc32+0x20>  // b.any
  202450:	2a2203e0 	mvn	w0, w2
  202454:	d65f03c0 	ret
  202458:	38646803 	ldrb	w3, [x0, x4]
  20245c:	91000484 	add	x4, x4, #0x1
  202460:	ca030043 	eor	x3, x2, x3
  202464:	92401c63 	and	x3, x3, #0xff
  202468:	b86378a3 	ldr	w3, [x5, x3, lsl #2]
  20246c:	4a422062 	eor	w2, w3, w2, lsr #8
  202470:	17fffff6 	b	202448 <xz_crc32+0x10>

0000000000202474 <dict_repeat>:
  202474:	f9400c03 	ldr	x3, [x0, #24]
  202478:	2a0203e6 	mov	w6, w2
  20247c:	eb22407f 	cmp	x3, w2, uxtw
  202480:	540004c9 	b.ls	202518 <dict_repeat+0xa4>  // b.plast
  202484:	b9403003 	ldr	w3, [x0, #48]
  202488:	6b02007f 	cmp	w3, w2
  20248c:	54000469 	b.ls	202518 <dict_repeat+0xa4>  // b.plast
  202490:	f9400805 	ldr	x5, [x0, #16]
  202494:	f9401002 	ldr	x2, [x0, #32]
  202498:	b9400023 	ldr	w3, [x1]
  20249c:	cb050042 	sub	x2, x2, x5
  2024a0:	2a0303e4 	mov	w4, w3
  2024a4:	eb23405f 	cmp	x2, w3, uxtw
  2024a8:	9a849042 	csel	x2, x2, x4, ls	// ls = plast
  2024ac:	4b020063 	sub	w3, w3, w2
  2024b0:	b9000023 	str	w3, [x1]
  2024b4:	d10004a1 	sub	x1, x5, #0x1
  2024b8:	2a0203e4 	mov	w4, w2
  2024bc:	cb060021 	sub	x1, x1, x6
  2024c0:	eb0500df 	cmp	x6, x5
  2024c4:	54000063 	b.cc	2024d0 <dict_repeat+0x5c>  // b.lo, b.ul, b.last
  2024c8:	f9401402 	ldr	x2, [x0, #40]
  2024cc:	8b020021 	add	x1, x1, x2
  2024d0:	f9400803 	ldr	x3, [x0, #16]
  2024d4:	91000422 	add	x2, x1, #0x1
  2024d8:	f9400005 	ldr	x5, [x0]
  2024dc:	91000466 	add	x6, x3, #0x1
  2024e0:	f9000806 	str	x6, [x0, #16]
  2024e4:	386168a1 	ldrb	w1, [x5, x1]
  2024e8:	382368a1 	strb	w1, [x5, x3]
  2024ec:	f9401401 	ldr	x1, [x0, #40]
  2024f0:	eb02003f 	cmp	x1, x2
  2024f4:	9a9f1041 	csel	x1, x2, xzr, ne	// ne = any
  2024f8:	71000484 	subs	w4, w4, #0x1
  2024fc:	54fffea1 	b.ne	2024d0 <dict_repeat+0x5c>  // b.any
  202500:	a9410801 	ldp	x1, x2, [x0, #16]
  202504:	eb01005f 	cmp	x2, x1
  202508:	54000042 	b.cs	202510 <dict_repeat+0x9c>  // b.hs, b.nlast
  20250c:	f9000c01 	str	x1, [x0, #24]
  202510:	52800020 	mov	w0, #0x1                   	// #1
  202514:	d65f03c0 	ret
  202518:	52800000 	mov	w0, #0x0                   	// #0
  20251c:	17fffffe 	b	202514 <dict_repeat+0xa0>

0000000000202520 <lzma_len>:
  202520:	b9400003 	ldr	w3, [x0]
  202524:	12bfe004 	mov	w4, #0xffffff              	// #16777215
  202528:	6b04007f 	cmp	w3, w4
  20252c:	54000168 	b.hi	202558 <lzma_len+0x38>  // b.pmore
  202530:	53185c63 	lsl	w3, w3, #8
  202534:	b9000003 	str	w3, [x0]
  202538:	f9400c03 	ldr	x3, [x0, #24]
  20253c:	f9400805 	ldr	x5, [x0, #16]
  202540:	91000466 	add	x6, x3, #0x1
  202544:	f9000c06 	str	x6, [x0, #24]
  202548:	b9400404 	ldr	w4, [x0, #4]
  20254c:	386368a3 	ldrb	w3, [x5, x3]
  202550:	0b042063 	add	w3, w3, w4, lsl #8
  202554:	b9000403 	str	w3, [x0, #4]
  202558:	29401003 	ldp	w3, w4, [x0]
  20255c:	79400025 	ldrh	w5, [x1]
  202560:	530b7c66 	lsr	w6, w3, #11
  202564:	1b057cc6 	mul	w6, w6, w5
  202568:	6b0400df 	cmp	w6, w4
  20256c:	540005e9 	b.ls	202628 <lzma_len+0x108>  // b.plast
  202570:	52810003 	mov	w3, #0x800                 	// #2048
  202574:	4b050063 	sub	w3, w3, w5
  202578:	b9000006 	str	w6, [x0]
  20257c:	0b8314a3 	add	w3, w5, w3, asr #5
  202580:	79000023 	strh	w3, [x1]
  202584:	d2800083 	mov	x3, #0x4                   	// #4
  202588:	8b225062 	add	x2, x3, w2, uxtw #4
  20258c:	52800043 	mov	w3, #0x2                   	// #2
  202590:	8b020021 	add	x1, x1, x2
  202594:	52800106 	mov	w6, #0x8                   	// #8
  202598:	52800024 	mov	w4, #0x1                   	// #1
  20259c:	12bfe00a 	mov	w10, #0xffffff              	// #16777215
  2025a0:	5281000b 	mov	w11, #0x800                 	// #2048
  2025a4:	b9009003 	str	w3, [x0, #144]
  2025a8:	b9400002 	ldr	w2, [x0]
  2025ac:	8b244429 	add	x9, x1, w4, uxtw #1
  2025b0:	6b0a005f 	cmp	w2, w10
  2025b4:	54000168 	b.hi	2025e0 <lzma_len+0xc0>  // b.pmore
  2025b8:	53185c42 	lsl	w2, w2, #8
  2025bc:	b9000002 	str	w2, [x0]
  2025c0:	f9400c02 	ldr	x2, [x0, #24]
  2025c4:	f9400807 	ldr	x7, [x0, #16]
  2025c8:	91000448 	add	x8, x2, #0x1
  2025cc:	f9000c08 	str	x8, [x0, #24]
  2025d0:	b9400405 	ldr	w5, [x0, #4]
  2025d4:	386268e2 	ldrb	w2, [x7, x2]
  2025d8:	0b052042 	add	w2, w2, w5, lsl #8
  2025dc:	b9000402 	str	w2, [x0, #4]
  2025e0:	29401c08 	ldp	w8, w7, [x0]
  2025e4:	531f7884 	lsl	w4, w4, #1
  2025e8:	79400122 	ldrh	w2, [x9]
  2025ec:	530b7d05 	lsr	w5, w8, #11
  2025f0:	1b027ca5 	mul	w5, w5, w2
  2025f4:	6b0700bf 	cmp	w5, w7
  2025f8:	540006c9 	b.ls	2026d0 <lzma_len+0x1b0>  // b.plast
  2025fc:	b9000005 	str	w5, [x0]
  202600:	4b020165 	sub	w5, w11, w2
  202604:	0b851442 	add	w2, w2, w5, asr #5
  202608:	12003c42 	and	w2, w2, #0xffff
  20260c:	79000122 	strh	w2, [x9]
  202610:	6b0400df 	cmp	w6, w4
  202614:	54fffca8 	b.hi	2025a8 <lzma_len+0x88>  // b.pmore
  202618:	4b060063 	sub	w3, w3, w6
  20261c:	0b040063 	add	w3, w3, w4
  202620:	b9009003 	str	w3, [x0, #144]
  202624:	d65f03c0 	ret
  202628:	4b060063 	sub	w3, w3, w6
  20262c:	4b060084 	sub	w4, w4, w6
  202630:	29001003 	stp	w3, w4, [x0]
  202634:	4b4514a5 	sub	w5, w5, w5, lsr #5
  202638:	79000025 	strh	w5, [x1]
  20263c:	12bfe005 	mov	w5, #0xffffff              	// #16777215
  202640:	6b05007f 	cmp	w3, w5
  202644:	54000148 	b.hi	20266c <lzma_len+0x14c>  // b.pmore
  202648:	53185c63 	lsl	w3, w3, #8
  20264c:	b9000003 	str	w3, [x0]
  202650:	f9400c03 	ldr	x3, [x0, #24]
  202654:	f9400805 	ldr	x5, [x0, #16]
  202658:	91000466 	add	x6, x3, #0x1
  20265c:	f9000c06 	str	x6, [x0, #24]
  202660:	386368a3 	ldrb	w3, [x5, x3]
  202664:	0b042064 	add	w4, w3, w4, lsl #8
  202668:	b9000404 	str	w4, [x0, #4]
  20266c:	29401406 	ldp	w6, w5, [x0]
  202670:	79400423 	ldrh	w3, [x1, #2]
  202674:	530b7cc4 	lsr	w4, w6, #11
  202678:	1b037c84 	mul	w4, w4, w3
  20267c:	6b05009f 	cmp	w4, w5
  202680:	54000169 	b.ls	2026ac <lzma_len+0x18c>  // b.plast
  202684:	b9000004 	str	w4, [x0]
  202688:	52810004 	mov	w4, #0x800                 	// #2048
  20268c:	4b030084 	sub	w4, w4, w3
  202690:	0b841463 	add	w3, w3, w4, asr #5
  202694:	79000423 	strh	w3, [x1, #2]
  202698:	d2802083 	mov	x3, #0x104                 	// #260
  20269c:	8b225062 	add	x2, x3, w2, uxtw #4
  2026a0:	52800143 	mov	w3, #0xa                   	// #10
  2026a4:	8b020021 	add	x1, x1, x2
  2026a8:	17ffffbb 	b	202594 <lzma_len+0x74>
  2026ac:	4b0400c6 	sub	w6, w6, w4
  2026b0:	4b431463 	sub	w3, w3, w3, lsr #5
  2026b4:	4b0400a5 	sub	w5, w5, w4
  2026b8:	29001406 	stp	w6, w5, [x0]
  2026bc:	52802006 	mov	w6, #0x100                 	// #256
  2026c0:	79000423 	strh	w3, [x1, #2]
  2026c4:	91081021 	add	x1, x1, #0x204
  2026c8:	52800243 	mov	w3, #0x12                  	// #18
  2026cc:	17ffffb3 	b	202598 <lzma_len+0x78>
  2026d0:	4b421442 	sub	w2, w2, w2, lsr #5
  2026d4:	4b050108 	sub	w8, w8, w5
  2026d8:	4b0500e7 	sub	w7, w7, w5
  2026dc:	12003c42 	and	w2, w2, #0xffff
  2026e0:	11000484 	add	w4, w4, #0x1
  2026e4:	29001c08 	stp	w8, w7, [x0]
  2026e8:	17ffffc9 	b	20260c <lzma_len+0xec>

00000000002026ec <lzma_main>:
  2026ec:	9100a00d 	add	x13, x0, #0x28
  2026f0:	a9be7bfd 	stp	x29, x30, [sp, #-32]!
  2026f4:	aa0003ec 	mov	x12, x0
  2026f8:	910003fd 	mov	x29, sp
  2026fc:	f94009a1 	ldr	x1, [x13, #16]
  202700:	f94011a0 	ldr	x0, [x13, #32]
  202704:	f9000bf3 	str	x19, [sp, #16]
  202708:	eb00003f 	cmp	x1, x0
  20270c:	540000e2 	b.cs	202728 <lzma_main+0x3c>  // b.hs, b.nlast
  202710:	b9409180 	ldr	w0, [x12, #144]
  202714:	340000a0 	cbz	w0, 202728 <lzma_main+0x3c>
  202718:	b9407d82 	ldr	w2, [x12, #124]
  20271c:	91024181 	add	x1, x12, #0x90
  202720:	aa0d03e0 	mov	x0, x13
  202724:	97ffff54 	bl	202474 <dict_repeat>
  202728:	9102418e 	add	x14, x12, #0x90
  20272c:	12bfe012 	mov	w18, #0xffffff              	// #16777215
  202730:	5280016f 	mov	w15, #0xb                   	// #11
  202734:	52810013 	mov	w19, #0x800                 	// #2048
  202738:	f94009a3 	ldr	x3, [x13, #16]
  20273c:	f94011a1 	ldr	x1, [x13, #32]
  202740:	b9400180 	ldr	w0, [x12]
  202744:	eb01007f 	cmp	x3, x1
  202748:	54000082 	b.cs	202758 <lzma_main+0x6c>  // b.hs, b.nlast
  20274c:	a9418981 	ldp	x1, x2, [x12, #24]
  202750:	eb02003f 	cmp	x1, x2
  202754:	540000c9 	b.ls	20276c <lzma_main+0x80>  // b.plast
  202758:	12bfe001 	mov	w1, #0xffffff              	// #16777215
  20275c:	6b01001f 	cmp	w0, w1
  202760:	54004369 	b.ls	202fcc <lzma_main+0x8e0>  // b.plast
  202764:	52800021 	mov	w1, #0x1                   	// #1
  202768:	140000f9 	b	202b4c <lzma_main+0x460>
  20276c:	b9409d82 	ldr	w2, [x12, #156]
  202770:	b9408d85 	ldr	w5, [x12, #140]
  202774:	0a030042 	and	w2, w2, w3
  202778:	6b12001f 	cmp	w0, w18
  20277c:	54000148 	b.hi	2027a4 <lzma_main+0xb8>  // b.pmore
  202780:	53185c00 	lsl	w0, w0, #8
  202784:	b9000180 	str	w0, [x12]
  202788:	f9400980 	ldr	x0, [x12, #16]
  20278c:	91000426 	add	x6, x1, #0x1
  202790:	f9000d86 	str	x6, [x12, #24]
  202794:	b9400584 	ldr	w4, [x12, #4]
  202798:	38616800 	ldrb	w0, [x0, x1]
  20279c:	0b042000 	add	w0, w0, w4, lsl #8
  2027a0:	b9000580 	str	w0, [x12, #4]
  2027a4:	2a0203e6 	mov	w6, w2
  2027a8:	2a0503e0 	mov	w0, w5
  2027ac:	8b2550c6 	add	x6, x6, w5, uxtw #4
  2027b0:	29401181 	ldp	w1, w4, [x12]
  2027b4:	8b060586 	add	x6, x12, x6, lsl #1
  2027b8:	794140c7 	ldrh	w7, [x6, #160]
  2027bc:	530b7c28 	lsr	w8, w1, #11
  2027c0:	1b077d08 	mul	w8, w8, w7
  2027c4:	6b04011f 	cmp	w8, w4
  2027c8:	54001149 	b.ls	2029f0 <lzma_main+0x304>  // b.plast
  2027cc:	4b070260 	sub	w0, w19, w7
  2027d0:	b9000188 	str	w8, [x12]
  2027d4:	0b8014e0 	add	w0, w7, w0, asr #5
  2027d8:	790140c0 	strh	w0, [x6, #160]
  2027dc:	d1000460 	sub	x0, x3, #0x1
  2027e0:	b5000783 	cbnz	x3, 2028d0 <lzma_main+0x1e4>
  2027e4:	f94015a1 	ldr	x1, [x13, #40]
  2027e8:	d1000421 	sub	x1, x1, #0x1
  2027ec:	f9400da6 	ldr	x6, [x13, #24]
  2027f0:	f94001a7 	ldr	x7, [x13]
  2027f4:	b4000726 	cbz	x6, 2028d8 <lzma_main+0x1ec>
  2027f8:	386168e1 	ldrb	w1, [x7, x1]
  2027fc:	29528988 	ldp	w8, w2, [x12, #148]
  202800:	52800104 	mov	w4, #0x8                   	// #8
  202804:	8a030042 	and	x2, x2, x3
  202808:	4b080084 	sub	w4, w4, w8
  20280c:	9ac82042 	lsl	x2, x2, x8
  202810:	1ac42421 	lsr	w1, w1, w4
  202814:	0b020021 	add	w1, w1, w2
  202818:	5280c002 	mov	w2, #0x600                 	// #1536
  20281c:	9ba23021 	umaddl	x1, w1, w2, x12
  202820:	913c3021 	add	x1, x1, #0xf0c
  202824:	710018bf 	cmp	w5, #0x6
  202828:	540006a8 	b.hi	2028fc <lzma_main+0x210>  // b.pmore
  20282c:	52800020 	mov	w0, #0x1                   	// #1
  202830:	b9400182 	ldr	w2, [x12]
  202834:	d37f7c08 	ubfiz	x8, x0, #1, #32
  202838:	6b12005f 	cmp	w2, w18
  20283c:	54000168 	b.hi	202868 <lzma_main+0x17c>  // b.pmore
  202840:	53185c42 	lsl	w2, w2, #8
  202844:	b9000182 	str	w2, [x12]
  202848:	f9400d82 	ldr	x2, [x12, #24]
  20284c:	f9400985 	ldr	x5, [x12, #16]
  202850:	91000446 	add	x6, x2, #0x1
  202854:	f9000d86 	str	x6, [x12, #24]
  202858:	b9400584 	ldr	w4, [x12, #4]
  20285c:	386268a2 	ldrb	w2, [x5, x2]
  202860:	0b042042 	add	w2, w2, w4, lsl #8
  202864:	b9000582 	str	w2, [x12, #4]
  202868:	29401586 	ldp	w6, w5, [x12]
  20286c:	531f7800 	lsl	w0, w0, #1
  202870:	78686822 	ldrh	w2, [x1, x8]
  202874:	530b7cc4 	lsr	w4, w6, #11
  202878:	1b027c84 	mul	w4, w4, w2
  20287c:	6b05009f 	cmp	w4, w5
  202880:	54000309 	b.ls	2028e0 <lzma_main+0x1f4>  // b.plast
  202884:	b9000184 	str	w4, [x12]
  202888:	4b020264 	sub	w4, w19, w2
  20288c:	0b841442 	add	w2, w2, w4, asr #5
  202890:	12003c42 	and	w2, w2, #0xffff
  202894:	78286822 	strh	w2, [x1, x8]
  202898:	7103fc1f 	cmp	w0, #0xff
  20289c:	54fffca9 	b.ls	202830 <lzma_main+0x144>  // b.plast
  2028a0:	91000461 	add	x1, x3, #0x1
  2028a4:	f90009a1 	str	x1, [x13, #16]
  2028a8:	382368e0 	strb	w0, [x7, x3]
  2028ac:	a94105a0 	ldp	x0, x1, [x13, #16]
  2028b0:	eb00003f 	cmp	x1, x0
  2028b4:	54000042 	b.cs	2028bc <lzma_main+0x1d0>  // b.hs, b.nlast
  2028b8:	f9000da0 	str	x0, [x13, #24]
  2028bc:	b9408d80 	ldr	w0, [x12, #140]
  2028c0:	71000c1f 	cmp	w0, #0x3
  2028c4:	540008a8 	b.hi	2029d8 <lzma_main+0x2ec>  // b.pmore
  2028c8:	b9008d9f 	str	wzr, [x12, #140]
  2028cc:	17ffff9b 	b	202738 <lzma_main+0x4c>
  2028d0:	aa0003e1 	mov	x1, x0
  2028d4:	17ffffc6 	b	2027ec <lzma_main+0x100>
  2028d8:	52800001 	mov	w1, #0x0                   	// #0
  2028dc:	17ffffc8 	b	2027fc <lzma_main+0x110>
  2028e0:	4b421442 	sub	w2, w2, w2, lsr #5
  2028e4:	4b0400c6 	sub	w6, w6, w4
  2028e8:	4b0400a5 	sub	w5, w5, w4
  2028ec:	12003c42 	and	w2, w2, #0xffff
  2028f0:	11000400 	add	w0, w0, #0x1
  2028f4:	29001586 	stp	w6, w5, [x12]
  2028f8:	17ffffe7 	b	202894 <lzma_main+0x1a8>
  2028fc:	b9407d82 	ldr	w2, [x12, #124]
  202900:	cb020000 	sub	x0, x0, x2
  202904:	eb02007f 	cmp	x3, x2
  202908:	54000068 	b.hi	202914 <lzma_main+0x228>  // b.pmore
  20290c:	f94015a2 	ldr	x2, [x13, #40]
  202910:	8b020000 	add	x0, x0, x2
  202914:	b40004e6 	cbz	x6, 2029b0 <lzma_main+0x2c4>
  202918:	386068ea 	ldrb	w10, [x7, x0]
  20291c:	531f794a 	lsl	w10, w10, #1
  202920:	52802006 	mov	w6, #0x100                 	// #256
  202924:	52800020 	mov	w0, #0x1                   	// #1
  202928:	0a06014b 	and	w11, w10, w6
  20292c:	0b0000c4 	add	w4, w6, w0
  202930:	0b0b0084 	add	w4, w4, w11
  202934:	b9400182 	ldr	w2, [x12]
  202938:	531f794a 	lsl	w10, w10, #1
  20293c:	d37ff884 	lsl	x4, x4, #1
  202940:	6b12005f 	cmp	w2, w18
  202944:	54000168 	b.hi	202970 <lzma_main+0x284>  // b.pmore
  202948:	53185c42 	lsl	w2, w2, #8
  20294c:	b9000182 	str	w2, [x12]
  202950:	f9400d82 	ldr	x2, [x12, #24]
  202954:	f9400988 	ldr	x8, [x12, #16]
  202958:	91000449 	add	x9, x2, #0x1
  20295c:	f9000d89 	str	x9, [x12, #24]
  202960:	b9400585 	ldr	w5, [x12, #4]
  202964:	38626902 	ldrb	w2, [x8, x2]
  202968:	0b052042 	add	w2, w2, w5, lsl #8
  20296c:	b9000582 	str	w2, [x12, #4]
  202970:	29402189 	ldp	w9, w8, [x12]
  202974:	531f7800 	lsl	w0, w0, #1
  202978:	78646822 	ldrh	w2, [x1, x4]
  20297c:	530b7d25 	lsr	w5, w9, #11
  202980:	1b027ca5 	mul	w5, w5, w2
  202984:	6b0800bf 	cmp	w5, w8
  202988:	54000189 	b.ls	2029b8 <lzma_main+0x2cc>  // b.plast
  20298c:	b9000185 	str	w5, [x12]
  202990:	4b020265 	sub	w5, w19, w2
  202994:	0a2b00c6 	bic	w6, w6, w11
  202998:	0b851442 	add	w2, w2, w5, asr #5
  20299c:	12003c42 	and	w2, w2, #0xffff
  2029a0:	78246822 	strh	w2, [x1, x4]
  2029a4:	7103fc1f 	cmp	w0, #0xff
  2029a8:	54fffc09 	b.ls	202928 <lzma_main+0x23c>  // b.plast
  2029ac:	17ffffbd 	b	2028a0 <lzma_main+0x1b4>
  2029b0:	5280000a 	mov	w10, #0x0                   	// #0
  2029b4:	17ffffda 	b	20291c <lzma_main+0x230>
  2029b8:	4b421442 	sub	w2, w2, w2, lsr #5
  2029bc:	4b050129 	sub	w9, w9, w5
  2029c0:	4b050108 	sub	w8, w8, w5
  2029c4:	12003c42 	and	w2, w2, #0xffff
  2029c8:	11000400 	add	w0, w0, #0x1
  2029cc:	2a0b03e6 	mov	w6, w11
  2029d0:	29002189 	stp	w9, w8, [x12]
  2029d4:	17fffff3 	b	2029a0 <lzma_main+0x2b4>
  2029d8:	51001802 	sub	w2, w0, #0x6
  2029dc:	51000c01 	sub	w1, w0, #0x3
  2029e0:	7100281f 	cmp	w0, #0xa
  2029e4:	1a823020 	csel	w0, w1, w2, cc	// cc = lo, ul, last
  2029e8:	b9008d80 	str	w0, [x12, #140]
  2029ec:	17ffff53 	b	202738 <lzma_main+0x4c>
  2029f0:	4b080021 	sub	w1, w1, w8
  2029f4:	4b080083 	sub	w3, w4, w8
  2029f8:	29000d81 	stp	w1, w3, [x12]
  2029fc:	4b4714e7 	sub	w7, w7, w7, lsr #5
  202a00:	790140c7 	strh	w7, [x6, #160]
  202a04:	6b12003f 	cmp	w1, w18
  202a08:	54000148 	b.hi	202a30 <lzma_main+0x344>  // b.pmore
  202a0c:	53185c21 	lsl	w1, w1, #8
  202a10:	b9000181 	str	w1, [x12]
  202a14:	f9400d81 	ldr	x1, [x12, #24]
  202a18:	f9400984 	ldr	x4, [x12, #16]
  202a1c:	91000427 	add	x7, x1, #0x1
  202a20:	f9000d87 	str	x7, [x12, #24]
  202a24:	38616881 	ldrb	w1, [x4, x1]
  202a28:	0b032023 	add	w3, w1, w3, lsl #8
  202a2c:	b9000583 	str	w3, [x12, #4]
  202a30:	29400d81 	ldp	w1, w3, [x12]
  202a34:	8b000580 	add	x0, x12, x0, lsl #1
  202a38:	79444004 	ldrh	w4, [x0, #544]
  202a3c:	530b7c27 	lsr	w7, w1, #11
  202a40:	1b047ce7 	mul	w7, w7, w4
  202a44:	6b0300ff 	cmp	w7, w3
  202a48:	54001a49 	b.ls	202d90 <lzma_main+0x6a4>  // b.plast
  202a4c:	4b040261 	sub	w1, w19, w4
  202a50:	710018bf 	cmp	w5, #0x6
  202a54:	b9000187 	str	w7, [x12]
  202a58:	0b811481 	add	w1, w4, w1, asr #5
  202a5c:	79044001 	strh	w1, [x0, #544]
  202a60:	528000e1 	mov	w1, #0x7                   	// #7
  202a64:	52800140 	mov	w0, #0xa                   	// #10
  202a68:	1a818000 	csel	w0, w0, w1, hi	// hi = pmore
  202a6c:	b9008d80 	str	w0, [x12, #140]
  202a70:	b9408580 	ldr	w0, [x12, #132]
  202a74:	911c1181 	add	x1, x12, #0x704
  202a78:	b9008980 	str	w0, [x12, #136]
  202a7c:	b9408180 	ldr	w0, [x12, #128]
  202a80:	b9008580 	str	w0, [x12, #132]
  202a84:	b9407d80 	ldr	w0, [x12, #124]
  202a88:	b9008180 	str	w0, [x12, #128]
  202a8c:	aa0c03e0 	mov	x0, x12
  202a90:	97fffea4 	bl	202520 <lzma_len>
  202a94:	b9409180 	ldr	w0, [x12, #144]
  202a98:	528000a1 	mov	w1, #0x5                   	// #5
  202a9c:	7100141f 	cmp	w0, #0x5
  202aa0:	1a819002 	csel	w2, w0, w1, ls	// ls = plast
  202aa4:	52800020 	mov	w0, #0x1                   	// #1
  202aa8:	51000842 	sub	w2, w2, #0x2
  202aac:	91002042 	add	x2, x2, #0x8
  202ab0:	d379e042 	lsl	x2, x2, #7
  202ab4:	b9400181 	ldr	w1, [x12]
  202ab8:	8b204446 	add	x6, x2, w0, uxtw #1
  202abc:	6b12003f 	cmp	w1, w18
  202ac0:	54000168 	b.hi	202aec <lzma_main+0x400>  // b.pmore
  202ac4:	53185c21 	lsl	w1, w1, #8
  202ac8:	b9000181 	str	w1, [x12]
  202acc:	f9400d81 	ldr	x1, [x12, #24]
  202ad0:	f9400984 	ldr	x4, [x12, #16]
  202ad4:	91000425 	add	x5, x1, #0x1
  202ad8:	f9000d85 	str	x5, [x12, #24]
  202adc:	b9400583 	ldr	w3, [x12, #4]
  202ae0:	38616881 	ldrb	w1, [x4, x1]
  202ae4:	0b032021 	add	w1, w1, w3, lsl #8
  202ae8:	b9000581 	str	w1, [x12, #4]
  202aec:	29401185 	ldp	w5, w4, [x12]
  202af0:	531f7800 	lsl	w0, w0, #1
  202af4:	78666981 	ldrh	w1, [x12, x6]
  202af8:	530b7ca3 	lsr	w3, w5, #11
  202afc:	1b017c63 	mul	w3, w3, w1
  202b00:	6b04007f 	cmp	w3, w4
  202b04:	540002c9 	b.ls	202b5c <lzma_main+0x470>  // b.plast
  202b08:	b9000183 	str	w3, [x12]
  202b0c:	4b010263 	sub	w3, w19, w1
  202b10:	0b831421 	add	w1, w1, w3, asr #5
  202b14:	12003c21 	and	w1, w1, #0xffff
  202b18:	78266981 	strh	w1, [x12, x6]
  202b1c:	7100fc1f 	cmp	w0, #0x3f
  202b20:	54fffca9 	b.ls	202ab4 <lzma_main+0x3c8>  // b.plast
  202b24:	51010000 	sub	w0, w0, #0x40
  202b28:	71000c1f 	cmp	w0, #0x3
  202b2c:	54000268 	b.hi	202b78 <lzma_main+0x48c>  // b.pmore
  202b30:	b9007d80 	str	w0, [x12, #124]
  202b34:	b9407d82 	ldr	w2, [x12, #124]
  202b38:	aa0e03e1 	mov	x1, x14
  202b3c:	aa0d03e0 	mov	x0, x13
  202b40:	97fffe4d 	bl	202474 <dict_repeat>
  202b44:	12001c01 	and	w1, w0, #0xff
  202b48:	3707df80 	tbnz	w0, #0, 202738 <lzma_main+0x4c>
  202b4c:	f9400bf3 	ldr	x19, [sp, #16]
  202b50:	2a0103e0 	mov	w0, w1
  202b54:	a8c27bfd 	ldp	x29, x30, [sp], #32
  202b58:	d65f03c0 	ret
  202b5c:	4b411421 	sub	w1, w1, w1, lsr #5
  202b60:	4b0300a5 	sub	w5, w5, w3
  202b64:	4b030084 	sub	w4, w4, w3
  202b68:	12003c21 	and	w1, w1, #0xffff
  202b6c:	11000400 	add	w0, w0, #0x1
  202b70:	29001185 	stp	w5, w4, [x12]
  202b74:	17ffffe9 	b	202b18 <lzma_main+0x42c>
  202b78:	12000001 	and	w1, w0, #0x1
  202b7c:	53017c02 	lsr	w2, w0, #1
  202b80:	11000821 	add	w1, w1, #0x2
  202b84:	7100341f 	cmp	w0, #0xd
  202b88:	540006a8 	b.hi	202c5c <lzma_main+0x570>  // b.pmore
  202b8c:	51000445 	sub	w5, w2, #0x1
  202b90:	52800023 	mov	w3, #0x1                   	// #1
  202b94:	91180187 	add	x7, x12, #0x600
  202b98:	2a0303ea 	mov	w10, w3
  202b9c:	1ac52021 	lsl	w1, w1, w5
  202ba0:	b9007d81 	str	w1, [x12, #124]
  202ba4:	cb204021 	sub	x1, x1, w0, uxtw
  202ba8:	52800008 	mov	w8, #0x0                   	// #0
  202bac:	12bfe009 	mov	w9, #0xffffff              	// #16777215
  202bb0:	5281000b 	mov	w11, #0x800                 	// #2048
  202bb4:	d37ff821 	lsl	x1, x1, #1
  202bb8:	d1000821 	sub	x1, x1, #0x2
  202bbc:	b9400180 	ldr	w0, [x12]
  202bc0:	8b234430 	add	x16, x1, w3, uxtw #1
  202bc4:	6b09001f 	cmp	w0, w9
  202bc8:	54000168 	b.hi	202bf4 <lzma_main+0x508>  // b.pmore
  202bcc:	53185c00 	lsl	w0, w0, #8
  202bd0:	b9000180 	str	w0, [x12]
  202bd4:	f9400d80 	ldr	x0, [x12, #24]
  202bd8:	f9400984 	ldr	x4, [x12, #16]
  202bdc:	91000406 	add	x6, x0, #0x1
  202be0:	f9000d86 	str	x6, [x12, #24]
  202be4:	b9400582 	ldr	w2, [x12, #4]
  202be8:	38606880 	ldrb	w0, [x4, x0]
  202bec:	0b022000 	add	w0, w0, w2, lsl #8
  202bf0:	b9000580 	str	w0, [x12, #4]
  202bf4:	29400186 	ldp	w6, w0, [x12]
  202bf8:	531f7863 	lsl	w3, w3, #1
  202bfc:	787068e2 	ldrh	w2, [x7, x16]
  202c00:	b9407d91 	ldr	w17, [x12, #124]
  202c04:	530b7cc4 	lsr	w4, w6, #11
  202c08:	1b027c84 	mul	w4, w4, w2
  202c0c:	6b00009f 	cmp	w4, w0
  202c10:	54000129 	b.ls	202c34 <lzma_main+0x548>  // b.plast
  202c14:	4b020160 	sub	w0, w11, w2
  202c18:	b9000184 	str	w4, [x12]
  202c1c:	0b801440 	add	w0, w2, w0, asr #5
  202c20:	783068e0 	strh	w0, [x7, x16]
  202c24:	11000508 	add	w8, w8, #0x1
  202c28:	6b0800bf 	cmp	w5, w8
  202c2c:	54fffc88 	b.hi	202bbc <lzma_main+0x4d0>  // b.pmore
  202c30:	17ffffc1 	b	202b34 <lzma_main+0x448>
  202c34:	4b040000 	sub	w0, w0, w4
  202c38:	4b0400c6 	sub	w6, w6, w4
  202c3c:	29000186 	stp	w6, w0, [x12]
  202c40:	4b421442 	sub	w2, w2, w2, lsr #5
  202c44:	783068e2 	strh	w2, [x7, x16]
  202c48:	1ac82140 	lsl	w0, w10, w8
  202c4c:	11000463 	add	w3, w3, #0x1
  202c50:	0b110000 	add	w0, w0, w17
  202c54:	b9007d80 	str	w0, [x12, #124]
  202c58:	17fffff3 	b	202c24 <lzma_main+0x538>
  202c5c:	51001440 	sub	w0, w2, #0x5
  202c60:	12bfe003 	mov	w3, #0xffffff              	// #16777215
  202c64:	b9007d81 	str	w1, [x12, #124]
  202c68:	b9400181 	ldr	w1, [x12]
  202c6c:	6b03003f 	cmp	w1, w3
  202c70:	54000168 	b.hi	202c9c <lzma_main+0x5b0>  // b.pmore
  202c74:	53185c21 	lsl	w1, w1, #8
  202c78:	b9000181 	str	w1, [x12]
  202c7c:	f9400d81 	ldr	x1, [x12, #24]
  202c80:	f9400984 	ldr	x4, [x12, #16]
  202c84:	91000425 	add	x5, x1, #0x1
  202c88:	f9000d85 	str	x5, [x12, #24]
  202c8c:	b9400582 	ldr	w2, [x12, #4]
  202c90:	38616881 	ldrb	w1, [x4, x1]
  202c94:	0b022021 	add	w1, w1, w2, lsl #8
  202c98:	b9000581 	str	w1, [x12, #4]
  202c9c:	29400582 	ldp	w2, w1, [x12]
  202ca0:	71000400 	subs	w0, w0, #0x1
  202ca4:	53017c42 	lsr	w2, w2, #1
  202ca8:	b9000182 	str	w2, [x12]
  202cac:	4b020021 	sub	w1, w1, w2
  202cb0:	0a817c42 	and	w2, w2, w1, asr #31
  202cb4:	0b010042 	add	w2, w2, w1
  202cb8:	b9000582 	str	w2, [x12, #4]
  202cbc:	b9407d82 	ldr	w2, [x12, #124]
  202cc0:	531f7842 	lsl	w2, w2, #1
  202cc4:	11000442 	add	w2, w2, #0x1
  202cc8:	0b817c41 	add	w1, w2, w1, asr #31
  202ccc:	b9007d81 	str	w1, [x12, #124]
  202cd0:	54fffcc1 	b.ne	202c68 <lzma_main+0x57c>  // b.any
  202cd4:	52800022 	mov	w2, #0x1                   	// #1
  202cd8:	911b9186 	add	x6, x12, #0x6e4
  202cdc:	2a0203e9 	mov	w9, w2
  202ce0:	531c6c21 	lsl	w1, w1, #4
  202ce4:	12bfe008 	mov	w8, #0xffffff              	// #16777215
  202ce8:	5281000a 	mov	w10, #0x800                 	// #2048
  202cec:	b9007d81 	str	w1, [x12, #124]
  202cf0:	b9400181 	ldr	w1, [x12]
  202cf4:	d37f7c47 	ubfiz	x7, x2, #1, #32
  202cf8:	6b08003f 	cmp	w1, w8
  202cfc:	54000168 	b.hi	202d28 <lzma_main+0x63c>  // b.pmore
  202d00:	53185c21 	lsl	w1, w1, #8
  202d04:	b9000181 	str	w1, [x12]
  202d08:	f9400d81 	ldr	x1, [x12, #24]
  202d0c:	f9400984 	ldr	x4, [x12, #16]
  202d10:	91000425 	add	x5, x1, #0x1
  202d14:	f9000d85 	str	x5, [x12, #24]
  202d18:	b9400583 	ldr	w3, [x12, #4]
  202d1c:	38616881 	ldrb	w1, [x4, x1]
  202d20:	0b032021 	add	w1, w1, w3, lsl #8
  202d24:	b9000581 	str	w1, [x12, #4]
  202d28:	29401185 	ldp	w5, w4, [x12]
  202d2c:	531f7842 	lsl	w2, w2, #1
  202d30:	786768c1 	ldrh	w1, [x6, x7]
  202d34:	b9407d8b 	ldr	w11, [x12, #124]
  202d38:	530b7ca3 	lsr	w3, w5, #11
  202d3c:	1b017c63 	mul	w3, w3, w1
  202d40:	6b04007f 	cmp	w3, w4
  202d44:	54000129 	b.ls	202d68 <lzma_main+0x67c>  // b.plast
  202d48:	b9000183 	str	w3, [x12]
  202d4c:	4b010143 	sub	w3, w10, w1
  202d50:	0b831421 	add	w1, w1, w3, asr #5
  202d54:	782768c1 	strh	w1, [x6, x7]
  202d58:	11000400 	add	w0, w0, #0x1
  202d5c:	7100101f 	cmp	w0, #0x4
  202d60:	54fffc81 	b.ne	202cf0 <lzma_main+0x604>  // b.any
  202d64:	17ffff74 	b	202b34 <lzma_main+0x448>
  202d68:	4b0300a5 	sub	w5, w5, w3
  202d6c:	4b030084 	sub	w4, w4, w3
  202d70:	29001185 	stp	w5, w4, [x12]
  202d74:	4b411421 	sub	w1, w1, w1, lsr #5
  202d78:	782768c1 	strh	w1, [x6, x7]
  202d7c:	11000442 	add	w2, w2, #0x1
  202d80:	1ac02121 	lsl	w1, w9, w0
  202d84:	0b0b0021 	add	w1, w1, w11
  202d88:	b9007d81 	str	w1, [x12, #124]
  202d8c:	17fffff3 	b	202d58 <lzma_main+0x66c>
  202d90:	4b070021 	sub	w1, w1, w7
  202d94:	4b070063 	sub	w3, w3, w7
  202d98:	29000d81 	stp	w1, w3, [x12]
  202d9c:	4b441484 	sub	w4, w4, w4, lsr #5
  202da0:	79044004 	strh	w4, [x0, #544]
  202da4:	6b12003f 	cmp	w1, w18
  202da8:	54000148 	b.hi	202dd0 <lzma_main+0x6e4>  // b.pmore
  202dac:	53185c21 	lsl	w1, w1, #8
  202db0:	b9000181 	str	w1, [x12]
  202db4:	f9400d81 	ldr	x1, [x12, #24]
  202db8:	f9400984 	ldr	x4, [x12, #16]
  202dbc:	91000427 	add	x7, x1, #0x1
  202dc0:	f9000d87 	str	x7, [x12, #24]
  202dc4:	38616881 	ldrb	w1, [x4, x1]
  202dc8:	0b032023 	add	w3, w1, w3, lsl #8
  202dcc:	b9000583 	str	w3, [x12, #4]
  202dd0:	29400584 	ldp	w4, w1, [x12]
  202dd4:	79447007 	ldrh	w7, [x0, #568]
  202dd8:	530b7c83 	lsr	w3, w4, #11
  202ddc:	1b077c63 	mul	w3, w3, w7
  202de0:	6b01007f 	cmp	w3, w1
  202de4:	54000349 	b.ls	202e4c <lzma_main+0x760>  // b.plast
  202de8:	4b070264 	sub	w4, w19, w7
  202dec:	b9000183 	str	w3, [x12]
  202df0:	0b8414e4 	add	w4, w7, w4, asr #5
  202df4:	79047004 	strh	w4, [x0, #568]
  202df8:	6b12007f 	cmp	w3, w18
  202dfc:	54000549 	b.ls	202ea4 <lzma_main+0x7b8>  // b.plast
  202e00:	29400d84 	ldp	w4, w3, [x12]
  202e04:	794500c0 	ldrh	w0, [x6, #640]
  202e08:	530b7c81 	lsr	w1, w4, #11
  202e0c:	1b007c21 	mul	w1, w1, w0
  202e10:	6b03003f 	cmp	w1, w3
  202e14:	540005c9 	b.ls	202ecc <lzma_main+0x7e0>  // b.plast
  202e18:	b9000181 	str	w1, [x12]
  202e1c:	52810001 	mov	w1, #0x800                 	// #2048
  202e20:	4b000021 	sub	w1, w1, w0
  202e24:	710018bf 	cmp	w5, #0x6
  202e28:	0b811400 	add	w0, w0, w1, asr #5
  202e2c:	52800121 	mov	w1, #0x9                   	// #9
  202e30:	790500c0 	strh	w0, [x6, #640]
  202e34:	52800160 	mov	w0, #0xb                   	// #11
  202e38:	1a818000 	csel	w0, w0, w1, hi	// hi = pmore
  202e3c:	b9008d80 	str	w0, [x12, #140]
  202e40:	52800020 	mov	w0, #0x1                   	// #1
  202e44:	b9009180 	str	w0, [x12, #144]
  202e48:	17ffff3b 	b	202b34 <lzma_main+0x448>
  202e4c:	4b030084 	sub	w4, w4, w3
  202e50:	4b030021 	sub	w1, w1, w3
  202e54:	29000584 	stp	w4, w1, [x12]
  202e58:	4b4714e7 	sub	w7, w7, w7, lsr #5
  202e5c:	79047007 	strh	w7, [x0, #568]
  202e60:	6b12009f 	cmp	w4, w18
  202e64:	540004e9 	b.ls	202f00 <lzma_main+0x814>  // b.plast
  202e68:	29400d81 	ldp	w1, w3, [x12]
  202e6c:	7944a004 	ldrh	w4, [x0, #592]
  202e70:	b9408187 	ldr	w7, [x12, #128]
  202e74:	530b7c26 	lsr	w6, w1, #11
  202e78:	1b047cc6 	mul	w6, w6, w4
  202e7c:	6b0300df 	cmp	w6, w3
  202e80:	54000549 	b.ls	202f28 <lzma_main+0x83c>  // b.plast
  202e84:	52810001 	mov	w1, #0x800                 	// #2048
  202e88:	4b040021 	sub	w1, w1, w4
  202e8c:	b9000186 	str	w6, [x12]
  202e90:	0b811481 	add	w1, w4, w1, asr #5
  202e94:	7904a001 	strh	w1, [x0, #592]
  202e98:	b9407d80 	ldr	w0, [x12, #124]
  202e9c:	290f8187 	stp	w7, w0, [x12, #124]
  202ea0:	14000010 	b	202ee0 <lzma_main+0x7f4>
  202ea4:	f9400d80 	ldr	x0, [x12, #24]
  202ea8:	53185c63 	lsl	w3, w3, #8
  202eac:	b9000183 	str	w3, [x12]
  202eb0:	f9400983 	ldr	x3, [x12, #16]
  202eb4:	91000404 	add	x4, x0, #0x1
  202eb8:	f9000d84 	str	x4, [x12, #24]
  202ebc:	38606860 	ldrb	w0, [x3, x0]
  202ec0:	0b012001 	add	w1, w0, w1, lsl #8
  202ec4:	b9000581 	str	w1, [x12, #4]
  202ec8:	17ffffce 	b	202e00 <lzma_main+0x714>
  202ecc:	4b010084 	sub	w4, w4, w1
  202ed0:	4b010063 	sub	w3, w3, w1
  202ed4:	29000d84 	stp	w4, w3, [x12]
  202ed8:	4b401400 	sub	w0, w0, w0, lsr #5
  202edc:	790500c0 	strh	w0, [x6, #640]
  202ee0:	710018bf 	cmp	w5, #0x6
  202ee4:	52800100 	mov	w0, #0x8                   	// #8
  202ee8:	1a8081e0 	csel	w0, w15, w0, hi	// hi = pmore
  202eec:	b9008d80 	str	w0, [x12, #140]
  202ef0:	912c2181 	add	x1, x12, #0xb08
  202ef4:	aa0c03e0 	mov	x0, x12
  202ef8:	97fffd8a 	bl	202520 <lzma_len>
  202efc:	17ffff0e 	b	202b34 <lzma_main+0x448>
  202f00:	f9400d83 	ldr	x3, [x12, #24]
  202f04:	53185c84 	lsl	w4, w4, #8
  202f08:	b9000184 	str	w4, [x12]
  202f0c:	f9400984 	ldr	x4, [x12, #16]
  202f10:	91000466 	add	x6, x3, #0x1
  202f14:	f9000d86 	str	x6, [x12, #24]
  202f18:	38636883 	ldrb	w3, [x4, x3]
  202f1c:	0b012061 	add	w1, w3, w1, lsl #8
  202f20:	b9000581 	str	w1, [x12, #4]
  202f24:	17ffffd1 	b	202e68 <lzma_main+0x77c>
  202f28:	4b060021 	sub	w1, w1, w6
  202f2c:	4b060063 	sub	w3, w3, w6
  202f30:	29000d81 	stp	w1, w3, [x12]
  202f34:	4b441484 	sub	w4, w4, w4, lsr #5
  202f38:	7904a004 	strh	w4, [x0, #592]
  202f3c:	12bfe004 	mov	w4, #0xffffff              	// #16777215
  202f40:	6b04003f 	cmp	w1, w4
  202f44:	54000148 	b.hi	202f6c <lzma_main+0x880>  // b.pmore
  202f48:	53185c21 	lsl	w1, w1, #8
  202f4c:	b9000181 	str	w1, [x12]
  202f50:	f9400d81 	ldr	x1, [x12, #24]
  202f54:	f9400984 	ldr	x4, [x12, #16]
  202f58:	91000426 	add	x6, x1, #0x1
  202f5c:	f9000d86 	str	x6, [x12, #24]
  202f60:	38616881 	ldrb	w1, [x4, x1]
  202f64:	0b032023 	add	w3, w1, w3, lsl #8
  202f68:	b9000583 	str	w3, [x12, #4]
  202f6c:	29401186 	ldp	w6, w4, [x12]
  202f70:	7944d001 	ldrh	w1, [x0, #616]
  202f74:	b9408588 	ldr	w8, [x12, #132]
  202f78:	530b7cc3 	lsr	w3, w6, #11
  202f7c:	1b017c63 	mul	w3, w3, w1
  202f80:	6b04007f 	cmp	w3, w4
  202f84:	54000129 	b.ls	202fa8 <lzma_main+0x8bc>  // b.plast
  202f88:	b9000183 	str	w3, [x12]
  202f8c:	52810003 	mov	w3, #0x800                 	// #2048
  202f90:	4b010063 	sub	w3, w3, w1
  202f94:	0b831421 	add	w1, w1, w3, asr #5
  202f98:	7904d001 	strh	w1, [x0, #616]
  202f9c:	b9008587 	str	w7, [x12, #132]
  202fa0:	2a0803e7 	mov	w7, w8
  202fa4:	17ffffbd 	b	202e98 <lzma_main+0x7ac>
  202fa8:	4b0300c6 	sub	w6, w6, w3
  202fac:	4b030084 	sub	w4, w4, w3
  202fb0:	29001186 	stp	w6, w4, [x12]
  202fb4:	4b411421 	sub	w1, w1, w1, lsr #5
  202fb8:	7904d001 	strh	w1, [x0, #616]
  202fbc:	b9408980 	ldr	w0, [x12, #136]
  202fc0:	b9008988 	str	w8, [x12, #136]
  202fc4:	2a0003e8 	mov	w8, w0
  202fc8:	17fffff5 	b	202f9c <lzma_main+0x8b0>
  202fcc:	a9410582 	ldp	x2, x1, [x12, #16]
  202fd0:	53185c00 	lsl	w0, w0, #8
  202fd4:	b9000180 	str	w0, [x12]
  202fd8:	b9400580 	ldr	w0, [x12, #4]
  202fdc:	91000423 	add	x3, x1, #0x1
  202fe0:	f9000d83 	str	x3, [x12, #24]
  202fe4:	38616841 	ldrb	w1, [x2, x1]
  202fe8:	0b002020 	add	w0, w1, w0, lsl #8
  202fec:	b9000580 	str	w0, [x12, #4]
  202ff0:	17fffddd 	b	202764 <lzma_main+0x78>

0000000000202ff4 <xz_dec_lzma2_run>:
  202ff4:	a9ba7bfd 	stp	x29, x30, [sp, #-96]!
  202ff8:	d28de203 	mov	x3, #0x6f10                	// #28432
  202ffc:	910003fd 	mov	x29, sp
  203000:	a90153f3 	stp	x19, x20, [sp, #16]
  203004:	aa0003f3 	mov	x19, x0
  203008:	aa0103f4 	mov	x20, x1
  20300c:	a9025bf5 	stp	x21, x22, [sp, #32]
  203010:	b0000136 	adrp	x22, 228000 <set_mtk_drm_to_default+0xac>
  203014:	8b030015 	add	x21, x0, x3
  203018:	912042d6 	add	x22, x22, #0x810
  20301c:	a90363f7 	stp	x23, x24, [sp, #48]
  203020:	d2800077 	mov	x23, #0x3                   	// #3
  203024:	f2c00117 	movk	x23, #0x8, lsl #32
  203028:	a9046bf9 	stp	x25, x26, [sp, #64]
  20302c:	f9002bfb 	str	x27, [sp, #80]
  203030:	a9408a80 	ldp	x0, x2, [x20, #8]
  203034:	b9406a61 	ldr	w1, [x19, #104]
  203038:	eb02001f 	cmp	x0, x2
  20303c:	54000083 	b.cc	20304c <xz_dec_lzma2_run+0x58>  // b.lo, b.ul, b.last
  203040:	71001c3f 	cmp	w1, #0x7
  203044:	540019a0 	b.eq	203378 <xz_dec_lzma2_run+0x384>  // b.none
  203048:	14000130 	b	203508 <xz_dec_lzma2_run+0x514>
  20304c:	7100203f 	cmp	w1, #0x8
  203050:	54ffff48 	b.hi	203038 <xz_dec_lzma2_run+0x44>  // b.pmore
  203054:	78615ac1 	ldrh	w1, [x22, w1, uxtw #1]
  203058:	10000063 	adr	x3, 203064 <xz_dec_lzma2_run+0x70>
  20305c:	8b21a861 	add	x1, x3, w1, sxth #2
  203060:	d61f0020 	br	x1
  203064:	9100a279 	add	x25, x19, #0x28
  203068:	b9407663 	ldr	w3, [x19, #116]
  20306c:	a9409281 	ldp	x1, x4, [x20, #8]
  203070:	34002343 	cbz	w3, 2034d8 <xz_dec_lzma2_run+0x4e4>
  203074:	eb01009f 	cmp	x4, x1
  203078:	54002489 	b.ls	203508 <xz_dec_lzma2_run+0x514>  // b.plast
  20307c:	a9420a85 	ldp	x5, x2, [x20, #32]
  203080:	eb05005f 	cmp	x2, x5
  203084:	54002429 	b.ls	203508 <xz_dec_lzma2_run+0x514>  // b.plast
  203088:	f9400b20 	ldr	x0, [x25, #16]
  20308c:	cb010084 	sub	x4, x4, x1
  203090:	f9401738 	ldr	x24, [x25, #40]
  203094:	2a0303e6 	mov	w6, w3
  203098:	cb050042 	sub	x2, x2, x5
  20309c:	cb000318 	sub	x24, x24, x0
  2030a0:	eb23431f 	cmp	x24, w3, uxtw
  2030a4:	9a869318 	csel	x24, x24, x6, ls	// ls = plast
  2030a8:	eb04005f 	cmp	x2, x4
  2030ac:	9a849042 	csel	x2, x2, x4, ls	// ls = plast
  2030b0:	eb02031f 	cmp	x24, x2
  2030b4:	9a829318 	csel	x24, x24, x2, ls	// ls = plast
  2030b8:	4b180063 	sub	w3, w3, w24
  2030bc:	aa1803e2 	mov	x2, x24
  2030c0:	f9400284 	ldr	x4, [x20]
  2030c4:	b9007663 	str	w3, [x19, #116]
  2030c8:	f9400323 	ldr	x3, [x25]
  2030cc:	8b010081 	add	x1, x4, x1
  2030d0:	8b000060 	add	x0, x3, x0
  2030d4:	940093e2 	bl	22805c <memmove>
  2030d8:	a9410720 	ldp	x0, x1, [x25, #16]
  2030dc:	8b000300 	add	x0, x24, x0
  2030e0:	f9000b20 	str	x0, [x25, #16]
  2030e4:	eb01001f 	cmp	x0, x1
  2030e8:	54000049 	b.ls	2030f0 <xz_dec_lzma2_run+0xfc>  // b.plast
  2030ec:	f9000f20 	str	x0, [x25, #24]
  2030f0:	f9000720 	str	x0, [x25, #8]
  2030f4:	f9401280 	ldr	x0, [x20, #32]
  2030f8:	8b180000 	add	x0, x0, x24
  2030fc:	f9001280 	str	x0, [x20, #32]
  203100:	f9400680 	ldr	x0, [x20, #8]
  203104:	8b180000 	add	x0, x0, x24
  203108:	f9000680 	str	x0, [x20, #8]
  20310c:	17ffffd7 	b	203068 <xz_dec_lzma2_run+0x74>
  203110:	f9400281 	ldr	x1, [x20]
  203114:	91000402 	add	x2, x0, #0x1
  203118:	f9000682 	str	x2, [x20, #8]
  20311c:	38606820 	ldrb	w0, [x1, x0]
  203120:	34002900 	cbz	w0, 203640 <xz_dec_lzma2_run+0x64c>
  203124:	71037c1f 	cmp	w0, #0xdf
  203128:	7a419804 	ccmp	w0, #0x1, #0x4, ls	// ls = plast
  20312c:	54000341 	b.ne	203194 <xz_dec_lzma2_run+0x1a0>  // b.any
  203130:	52802001 	mov	w1, #0x100                 	// #256
  203134:	7900f261 	strh	w1, [x19, #120]
  203138:	9100a261 	add	x1, x19, #0x28
  20313c:	b9403c22 	ldr	w2, [x1, #60]
  203140:	350000e2 	cbnz	w2, 20315c <xz_dec_lzma2_run+0x168>
  203144:	a9418e82 	ldp	x2, x3, [x20, #24]
  203148:	8b030042 	add	x2, x2, x3
  20314c:	f9001662 	str	x2, [x19, #40]
  203150:	f9401682 	ldr	x2, [x20, #40]
  203154:	cb030042 	sub	x2, x2, x3
  203158:	f9001422 	str	x2, [x1, #40]
  20315c:	a900fc3f 	stp	xzr, xzr, [x1, #8]
  203160:	a901fc3f 	stp	xzr, xzr, [x1, #24]
  203164:	7101fc1f 	cmp	w0, #0x7f
  203168:	54000529 	b.ls	20320c <xz_dec_lzma2_run+0x218>  // b.plast
  20316c:	53101001 	ubfiz	w1, w0, #16, #5
  203170:	b9007261 	str	w1, [x19, #112]
  203174:	52800021 	mov	w1, #0x1                   	// #1
  203178:	b9006a61 	str	w1, [x19, #104]
  20317c:	7102fc1f 	cmp	w0, #0xbf
  203180:	540001e9 	b.ls	2031bc <xz_dec_lzma2_run+0x1c8>  // b.plast
  203184:	528000a0 	mov	w0, #0x5                   	// #5
  203188:	b9006e60 	str	w0, [x19, #108]
  20318c:	3901e67f 	strb	wzr, [x19, #121]
  203190:	17ffffa8 	b	203030 <xz_dec_lzma2_run+0x3c>
  203194:	3941e261 	ldrb	w1, [x19, #120]
  203198:	3607fe61 	tbz	w1, #0, 203164 <xz_dec_lzma2_run+0x170>
  20319c:	528000e0 	mov	w0, #0x7                   	// #7
  2031a0:	a94153f3 	ldp	x19, x20, [sp, #16]
  2031a4:	a9425bf5 	ldp	x21, x22, [sp, #32]
  2031a8:	a94363f7 	ldp	x23, x24, [sp, #48]
  2031ac:	a9446bf9 	ldp	x25, x26, [sp, #64]
  2031b0:	f9402bfb 	ldr	x27, [sp, #80]
  2031b4:	a8c67bfd 	ldp	x29, x30, [sp], #96
  2031b8:	d65f03c0 	ret
  2031bc:	3941e661 	ldrb	w1, [x19, #121]
  2031c0:	3707fee1 	tbnz	w1, #0, 20319c <xz_dec_lzma2_run+0x1a8>
  2031c4:	528000c1 	mov	w1, #0x6                   	// #6
  2031c8:	b9006e61 	str	w1, [x19, #108]
  2031cc:	71027c1f 	cmp	w0, #0x9f
  2031d0:	54fff309 	b.ls	203030 <xz_dec_lzma2_run+0x3c>  // b.plast
  2031d4:	d28de182 	mov	x2, #0x6f0c                	// #28428
  2031d8:	91028260 	add	x0, x19, #0xa0
  2031dc:	8b020261 	add	x1, x19, x2
  2031e0:	52808002 	mov	w2, #0x400                 	// #1024
  2031e4:	b9007e7f 	str	wzr, [x19, #124]
  2031e8:	a9087e7f 	stp	xzr, xzr, [x19, #128]
  2031ec:	78002402 	strh	w2, [x0], #2
  2031f0:	eb00003f 	cmp	x1, x0
  2031f4:	54ffffc1 	b.ne	2031ec <xz_dec_lzma2_run+0x1f8>  // b.any
  2031f8:	b2407fe0 	mov	x0, #0xffffffff            	// #4294967295
  2031fc:	f9000260 	str	x0, [x19]
  203200:	528000a0 	mov	w0, #0x5                   	// #5
  203204:	b9000a60 	str	w0, [x19, #8]
  203208:	17ffff8a 	b	203030 <xz_dec_lzma2_run+0x3c>
  20320c:	7100081f 	cmp	w0, #0x2
  203210:	54fffc68 	b.hi	20319c <xz_dec_lzma2_run+0x1a8>  // b.pmore
  203214:	f9003677 	str	x23, [x19, #104]
  203218:	17ffff86 	b	203030 <xz_dec_lzma2_run+0x3c>
  20321c:	f9400281 	ldr	x1, [x20]
  203220:	91000402 	add	x2, x0, #0x1
  203224:	f9000682 	str	x2, [x20, #8]
  203228:	38606820 	ldrb	w0, [x1, x0]
  20322c:	b9407261 	ldr	w1, [x19, #112]
  203230:	0b002020 	add	w0, w1, w0, lsl #8
  203234:	b9007260 	str	w0, [x19, #112]
  203238:	52800040 	mov	w0, #0x2                   	// #2
  20323c:	b9006a60 	str	w0, [x19, #104]
  203240:	17ffff7c 	b	203030 <xz_dec_lzma2_run+0x3c>
  203244:	f9400281 	ldr	x1, [x20]
  203248:	91000402 	add	x2, x0, #0x1
  20324c:	f9000682 	str	x2, [x20, #8]
  203250:	38606820 	ldrb	w0, [x1, x0]
  203254:	b9407261 	ldr	w1, [x19, #112]
  203258:	11000421 	add	w1, w1, #0x1
  20325c:	0b010000 	add	w0, w0, w1
  203260:	b9007260 	str	w0, [x19, #112]
  203264:	52800060 	mov	w0, #0x3                   	// #3
  203268:	17fffff5 	b	20323c <xz_dec_lzma2_run+0x248>
  20326c:	f9400281 	ldr	x1, [x20]
  203270:	91000402 	add	x2, x0, #0x1
  203274:	f9000682 	str	x2, [x20, #8]
  203278:	38606820 	ldrb	w0, [x1, x0]
  20327c:	53185c00 	lsl	w0, w0, #8
  203280:	b9007660 	str	w0, [x19, #116]
  203284:	52800080 	mov	w0, #0x4                   	// #4
  203288:	17ffffed 	b	20323c <xz_dec_lzma2_run+0x248>
  20328c:	f9400281 	ldr	x1, [x20]
  203290:	91000402 	add	x2, x0, #0x1
  203294:	f9000682 	str	x2, [x20, #8]
  203298:	38606820 	ldrb	w0, [x1, x0]
  20329c:	b9407661 	ldr	w1, [x19, #116]
  2032a0:	11000421 	add	w1, w1, #0x1
  2032a4:	0b010000 	add	w0, w0, w1
  2032a8:	b9007660 	str	w0, [x19, #116]
  2032ac:	b9406e60 	ldr	w0, [x19, #108]
  2032b0:	17ffffe3 	b	20323c <xz_dec_lzma2_run+0x248>
  2032b4:	f9400281 	ldr	x1, [x20]
  2032b8:	91000403 	add	x3, x0, #0x1
  2032bc:	f9000683 	str	x3, [x20, #8]
  2032c0:	38606820 	ldrb	w0, [x1, x0]
  2032c4:	7103801f 	cmp	w0, #0xe0
  2032c8:	54fff6a8 	b.hi	20319c <xz_dec_lzma2_run+0x1a8>  // b.pmore
  2032cc:	52800003 	mov	w3, #0x0                   	// #0
  2032d0:	7100b01f 	cmp	w0, #0x2c
  2032d4:	54001068 	b.hi	2034e0 <xz_dec_lzma2_run+0x4ec>  // b.pmore
  2032d8:	52800021 	mov	w1, #0x1                   	// #1
  2032dc:	1ac32021 	lsl	w1, w1, w3
  2032e0:	51000421 	sub	w1, w1, #0x1
  2032e4:	b9009e61 	str	w1, [x19, #156]
  2032e8:	52800001 	mov	w1, #0x0                   	// #0
  2032ec:	7100201f 	cmp	w0, #0x8
  2032f0:	54001008 	b.hi	2034f0 <xz_dec_lzma2_run+0x4fc>  // b.pmore
  2032f4:	29128660 	stp	w0, w1, [x19, #148]
  2032f8:	0b010000 	add	w0, w0, w1
  2032fc:	7100101f 	cmp	w0, #0x4
  203300:	54fff4e8 	b.hi	20319c <xz_dec_lzma2_run+0x1a8>  // b.pmore
  203304:	52800020 	mov	w0, #0x1                   	// #1
  203308:	52808003 	mov	w3, #0x400                 	// #1024
  20330c:	1ac12000 	lsl	w0, w0, w1
  203310:	51000400 	sub	w0, w0, #0x1
  203314:	d28de181 	mov	x1, #0x6f0c                	// #28428
  203318:	8b010261 	add	x1, x19, x1
  20331c:	b9009a60 	str	w0, [x19, #152]
  203320:	91028260 	add	x0, x19, #0xa0
  203324:	b9007e7f 	str	wzr, [x19, #124]
  203328:	a9087e7f 	stp	xzr, xzr, [x19, #128]
  20332c:	78002403 	strh	w3, [x0], #2
  203330:	eb00003f 	cmp	x1, x0
  203334:	54ffffc1 	b.ne	20332c <xz_dec_lzma2_run+0x338>  // b.any
  203338:	b2407fe0 	mov	x0, #0xffffffff            	// #4294967295
  20333c:	f9000260 	str	x0, [x19]
  203340:	528000a0 	mov	w0, #0x5                   	// #5
  203344:	b9000a60 	str	w0, [x19, #8]
  203348:	528000c0 	mov	w0, #0x6                   	// #6
  20334c:	b9006a60 	str	w0, [x19, #104]
  203350:	b9407660 	ldr	w0, [x19, #116]
  203354:	7100101f 	cmp	w0, #0x4
  203358:	54fff229 	b.ls	20319c <xz_dec_lzma2_run+0x1a8>  // b.plast
  20335c:	b9400a61 	ldr	w1, [x19, #8]
  203360:	f9400683 	ldr	x3, [x20, #8]
  203364:	35000ce1 	cbnz	w1, 203500 <xz_dec_lzma2_run+0x50c>
  203368:	51001400 	sub	w0, w0, #0x5
  20336c:	b9007660 	str	w0, [x19, #116]
  203370:	528000e0 	mov	w0, #0x7                   	// #7
  203374:	b9006a60 	str	w0, [x19, #104]
  203378:	a9420281 	ldp	x1, x0, [x20, #32]
  20337c:	9100a279 	add	x25, x19, #0x28
  203380:	f9400b23 	ldr	x3, [x25, #16]
  203384:	cb010000 	sub	x0, x0, x1
  203388:	b9407261 	ldr	w1, [x19, #112]
  20338c:	eb01001f 	cmp	x0, x1
  203390:	9a819000 	csel	x0, x0, x1, ls	// ls = plast
  203394:	f9401721 	ldr	x1, [x25, #40]
  203398:	cb030024 	sub	x4, x1, x3
  20339c:	eb04001f 	cmp	x0, x4
  2033a0:	54000042 	b.cs	2033a8 <xz_dec_lzma2_run+0x3b4>  // b.hs, b.nlast
  2033a4:	8b030001 	add	x1, x0, x3
  2033a8:	91401278 	add	x24, x19, #0x4, lsl #12
  2033ac:	b9407663 	ldr	w3, [x19, #116]
  2033b0:	b96f0f00 	ldr	w0, [x24, #12044]
  2033b4:	f9001321 	str	x1, [x25, #32]
  2033b8:	f9400681 	ldr	x1, [x20, #8]
  2033bc:	cb010044 	sub	x4, x2, x1
  2033c0:	35000040 	cbnz	w0, 2033c8 <xz_dec_lzma2_run+0x3d4>
  2033c4:	35000d43 	cbnz	w3, 20356c <xz_dec_lzma2_run+0x578>
  2033c8:	4b000063 	sub	w3, w3, w0
  2033cc:	52800542 	mov	w2, #0x2a                  	// #42
  2033d0:	4b000042 	sub	w2, w2, w0
  2033d4:	8b2042a0 	add	x0, x21, w0, uxtw
  2033d8:	6b03005f 	cmp	w2, w3
  2033dc:	1a83905a 	csel	w26, w2, w3, ls	// ls = plast
  2033e0:	1a839042 	csel	w2, w2, w3, ls	// ls = plast
  2033e4:	f9400283 	ldr	x3, [x20]
  2033e8:	eb02009f 	cmp	x4, x2
  2033ec:	1a84235a 	csel	w26, w26, w4, cs	// cs = hs, nlast
  2033f0:	2a1a03fb 	mov	w27, w26
  2033f4:	8b010061 	add	x1, x3, x1
  2033f8:	aa1b03e2 	mov	x2, x27
  2033fc:	94009310 	bl	22803c <memcpy>
  203400:	b96f0f00 	ldr	w0, [x24, #12044]
  203404:	b9407662 	ldr	w2, [x19, #116]
  203408:	0b000341 	add	w1, w26, w0
  20340c:	6b02003f 	cmp	w1, w2
  203410:	54000921 	b.ne	203534 <xz_dec_lzma2_run+0x540>  // b.any
  203414:	8b204360 	add	x0, x27, w0, uxtw
  203418:	52800001 	mov	w1, #0x0                   	// #0
  20341c:	d28007e2 	mov	x2, #0x3f                  	// #63
  203420:	cb000042 	sub	x2, x2, x0
  203424:	8b0002a0 	add	x0, x21, x0
  203428:	9400931a 	bl	228090 <memset>
  20342c:	b96f0f01 	ldr	w1, [x24, #12044]
  203430:	0b010341 	add	w1, w26, w1
  203434:	a9017e75 	stp	x21, xzr, [x19, #16]
  203438:	aa1303e0 	mov	x0, x19
  20343c:	f9001261 	str	x1, [x19, #32]
  203440:	97fffcab 	bl	2026ec <lzma_main>
  203444:	3607eac0 	tbz	w0, #0, 20319c <xz_dec_lzma2_run+0x1a8>
  203448:	f9400e61 	ldr	x1, [x19, #24]
  20344c:	b96f0f02 	ldr	w2, [x24, #12044]
  203450:	0b02035a 	add	w26, w26, w2
  203454:	eb1a003f 	cmp	x1, x26
  203458:	54ffea28 	b.hi	20319c <xz_dec_lzma2_run+0x1a8>  // b.pmore
  20345c:	b9407660 	ldr	w0, [x19, #116]
  203460:	4b010000 	sub	w0, w0, w1
  203464:	b9007660 	str	w0, [x19, #116]
  203468:	2a0203e0 	mov	w0, w2
  20346c:	eb22403f 	cmp	x1, w2, uxtw
  203470:	54000742 	b.cs	203558 <xz_dec_lzma2_run+0x564>  // b.hs, b.nlast
  203474:	4b010042 	sub	w2, w2, w1
  203478:	b92f0f02 	str	w2, [x24, #12044]
  20347c:	8b0102a1 	add	x1, x21, x1
  203480:	aa1503e0 	mov	x0, x21
  203484:	940092f6 	bl	22805c <memmove>
  203488:	a9408322 	ldp	x2, x0, [x25, #8]
  20348c:	b9407261 	ldr	w1, [x19, #112]
  203490:	f9000720 	str	x0, [x25, #8]
  203494:	cb020002 	sub	x2, x0, x2
  203498:	f9401280 	ldr	x0, [x20, #32]
  20349c:	4b020021 	sub	w1, w1, w2
  2034a0:	8b000040 	add	x0, x2, x0
  2034a4:	f9001280 	str	x0, [x20, #32]
  2034a8:	b9007261 	str	w1, [x19, #112]
  2034ac:	35000b41 	cbnz	w1, 203614 <xz_dec_lzma2_run+0x620>
  2034b0:	b9407660 	ldr	w0, [x19, #116]
  2034b4:	35ffe740 	cbnz	w0, 20319c <xz_dec_lzma2_run+0x1a8>
  2034b8:	b9409260 	ldr	w0, [x19, #144]
  2034bc:	35ffe700 	cbnz	w0, 20319c <xz_dec_lzma2_run+0x1a8>
  2034c0:	b9400660 	ldr	w0, [x19, #4]
  2034c4:	35ffe6c0 	cbnz	w0, 20319c <xz_dec_lzma2_run+0x1a8>
  2034c8:	b2407fe0 	mov	x0, #0xffffffff            	// #4294967295
  2034cc:	f9000260 	str	x0, [x19]
  2034d0:	528000a0 	mov	w0, #0x5                   	// #5
  2034d4:	b9000a60 	str	w0, [x19, #8]
  2034d8:	b9006a7f 	str	wzr, [x19, #104]
  2034dc:	17fffed5 	b	203030 <xz_dec_lzma2_run+0x3c>
  2034e0:	5100b400 	sub	w0, w0, #0x2d
  2034e4:	11000463 	add	w3, w3, #0x1
  2034e8:	12001c00 	and	w0, w0, #0xff
  2034ec:	17ffff79 	b	2032d0 <xz_dec_lzma2_run+0x2dc>
  2034f0:	51002400 	sub	w0, w0, #0x9
  2034f4:	11000421 	add	w1, w1, #0x1
  2034f8:	12001c00 	and	w0, w0, #0xff
  2034fc:	17ffff7c 	b	2032ec <xz_dec_lzma2_run+0x2f8>
  203500:	eb03005f 	cmp	x2, x3
  203504:	54000061 	b.ne	203510 <xz_dec_lzma2_run+0x51c>  // b.any
  203508:	52800000 	mov	w0, #0x0                   	// #0
  20350c:	17ffff25 	b	2031a0 <xz_dec_lzma2_run+0x1ac>
  203510:	f9400285 	ldr	x5, [x20]
  203514:	91000466 	add	x6, x3, #0x1
  203518:	b9400664 	ldr	w4, [x19, #4]
  20351c:	51000421 	sub	w1, w1, #0x1
  203520:	f9000686 	str	x6, [x20, #8]
  203524:	386368a3 	ldrb	w3, [x5, x3]
  203528:	0b042063 	add	w3, w3, w4, lsl #8
  20352c:	29008663 	stp	w3, w1, [x19, #4]
  203530:	17ffff8b 	b	20335c <xz_dec_lzma2_run+0x368>
  203534:	7100503f 	cmp	w1, #0x14
  203538:	540000c8 	b.hi	203550 <xz_dec_lzma2_run+0x55c>  // b.pmore
  20353c:	f9400680 	ldr	x0, [x20, #8]
  203540:	b92f0f01 	str	w1, [x24, #12044]
  203544:	8b1b0000 	add	x0, x0, x27
  203548:	f9000680 	str	x0, [x20, #8]
  20354c:	17ffffcf 	b	203488 <xz_dec_lzma2_run+0x494>
  203550:	51005421 	sub	w1, w1, #0x15
  203554:	17ffffb8 	b	203434 <xz_dec_lzma2_run+0x440>
  203558:	f9400682 	ldr	x2, [x20, #8]
  20355c:	8b020021 	add	x1, x1, x2
  203560:	cb000021 	sub	x1, x1, x0
  203564:	f9000681 	str	x1, [x20, #8]
  203568:	b92f0f1f 	str	wzr, [x24, #12044]
  20356c:	a9408282 	ldp	x2, x0, [x20, #8]
  203570:	cb020003 	sub	x3, x0, x2
  203574:	f100507f 	cmp	x3, #0x14
  203578:	540002c9 	b.ls	2035d0 <xz_dec_lzma2_run+0x5dc>  // b.plast
  20357c:	f9400281 	ldr	x1, [x20]
  203580:	a9010a61 	stp	x1, x2, [x19, #16]
  203584:	b9407661 	ldr	w1, [x19, #116]
  203588:	d1005400 	sub	x0, x0, #0x15
  20358c:	11005424 	add	w4, w1, #0x15
  203590:	eb04007f 	cmp	x3, x4
  203594:	8b214041 	add	x1, x2, w1, uxtw
  203598:	9a813000 	csel	x0, x0, x1, cc	// cc = lo, ul, last
  20359c:	f9001260 	str	x0, [x19, #32]
  2035a0:	aa1303e0 	mov	x0, x19
  2035a4:	97fffc52 	bl	2026ec <lzma_main>
  2035a8:	3607dfa0 	tbz	w0, #0, 20319c <xz_dec_lzma2_run+0x1a8>
  2035ac:	f9400681 	ldr	x1, [x20, #8]
  2035b0:	f9400e62 	ldr	x2, [x19, #24]
  2035b4:	b9407660 	ldr	w0, [x19, #116]
  2035b8:	cb010041 	sub	x1, x2, x1
  2035bc:	eb20403f 	cmp	x1, w0, uxtw
  2035c0:	54ffdee8 	b.hi	20319c <xz_dec_lzma2_run+0x1a8>  // b.pmore
  2035c4:	4b010000 	sub	w0, w0, w1
  2035c8:	b9007660 	str	w0, [x19, #116]
  2035cc:	f9000682 	str	x2, [x20, #8]
  2035d0:	a9408281 	ldp	x1, x0, [x20, #8]
  2035d4:	cb010000 	sub	x0, x0, x1
  2035d8:	f100501f 	cmp	x0, #0x14
  2035dc:	54fff568 	b.hi	203488 <xz_dec_lzma2_run+0x494>  // b.pmore
  2035e0:	b940767a 	ldr	w26, [x19, #116]
  2035e4:	eb00035f 	cmp	x26, x0
  2035e8:	9a80935a 	csel	x26, x26, x0, ls	// ls = plast
  2035ec:	f9400280 	ldr	x0, [x20]
  2035f0:	aa1a03e2 	mov	x2, x26
  2035f4:	8b010001 	add	x1, x0, x1
  2035f8:	d28de200 	mov	x0, #0x6f10                	// #28432
  2035fc:	8b000260 	add	x0, x19, x0
  203600:	9400928f 	bl	22803c <memcpy>
  203604:	f9400680 	ldr	x0, [x20, #8]
  203608:	b92f0f1a 	str	w26, [x24, #12044]
  20360c:	8b1a0000 	add	x0, x0, x26
  203610:	17ffffce 	b	203548 <xz_dec_lzma2_run+0x554>
  203614:	f9401681 	ldr	x1, [x20, #40]
  203618:	eb00003f 	cmp	x1, x0
  20361c:	54fff760 	b.eq	203508 <xz_dec_lzma2_run+0x514>  // b.none
  203620:	a9408281 	ldp	x1, x0, [x20, #8]
  203624:	eb00003f 	cmp	x1, x0
  203628:	54ffd041 	b.ne	203030 <xz_dec_lzma2_run+0x3c>  // b.any
  20362c:	b9407660 	ldr	w0, [x19, #116]
  203630:	b96f0f01 	ldr	w1, [x24, #12044]
  203634:	6b00003f 	cmp	w1, w0
  203638:	54ffcfc2 	b.cs	203030 <xz_dec_lzma2_run+0x3c>  // b.hs, b.nlast
  20363c:	17ffffb3 	b	203508 <xz_dec_lzma2_run+0x514>
  203640:	52800020 	mov	w0, #0x1                   	// #1
  203644:	17fffed7 	b	2031a0 <xz_dec_lzma2_run+0x1ac>

0000000000203648 <xz_dec_lzma2_create>:
  203648:	a9be7bfd 	stp	x29, x30, [sp, #-32]!
  20364c:	910003fd 	mov	x29, sp
  203650:	a90153f3 	stp	x19, x20, [sp, #16]
  203654:	2a0003f4 	mov	w20, w0
  203658:	2a0103f3 	mov	w19, w1
  20365c:	d28dea00 	mov	x0, #0x6f50                	// #28496
  203660:	97fffb04 	bl	202270 <xz_malloc>
  203664:	b4000060 	cbz	x0, 203670 <xz_dec_lzma2_create+0x28>
  203668:	b9005c13 	str	w19, [x0, #92]
  20366c:	b9006414 	str	w20, [x0, #100]
  203670:	a94153f3 	ldp	x19, x20, [sp, #16]
  203674:	a8c27bfd 	ldp	x29, x30, [sp], #32
  203678:	d65f03c0 	ret

000000000020367c <xz_dec_lzma2_reset>:
  20367c:	12001c21 	and	w1, w1, #0xff
  203680:	71009c3f 	cmp	w1, #0x27
  203684:	540001e8 	b.hi	2036c0 <xz_dec_lzma2_reset+0x44>  // b.pmore
  203688:	12000022 	and	w2, w1, #0x1
  20368c:	53017c21 	lsr	w1, w1, #1
  203690:	11002c21 	add	w1, w1, #0xb
  203694:	11000842 	add	w2, w2, #0x2
  203698:	b900681f 	str	wzr, [x0, #104]
  20369c:	1ac12042 	lsl	w2, w2, w1
  2036a0:	52800021 	mov	w1, #0x1                   	// #1
  2036a4:	b9005802 	str	w2, [x0, #88]
  2036a8:	3901e001 	strb	w1, [x0, #120]
  2036ac:	b900901f 	str	wzr, [x0, #144]
  2036b0:	91401000 	add	x0, x0, #0x4, lsl #12
  2036b4:	b92f0c1f 	str	wzr, [x0, #12044]
  2036b8:	52800000 	mov	w0, #0x0                   	// #0
  2036bc:	d65f03c0 	ret
  2036c0:	528000c0 	mov	w0, #0x6                   	// #6
  2036c4:	17fffffe 	b	2036bc <xz_dec_lzma2_reset+0x40>

00000000002036c8 <xz_dec_lzma2_end>:
  2036c8:	d65f03c0 	ret

00000000002036cc <get_unaligned_le32>:
  2036cc:	39400001 	ldrb	w1, [x0]
  2036d0:	39400402 	ldrb	w2, [x0, #1]
  2036d4:	aa022022 	orr	x2, x1, x2, lsl #8
  2036d8:	39400801 	ldrb	w1, [x0, #2]
  2036dc:	39400c00 	ldrb	w0, [x0, #3]
  2036e0:	aa014041 	orr	x1, x2, x1, lsl #16
  2036e4:	2a006020 	orr	w0, w1, w0, lsl #24
  2036e8:	d65f03c0 	ret

00000000002036ec <dec_vli>:
  2036ec:	b9400404 	ldr	w4, [x0, #4]
  2036f0:	35000044 	cbnz	w4, 2036f8 <dec_vli+0xc>
  2036f4:	f900041f 	str	xzr, [x0, #8]
  2036f8:	f9400044 	ldr	x4, [x2]
  2036fc:	eb03009f 	cmp	x4, x3
  203700:	54000063 	b.cc	20370c <dec_vli+0x20>  // b.lo, b.ul, b.last
  203704:	52800000 	mov	w0, #0x0                   	// #0
  203708:	1400000e 	b	203740 <dec_vli+0x54>
  20370c:	38646825 	ldrb	w5, [x1, x4]
  203710:	91000484 	add	x4, x4, #0x1
  203714:	f9000044 	str	x4, [x2]
  203718:	b9400404 	ldr	w4, [x0, #4]
  20371c:	924018a7 	and	x7, x5, #0x7f
  203720:	f9400406 	ldr	x6, [x0, #8]
  203724:	9ac420e7 	lsl	x7, x7, x4
  203728:	aa0700c6 	orr	x6, x6, x7
  20372c:	f9000406 	str	x6, [x0, #8]
  203730:	37380105 	tbnz	w5, #7, 203750 <dec_vli+0x64>
  203734:	35000085 	cbnz	w5, 203744 <dec_vli+0x58>
  203738:	34000064 	cbz	w4, 203744 <dec_vli+0x58>
  20373c:	528000e0 	mov	w0, #0x7                   	// #7
  203740:	d65f03c0 	ret
  203744:	b900041f 	str	wzr, [x0, #4]
  203748:	52800020 	mov	w0, #0x1                   	// #1
  20374c:	17fffffd 	b	203740 <dec_vli+0x54>
  203750:	11001c84 	add	w4, w4, #0x7
  203754:	b9000404 	str	w4, [x0, #4]
  203758:	7100fc9f 	cmp	w4, #0x3f
  20375c:	54fffce1 	b.ne	2036f8 <dec_vli+0xc>  // b.any
  203760:	17fffff7 	b	20373c <dec_vli+0x50>

0000000000203764 <index_update>:
  203764:	a9be7bfd 	stp	x29, x30, [sp, #-32]!
  203768:	910003fd 	mov	x29, sp
  20376c:	a9400823 	ldp	x3, x2, [x1]
  203770:	f9000bf3 	str	x19, [sp, #16]
  203774:	aa0003f3 	mov	x19, x0
  203778:	f9400800 	ldr	x0, [x0, #16]
  20377c:	cb000041 	sub	x1, x2, x0
  203780:	8b000060 	add	x0, x3, x0
  203784:	f9404262 	ldr	x2, [x19, #128]
  203788:	8b010042 	add	x2, x2, x1
  20378c:	f9004262 	str	x2, [x19, #128]
  203790:	b9402262 	ldr	w2, [x19, #32]
  203794:	97fffb29 	bl	202438 <xz_crc32>
  203798:	b9002260 	str	w0, [x19, #32]
  20379c:	f9400bf3 	ldr	x19, [sp, #16]
  2037a0:	a8c27bfd 	ldp	x29, x30, [sp], #32
  2037a4:	d65f03c0 	ret

00000000002037a8 <fill_temp>:
  2037a8:	a9bd7bfd 	stp	x29, x30, [sp, #-48]!
  2037ac:	9102e003 	add	x3, x0, #0xb8
  2037b0:	910003fd 	mov	x29, sp
  2037b4:	a90153f3 	stp	x19, x20, [sp, #16]
  2037b8:	aa0003f4 	mov	x20, x0
  2037bc:	f9405400 	ldr	x0, [x0, #168]
  2037c0:	f9405a93 	ldr	x19, [x20, #176]
  2037c4:	f90013f5 	str	x21, [sp, #32]
  2037c8:	aa0103f5 	mov	x21, x1
  2037cc:	f9400421 	ldr	x1, [x1, #8]
  2037d0:	cb000273 	sub	x19, x19, x0
  2037d4:	f9400aa2 	ldr	x2, [x21, #16]
  2037d8:	8b000060 	add	x0, x3, x0
  2037dc:	f94002a4 	ldr	x4, [x21]
  2037e0:	cb010042 	sub	x2, x2, x1
  2037e4:	eb02027f 	cmp	x19, x2
  2037e8:	9a829273 	csel	x19, x19, x2, ls	// ls = plast
  2037ec:	8b010081 	add	x1, x4, x1
  2037f0:	aa1303e2 	mov	x2, x19
  2037f4:	94009212 	bl	22803c <memcpy>
  2037f8:	f94006a0 	ldr	x0, [x21, #8]
  2037fc:	8b130000 	add	x0, x0, x19
  203800:	f90006a0 	str	x0, [x21, #8]
  203804:	f9405680 	ldr	x0, [x20, #168]
  203808:	8b000273 	add	x19, x19, x0
  20380c:	f9405a80 	ldr	x0, [x20, #176]
  203810:	eb00027f 	cmp	x19, x0
  203814:	54000101 	b.ne	203834 <fill_temp+0x8c>  // b.any
  203818:	d2800013 	mov	x19, #0x0                   	// #0
  20381c:	52800020 	mov	w0, #0x1                   	// #1
  203820:	f9005693 	str	x19, [x20, #168]
  203824:	a94153f3 	ldp	x19, x20, [sp, #16]
  203828:	f94013f5 	ldr	x21, [sp, #32]
  20382c:	a8c37bfd 	ldp	x29, x30, [sp], #48
  203830:	d65f03c0 	ret
  203834:	52800000 	mov	w0, #0x0                   	// #0
  203838:	17fffffa 	b	203820 <fill_temp+0x78>

000000000020383c <xz_dec_reset>:
  20383c:	a9be7bfd 	stp	x29, x30, [sp, #-32]!
  203840:	d2800602 	mov	x2, #0x30                  	// #48
  203844:	52800001 	mov	w1, #0x0                   	// #0
  203848:	910003fd 	mov	x29, sp
  20384c:	f9000bf3 	str	x19, [sp, #16]
  203850:	aa0003f3 	mov	x19, x0
  203854:	3900b01f 	strb	wzr, [x0, #44]
  203858:	91012000 	add	x0, x0, #0x48
  20385c:	f900027f 	str	xzr, [x19]
  203860:	b900227f 	str	wzr, [x19, #32]
  203864:	9400920b 	bl	228090 <memset>
  203868:	9101e260 	add	x0, x19, #0x78
  20386c:	d2800602 	mov	x2, #0x30                  	// #48
  203870:	52800001 	mov	w1, #0x0                   	// #0
  203874:	94009207 	bl	228090 <memset>
  203878:	d2800180 	mov	x0, #0xc                   	// #12
  20387c:	a90a827f 	stp	xzr, x0, [x19, #168]
  203880:	f9400bf3 	ldr	x19, [sp, #16]
  203884:	a8c27bfd 	ldp	x29, x30, [sp], #32
  203888:	d65f03c0 	ret

000000000020388c <xz_dec_run>:
  20388c:	a9bb7bfd 	stp	x29, x30, [sp, #-80]!
  203890:	910003fd 	mov	x29, sp
  203894:	a90153f3 	stp	x19, x20, [sp, #16]
  203898:	aa0103f4 	mov	x20, x1
  20389c:	b9402801 	ldr	w1, [x0, #40]
  2038a0:	a9025bf5 	stp	x21, x22, [sp, #32]
  2038a4:	aa0003f3 	mov	x19, x0
  2038a8:	a90363f7 	stp	x23, x24, [sp, #48]
  2038ac:	a9046bf9 	stp	x25, x26, [sp, #64]
  2038b0:	35000041 	cbnz	w1, 2038b8 <xz_dec_run+0x2c>
  2038b4:	97ffffe2 	bl	20383c <xz_dec_reset>
  2038b8:	f9400696 	ldr	x22, [x20, #8]
  2038bc:	f9401297 	ldr	x23, [x20, #32]
  2038c0:	f9000a76 	str	x22, [x19, #16]
  2038c4:	b9400261 	ldr	w1, [x19]
  2038c8:	7100243f 	cmp	w1, #0x9
  2038cc:	540002c8 	b.hi	203924 <xz_dec_run+0x98>  // b.pmore
  2038d0:	b0000120 	adrp	x0, 228000 <set_mtk_drm_to_default+0xac>
  2038d4:	91209000 	add	x0, x0, #0x824
  2038d8:	78615800 	ldrh	w0, [x0, w1, uxtw #1]
  2038dc:	10000061 	adr	x1, 2038e8 <xz_dec_run+0x5c>
  2038e0:	8b20a820 	add	x0, x1, w0, sxth #2
  2038e4:	d61f0000 	br	x0
  2038e8:	91002298 	add	x24, x20, #0x8
  2038ec:	9102427a 	add	x26, x19, #0x90
  2038f0:	52800059 	mov	w25, #0x2                   	// #2
  2038f4:	f9400281 	ldr	x1, [x20]
  2038f8:	aa1803e2 	mov	x2, x24
  2038fc:	f9400a83 	ldr	x3, [x20, #16]
  203900:	aa1303e0 	mov	x0, x19
  203904:	97ffff7a 	bl	2036ec <dec_vli>
  203908:	2a0003f5 	mov	w21, w0
  20390c:	7100041f 	cmp	w0, #0x1
  203910:	54002060 	b.eq	203d1c <xz_dec_run+0x490>  // b.none
  203914:	aa1403e1 	mov	x1, x20
  203918:	aa1303e0 	mov	x0, x19
  20391c:	97ffff92 	bl	203764 <index_update>
  203920:	14000018 	b	203980 <xz_dec_run+0xf4>
  203924:	14000000 	b	203924 <xz_dec_run+0x98>
  203928:	aa1403e1 	mov	x1, x20
  20392c:	aa1303e0 	mov	x0, x19
  203930:	97ffff9e 	bl	2037a8 <fill_temp>
  203934:	36001e00 	tbz	w0, #0, 203cf4 <xz_dec_run+0x468>
  203938:	aa1303e0 	mov	x0, x19
  20393c:	52800021 	mov	w1, #0x1                   	// #1
  203940:	d28000c2 	mov	x2, #0x6                   	// #6
  203944:	b80b8401 	str	w1, [x0], #184
  203948:	f0000121 	adrp	x1, 22a000 <ACTimingTbl_DDR4+0x53a>
  20394c:	91305821 	add	x1, x1, #0xc16
  203950:	940091ae 	bl	228008 <memcmp>
  203954:	35002d60 	cbnz	w0, 203f00 <xz_dec_run+0x674>
  203958:	52800002 	mov	w2, #0x0                   	// #0
  20395c:	d2800041 	mov	x1, #0x2                   	// #2
  203960:	9102fa60 	add	x0, x19, #0xbe
  203964:	97fffab5 	bl	202438 <xz_crc32>
  203968:	2a0003e3 	mov	w3, w0
  20396c:	91030260 	add	x0, x19, #0xc0
  203970:	97ffff57 	bl	2036cc <get_unaligned_le32>
  203974:	6b00007f 	cmp	w3, w0
  203978:	54000180 	b.eq	2039a8 <xz_dec_run+0x11c>  // b.none
  20397c:	528000f5 	mov	w21, #0x7                   	// #7
  203980:	b9402a60 	ldr	w0, [x19, #40]
  203984:	35002d40 	cbnz	w0, 203f2c <xz_dec_run+0x6a0>
  203988:	35002c15 	cbnz	w21, 203f08 <xz_dec_run+0x67c>
  20398c:	a9408281 	ldp	x1, x0, [x20, #8]
  203990:	eb00003f 	cmp	x1, x0
  203994:	1a9f07f5 	cset	w21, ne	// ne = any
  203998:	11001eb5 	add	w21, w21, #0x7
  20399c:	f9000696 	str	x22, [x20, #8]
  2039a0:	f9001297 	str	x23, [x20, #32]
  2039a4:	1400015b 	b	203f10 <xz_dec_run+0x684>
  2039a8:	3942fa60 	ldrb	w0, [x19, #190]
  2039ac:	34000060 	cbz	w0, 2039b8 <xz_dec_run+0x12c>
  2039b0:	528000d5 	mov	w21, #0x6                   	// #6
  2039b4:	17fffff3 	b	203980 <xz_dec_run+0xf4>
  2039b8:	3942fe60 	ldrb	w0, [x19, #191]
  2039bc:	b9002660 	str	w0, [x19, #36]
  2039c0:	7100041f 	cmp	w0, #0x1
  2039c4:	54ffff68 	b.hi	2039b0 <xz_dec_run+0x124>  // b.pmore
  2039c8:	a9408281 	ldp	x1, x0, [x20, #8]
  2039cc:	eb00003f 	cmp	x1, x0
  2039d0:	54001920 	b.eq	203cf4 <xz_dec_run+0x468>  // b.none
  2039d4:	f9400280 	ldr	x0, [x20]
  2039d8:	38616800 	ldrb	w0, [x0, x1]
  2039dc:	350000e0 	cbnz	w0, 2039f8 <xz_dec_run+0x16c>
  2039e0:	91000420 	add	x0, x1, #0x1
  2039e4:	f9000680 	str	x0, [x20, #8]
  2039e8:	528000c0 	mov	w0, #0x6                   	// #6
  2039ec:	f9000a61 	str	x1, [x19, #16]
  2039f0:	b9000260 	str	w0, [x19]
  2039f4:	17ffffb4 	b	2038c4 <xz_dec_run+0x38>
  2039f8:	11000400 	add	w0, w0, #0x1
  2039fc:	531e7400 	lsl	w0, w0, #2
  203a00:	b9004260 	str	w0, [x19, #64]
  203a04:	a90a827f 	stp	xzr, x0, [x19, #168]
  203a08:	52800040 	mov	w0, #0x2                   	// #2
  203a0c:	b9000260 	str	w0, [x19]
  203a10:	aa1403e1 	mov	x1, x20
  203a14:	aa1303e0 	mov	x0, x19
  203a18:	97ffff64 	bl	2037a8 <fill_temp>
  203a1c:	360016c0 	tbz	w0, #0, 203cf4 <xz_dec_run+0x468>
  203a20:	f9405a61 	ldr	x1, [x19, #176]
  203a24:	9102e275 	add	x21, x19, #0xb8
  203a28:	aa1503e0 	mov	x0, x21
  203a2c:	52800002 	mov	w2, #0x0                   	// #0
  203a30:	d1001021 	sub	x1, x1, #0x4
  203a34:	f9005a61 	str	x1, [x19, #176]
  203a38:	97fffa80 	bl	202438 <xz_crc32>
  203a3c:	2a0003e4 	mov	w4, w0
  203a40:	f9405a63 	ldr	x3, [x19, #176]
  203a44:	8b0302a0 	add	x0, x21, x3
  203a48:	97ffff21 	bl	2036cc <get_unaligned_le32>
  203a4c:	6b00009f 	cmp	w4, w0
  203a50:	54fff961 	b.ne	20397c <xz_dec_run+0xf0>  // b.any
  203a54:	3942e668 	ldrb	w8, [x19, #185]
  203a58:	d2800040 	mov	x0, #0x2                   	// #2
  203a5c:	f9005660 	str	x0, [x19, #168]
  203a60:	f240151f 	tst	x8, #0x3f
  203a64:	54fffa61 	b.ne	2039b0 <xz_dec_run+0x124>  // b.any
  203a68:	363012c8 	tbz	w8, #6, 203cc0 <xz_dec_run+0x434>
  203a6c:	9102a262 	add	x2, x19, #0xa8
  203a70:	aa1503e1 	mov	x1, x21
  203a74:	aa1303e0 	mov	x0, x19
  203a78:	97ffff1d 	bl	2036ec <dec_vli>
  203a7c:	7100041f 	cmp	w0, #0x1
  203a80:	54fff7e1 	b.ne	20397c <xz_dec_run+0xf0>  // b.any
  203a84:	f9400660 	ldr	x0, [x19, #8]
  203a88:	f9001a60 	str	x0, [x19, #48]
  203a8c:	363811e8 	tbz	w8, #7, 203cc8 <xz_dec_run+0x43c>
  203a90:	9102a262 	add	x2, x19, #0xa8
  203a94:	aa1503e1 	mov	x1, x21
  203a98:	aa1303e0 	mov	x0, x19
  203a9c:	97ffff14 	bl	2036ec <dec_vli>
  203aa0:	7100041f 	cmp	w0, #0x1
  203aa4:	54fff6c1 	b.ne	20397c <xz_dec_run+0xf0>  // b.any
  203aa8:	f9400660 	ldr	x0, [x19, #8]
  203aac:	f9001e60 	str	x0, [x19, #56]
  203ab0:	f9405660 	ldr	x0, [x19, #168]
  203ab4:	cb000061 	sub	x1, x3, x0
  203ab8:	f100043f 	cmp	x1, #0x1
  203abc:	54fff609 	b.ls	20397c <xz_dec_run+0xf0>  // b.plast
  203ac0:	8b000261 	add	x1, x19, x0
  203ac4:	91000402 	add	x2, x0, #0x1
  203ac8:	f9005662 	str	x2, [x19, #168]
  203acc:	3942e021 	ldrb	w1, [x1, #184]
  203ad0:	7100843f 	cmp	w1, #0x21
  203ad4:	54fff6e1 	b.ne	2039b0 <xz_dec_run+0x124>  // b.any
  203ad8:	8b020262 	add	x2, x19, x2
  203adc:	91000801 	add	x1, x0, #0x2
  203ae0:	f9005661 	str	x1, [x19, #168]
  203ae4:	3942e042 	ldrb	w2, [x2, #184]
  203ae8:	7100045f 	cmp	w2, #0x1
  203aec:	54fff621 	b.ne	2039b0 <xz_dec_run+0x124>  // b.any
  203af0:	eb01007f 	cmp	x3, x1
  203af4:	54fff440 	b.eq	20397c <xz_dec_run+0xf0>  // b.none
  203af8:	8b010261 	add	x1, x19, x1
  203afc:	91000c00 	add	x0, x0, #0x3
  203b00:	f9005660 	str	x0, [x19, #168]
  203b04:	f9425e60 	ldr	x0, [x19, #1208]
  203b08:	3942e021 	ldrb	w1, [x1, #184]
  203b0c:	97fffedc 	bl	20367c <xz_dec_lzma2_reset>
  203b10:	2a0003f5 	mov	w21, w0
  203b14:	35fff360 	cbnz	w0, 203980 <xz_dec_run+0xf4>
  203b18:	f9405a61 	ldr	x1, [x19, #176]
  203b1c:	f9405660 	ldr	x0, [x19, #168]
  203b20:	eb01001f 	cmp	x0, x1
  203b24:	54000d63 	b.cc	203cd0 <xz_dec_run+0x444>  // b.lo, b.ul, b.last
  203b28:	52800060 	mov	w0, #0x3                   	// #3
  203b2c:	b9000260 	str	w0, [x19]
  203b30:	a904fe7f 	stp	xzr, xzr, [x19, #72]
  203b34:	f900567f 	str	xzr, [x19, #168]
  203b38:	f9400680 	ldr	x0, [x20, #8]
  203b3c:	f9000a60 	str	x0, [x19, #16]
  203b40:	f9401280 	ldr	x0, [x20, #32]
  203b44:	f9000e60 	str	x0, [x19, #24]
  203b48:	f9425e60 	ldr	x0, [x19, #1208]
  203b4c:	aa1403e1 	mov	x1, x20
  203b50:	97fffd29 	bl	202ff4 <xz_dec_lzma2_run>
  203b54:	2a0003f5 	mov	w21, w0
  203b58:	a9448e62 	ldp	x2, x3, [x19, #72]
  203b5c:	f9400680 	ldr	x0, [x20, #8]
  203b60:	f9401281 	ldr	x1, [x20, #32]
  203b64:	8b000042 	add	x2, x2, x0
  203b68:	f9400a60 	ldr	x0, [x19, #16]
  203b6c:	f9401a64 	ldr	x4, [x19, #48]
  203b70:	cb000042 	sub	x2, x2, x0
  203b74:	f9400e60 	ldr	x0, [x19, #24]
  203b78:	cb000021 	sub	x1, x1, x0
  203b7c:	8b030023 	add	x3, x1, x3
  203b80:	a9048e62 	stp	x2, x3, [x19, #72]
  203b84:	eb04005f 	cmp	x2, x4
  203b88:	54ffefa8 	b.hi	20397c <xz_dec_run+0xf0>  // b.pmore
  203b8c:	f9401e62 	ldr	x2, [x19, #56]
  203b90:	eb02007f 	cmp	x3, x2
  203b94:	54ffef48 	b.hi	20397c <xz_dec_run+0xf0>  // b.pmore
  203b98:	b9402662 	ldr	w2, [x19, #36]
  203b9c:	7100045f 	cmp	w2, #0x1
  203ba0:	540000c1 	b.ne	203bb8 <xz_dec_run+0x32c>  // b.any
  203ba4:	f9400e83 	ldr	x3, [x20, #24]
  203ba8:	b9402262 	ldr	w2, [x19, #32]
  203bac:	8b000060 	add	x0, x3, x0
  203bb0:	97fffa22 	bl	202438 <xz_crc32>
  203bb4:	b9002260 	str	w0, [x19, #32]
  203bb8:	710006bf 	cmp	w21, #0x1
  203bbc:	54ffee21 	b.ne	203980 <xz_dec_run+0xf4>  // b.any
  203bc0:	f9401a60 	ldr	x0, [x19, #48]
  203bc4:	b100041f 	cmn	x0, #0x1
  203bc8:	54000080 	b.eq	203bd8 <xz_dec_run+0x34c>  // b.none
  203bcc:	f9402661 	ldr	x1, [x19, #72]
  203bd0:	eb01001f 	cmp	x0, x1
  203bd4:	54ffed41 	b.ne	20397c <xz_dec_run+0xf0>  // b.any
  203bd8:	f9401e60 	ldr	x0, [x19, #56]
  203bdc:	f9402a62 	ldr	x2, [x19, #80]
  203be0:	b100041f 	cmn	x0, #0x1
  203be4:	54000060 	b.eq	203bf0 <xz_dec_run+0x364>  // b.none
  203be8:	eb02001f 	cmp	x0, x2
  203bec:	54ffec81 	b.ne	20397c <xz_dec_run+0xf0>  // b.any
  203bf0:	f9402661 	ldr	x1, [x19, #72]
  203bf4:	f9403260 	ldr	x0, [x19, #96]
  203bf8:	b9402663 	ldr	w3, [x19, #36]
  203bfc:	8b010000 	add	x0, x0, x1
  203c00:	b9404261 	ldr	w1, [x19, #64]
  203c04:	7100047f 	cmp	w3, #0x1
  203c08:	8b010000 	add	x0, x0, x1
  203c0c:	91001001 	add	x1, x0, #0x4
  203c10:	9a800020 	csel	x0, x1, x0, eq	// eq = none
  203c14:	f9003260 	str	x0, [x19, #96]
  203c18:	f9403660 	ldr	x0, [x19, #104]
  203c1c:	d2800301 	mov	x1, #0x18                  	// #24
  203c20:	8b020000 	add	x0, x0, x2
  203c24:	b9407262 	ldr	w2, [x19, #112]
  203c28:	f9003660 	str	x0, [x19, #104]
  203c2c:	91018260 	add	x0, x19, #0x60
  203c30:	97fffa02 	bl	202438 <xz_crc32>
  203c34:	b9007260 	str	w0, [x19, #112]
  203c38:	f9402e60 	ldr	x0, [x19, #88]
  203c3c:	91000400 	add	x0, x0, #0x1
  203c40:	f9002e60 	str	x0, [x19, #88]
  203c44:	52800080 	mov	w0, #0x4                   	// #4
  203c48:	b9000260 	str	w0, [x19]
  203c4c:	f9402660 	ldr	x0, [x19, #72]
  203c50:	f240041f 	tst	x0, #0x3
  203c54:	540004a1 	b.ne	203ce8 <xz_dec_run+0x45c>  // b.any
  203c58:	528000a0 	mov	w0, #0x5                   	// #5
  203c5c:	b9000260 	str	w0, [x19]
  203c60:	b9402660 	ldr	w0, [x19, #36]
  203c64:	7100041f 	cmp	w0, #0x1
  203c68:	54000281 	b.ne	203cb8 <xz_dec_run+0x42c>  // b.any
  203c6c:	f9400a83 	ldr	x3, [x20, #16]
  203c70:	f9400682 	ldr	x2, [x20, #8]
  203c74:	eb03005f 	cmp	x2, x3
  203c78:	540003e0 	b.eq	203cf4 <xz_dec_run+0x468>  // b.none
  203c7c:	f9400284 	ldr	x4, [x20]
  203c80:	91000445 	add	x5, x2, #0x1
  203c84:	b9400660 	ldr	w0, [x19, #4]
  203c88:	b9402261 	ldr	w1, [x19, #32]
  203c8c:	f9000685 	str	x5, [x20, #8]
  203c90:	38626882 	ldrb	w2, [x4, x2]
  203c94:	1ac02421 	lsr	w1, w1, w0
  203c98:	6b21005f 	cmp	w2, w1, uxtb
  203c9c:	54ffe701 	b.ne	20397c <xz_dec_run+0xf0>  // b.any
  203ca0:	11002000 	add	w0, w0, #0x8
  203ca4:	b9000660 	str	w0, [x19, #4]
  203ca8:	71007c1f 	cmp	w0, #0x1f
  203cac:	54fffe29 	b.ls	203c70 <xz_dec_run+0x3e4>  // b.plast
  203cb0:	b900067f 	str	wzr, [x19, #4]
  203cb4:	b900227f 	str	wzr, [x19, #32]
  203cb8:	52800020 	mov	w0, #0x1                   	// #1
  203cbc:	17ffff4d 	b	2039f0 <xz_dec_run+0x164>
  203cc0:	92800000 	mov	x0, #0xffffffffffffffff    	// #-1
  203cc4:	17ffff71 	b	203a88 <xz_dec_run+0x1fc>
  203cc8:	92800000 	mov	x0, #0xffffffffffffffff    	// #-1
  203ccc:	17ffff78 	b	203aac <xz_dec_run+0x220>
  203cd0:	91000402 	add	x2, x0, #0x1
  203cd4:	8b000260 	add	x0, x19, x0
  203cd8:	f9005662 	str	x2, [x19, #168]
  203cdc:	3942e000 	ldrb	w0, [x0, #184]
  203ce0:	34fff1e0 	cbz	w0, 203b1c <xz_dec_run+0x290>
  203ce4:	17ffff33 	b	2039b0 <xz_dec_run+0x124>
  203ce8:	a9408a81 	ldp	x1, x2, [x20, #8]
  203cec:	eb02003f 	cmp	x1, x2
  203cf0:	54000061 	b.ne	203cfc <xz_dec_run+0x470>  // b.any
  203cf4:	52800015 	mov	w21, #0x0                   	// #0
  203cf8:	17ffff22 	b	203980 <xz_dec_run+0xf4>
  203cfc:	f9400282 	ldr	x2, [x20]
  203d00:	91000423 	add	x3, x1, #0x1
  203d04:	f9000683 	str	x3, [x20, #8]
  203d08:	38616841 	ldrb	w1, [x2, x1]
  203d0c:	35ffe381 	cbnz	w1, 20397c <xz_dec_run+0xf0>
  203d10:	91000400 	add	x0, x0, #0x1
  203d14:	f9002660 	str	x0, [x19, #72]
  203d18:	17ffffcd 	b	203c4c <xz_dec_run+0x3c0>
  203d1c:	b9407a60 	ldr	w0, [x19, #120]
  203d20:	7100041f 	cmp	w0, #0x1
  203d24:	54000160 	b.eq	203d50 <xz_dec_run+0x4c4>  // b.none
  203d28:	7100081f 	cmp	w0, #0x2
  203d2c:	540002a0 	b.eq	203d80 <xz_dec_run+0x4f4>  // b.none
  203d30:	350001a0 	cbnz	w0, 203d64 <xz_dec_run+0x4d8>
  203d34:	f9400660 	ldr	x0, [x19, #8]
  203d38:	f9004660 	str	x0, [x19, #136]
  203d3c:	f9402e61 	ldr	x1, [x19, #88]
  203d40:	eb01001f 	cmp	x0, x1
  203d44:	54ffe1c1 	b.ne	20397c <xz_dec_run+0xf0>  // b.any
  203d48:	b9007a75 	str	w21, [x19, #120]
  203d4c:	14000006 	b	203d64 <xz_dec_run+0x4d8>
  203d50:	f9400661 	ldr	x1, [x19, #8]
  203d54:	b9007a79 	str	w25, [x19, #120]
  203d58:	f9404a60 	ldr	x0, [x19, #144]
  203d5c:	8b010000 	add	x0, x0, x1
  203d60:	f9004a60 	str	x0, [x19, #144]
  203d64:	f9404660 	ldr	x0, [x19, #136]
  203d68:	b5ffdc60 	cbnz	x0, 2038f4 <xz_dec_run+0x68>
  203d6c:	528000e0 	mov	w0, #0x7                   	// #7
  203d70:	b9000260 	str	w0, [x19]
  203d74:	f9400a62 	ldr	x2, [x19, #16]
  203d78:	f9404263 	ldr	x3, [x19, #128]
  203d7c:	1400001a 	b	203de4 <xz_dec_run+0x558>
  203d80:	f9400661 	ldr	x1, [x19, #8]
  203d84:	f9404e60 	ldr	x0, [x19, #152]
  203d88:	b940a262 	ldr	w2, [x19, #160]
  203d8c:	8b010000 	add	x0, x0, x1
  203d90:	f9004e60 	str	x0, [x19, #152]
  203d94:	d2800301 	mov	x1, #0x18                  	// #24
  203d98:	aa1a03e0 	mov	x0, x26
  203d9c:	97fff9a7 	bl	202438 <xz_crc32>
  203da0:	b900a260 	str	w0, [x19, #160]
  203da4:	f9404660 	ldr	x0, [x19, #136]
  203da8:	d1000400 	sub	x0, x0, #0x1
  203dac:	f9004660 	str	x0, [x19, #136]
  203db0:	17ffffe6 	b	203d48 <xz_dec_run+0x4bc>
  203db4:	f9400a81 	ldr	x1, [x20, #16]
  203db8:	eb00003f 	cmp	x1, x0
  203dbc:	540000a1 	b.ne	203dd0 <xz_dec_run+0x544>  // b.any
  203dc0:	aa1403e1 	mov	x1, x20
  203dc4:	aa1303e0 	mov	x0, x19
  203dc8:	97fffe67 	bl	203764 <index_update>
  203dcc:	17ffffca 	b	203cf4 <xz_dec_run+0x468>
  203dd0:	f9400281 	ldr	x1, [x20]
  203dd4:	91000404 	add	x4, x0, #0x1
  203dd8:	f9000684 	str	x4, [x20, #8]
  203ddc:	38606820 	ldrb	w0, [x1, x0]
  203de0:	35ffdce0 	cbnz	w0, 20397c <xz_dec_run+0xf0>
  203de4:	f9400680 	ldr	x0, [x20, #8]
  203de8:	8b030001 	add	x1, x0, x3
  203dec:	cb020021 	sub	x1, x1, x2
  203df0:	f240043f 	tst	x1, #0x3
  203df4:	54fffe01 	b.ne	203db4 <xz_dec_run+0x528>  // b.any
  203df8:	aa1403e1 	mov	x1, x20
  203dfc:	aa1303e0 	mov	x0, x19
  203e00:	97fffe59 	bl	203764 <index_update>
  203e04:	91024261 	add	x1, x19, #0x90
  203e08:	91018260 	add	x0, x19, #0x60
  203e0c:	d2800302 	mov	x2, #0x18                  	// #24
  203e10:	9400907e 	bl	228008 <memcmp>
  203e14:	35ffdb40 	cbnz	w0, 20397c <xz_dec_run+0xf0>
  203e18:	52800100 	mov	w0, #0x8                   	// #8
  203e1c:	b9000260 	str	w0, [x19]
  203e20:	f9400a83 	ldr	x3, [x20, #16]
  203e24:	f9400682 	ldr	x2, [x20, #8]
  203e28:	eb03005f 	cmp	x2, x3
  203e2c:	54fff640 	b.eq	203cf4 <xz_dec_run+0x468>  // b.none
  203e30:	f9400284 	ldr	x4, [x20]
  203e34:	91000445 	add	x5, x2, #0x1
  203e38:	b9400660 	ldr	w0, [x19, #4]
  203e3c:	b9402261 	ldr	w1, [x19, #32]
  203e40:	f9000685 	str	x5, [x20, #8]
  203e44:	38626882 	ldrb	w2, [x4, x2]
  203e48:	1ac02421 	lsr	w1, w1, w0
  203e4c:	6b21005f 	cmp	w2, w1, uxtb
  203e50:	54ffd961 	b.ne	20397c <xz_dec_run+0xf0>  // b.any
  203e54:	11002000 	add	w0, w0, #0x8
  203e58:	b9000660 	str	w0, [x19, #4]
  203e5c:	71007c1f 	cmp	w0, #0x1f
  203e60:	54fffe29 	b.ls	203e24 <xz_dec_run+0x598>  // b.plast
  203e64:	d2800180 	mov	x0, #0xc                   	// #12
  203e68:	b900227f 	str	wzr, [x19, #32]
  203e6c:	f9005a60 	str	x0, [x19, #176]
  203e70:	d2800120 	mov	x0, #0x9                   	// #9
  203e74:	f9000260 	str	x0, [x19]
  203e78:	aa1403e1 	mov	x1, x20
  203e7c:	aa1303e0 	mov	x0, x19
  203e80:	97fffe4a 	bl	2037a8 <fill_temp>
  203e84:	3607f380 	tbz	w0, #0, 203cf4 <xz_dec_run+0x468>
  203e88:	f0000121 	adrp	x1, 22a000 <ACTimingTbl_DDR4+0x53a>
  203e8c:	91030a60 	add	x0, x19, #0xc2
  203e90:	91307021 	add	x1, x1, #0xc1c
  203e94:	d2800042 	mov	x2, #0x2                   	// #2
  203e98:	9400905c 	bl	228008 <memcmp>
  203e9c:	35ffd700 	cbnz	w0, 20397c <xz_dec_run+0xf0>
  203ea0:	9102f275 	add	x21, x19, #0xbc
  203ea4:	52800002 	mov	w2, #0x0                   	// #0
  203ea8:	d28000c1 	mov	x1, #0x6                   	// #6
  203eac:	aa1503e0 	mov	x0, x21
  203eb0:	97fff962 	bl	202438 <xz_crc32>
  203eb4:	2a0003e3 	mov	w3, w0
  203eb8:	9102e260 	add	x0, x19, #0xb8
  203ebc:	97fffe04 	bl	2036cc <get_unaligned_le32>
  203ec0:	6b00007f 	cmp	w3, w0
  203ec4:	54ffd5c1 	b.ne	20397c <xz_dec_run+0xf0>  // b.any
  203ec8:	aa1503e0 	mov	x0, x21
  203ecc:	97fffe00 	bl	2036cc <get_unaligned_le32>
  203ed0:	f9404261 	ldr	x1, [x19, #128]
  203ed4:	2a0003e0 	mov	w0, w0
  203ed8:	eb41081f 	cmp	x0, x1, lsr #2
  203edc:	54ffd501 	b.ne	20397c <xz_dec_run+0xf0>  // b.any
  203ee0:	39430260 	ldrb	w0, [x19, #192]
  203ee4:	35ffd4c0 	cbnz	w0, 20397c <xz_dec_run+0xf0>
  203ee8:	39430661 	ldrb	w1, [x19, #193]
  203eec:	b9402660 	ldr	w0, [x19, #36]
  203ef0:	6b00003f 	cmp	w1, w0
  203ef4:	54ffd441 	b.ne	20397c <xz_dec_run+0xf0>  // b.any
  203ef8:	52800035 	mov	w21, #0x1                   	// #1
  203efc:	17fffea1 	b	203980 <xz_dec_run+0xf4>
  203f00:	528000b5 	mov	w21, #0x5                   	// #5
  203f04:	17fffe9f 	b	203980 <xz_dec_run+0xf4>
  203f08:	710006bf 	cmp	w21, #0x1
  203f0c:	54ffd481 	b.ne	20399c <xz_dec_run+0x110>  // b.any
  203f10:	a94153f3 	ldp	x19, x20, [sp, #16]
  203f14:	2a1503e0 	mov	w0, w21
  203f18:	a9425bf5 	ldp	x21, x22, [sp, #32]
  203f1c:	a94363f7 	ldp	x23, x24, [sp, #48]
  203f20:	a9446bf9 	ldp	x25, x26, [sp, #64]
  203f24:	a8c57bfd 	ldp	x29, x30, [sp], #80
  203f28:	d65f03c0 	ret
  203f2c:	35000195 	cbnz	w21, 203f5c <xz_dec_run+0x6d0>
  203f30:	f9400680 	ldr	x0, [x20, #8]
  203f34:	eb16001f 	cmp	x0, x22
  203f38:	54000121 	b.ne	203f5c <xz_dec_run+0x6d0>  // b.any
  203f3c:	f9401280 	ldr	x0, [x20, #32]
  203f40:	eb17001f 	cmp	x0, x23
  203f44:	540000c1 	b.ne	203f5c <xz_dec_run+0x6d0>  // b.any
  203f48:	3940b275 	ldrb	w21, [x19, #44]
  203f4c:	52800020 	mov	w0, #0x1                   	// #1
  203f50:	3900b260 	strb	w0, [x19, #44]
  203f54:	531d72b5 	lsl	w21, w21, #3
  203f58:	17ffffee 	b	203f10 <xz_dec_run+0x684>
  203f5c:	3900b27f 	strb	wzr, [x19, #44]
  203f60:	17ffffec 	b	203f10 <xz_dec_run+0x684>

0000000000203f64 <xz_dec_init>:
  203f64:	a9bd7bfd 	stp	x29, x30, [sp, #-48]!
  203f68:	910003fd 	mov	x29, sp
  203f6c:	a90153f3 	stp	x19, x20, [sp, #16]
  203f70:	2a0003f4 	mov	w20, w0
  203f74:	d2809800 	mov	x0, #0x4c0                 	// #1216
  203f78:	f90013f5 	str	x21, [sp, #32]
  203f7c:	2a0103f5 	mov	w21, w1
  203f80:	97fff8bc 	bl	202270 <xz_malloc>
  203f84:	b50000e0 	cbnz	x0, 203fa0 <xz_dec_init+0x3c>
  203f88:	d2800013 	mov	x19, #0x0                   	// #0
  203f8c:	f94013f5 	ldr	x21, [sp, #32]
  203f90:	aa1303e0 	mov	x0, x19
  203f94:	a94153f3 	ldp	x19, x20, [sp, #16]
  203f98:	a8c37bfd 	ldp	x29, x30, [sp], #48
  203f9c:	d65f03c0 	ret
  203fa0:	aa0003f3 	mov	x19, x0
  203fa4:	2a1503e1 	mov	w1, w21
  203fa8:	2a1403e0 	mov	w0, w20
  203fac:	b9002a74 	str	w20, [x19, #40]
  203fb0:	97fffda6 	bl	203648 <xz_dec_lzma2_create>
  203fb4:	f9025e60 	str	x0, [x19, #1208]
  203fb8:	b4fffe80 	cbz	x0, 203f88 <xz_dec_init+0x24>
  203fbc:	aa1303e0 	mov	x0, x19
  203fc0:	97fffe1f 	bl	20383c <xz_dec_reset>
  203fc4:	17fffff2 	b	203f8c <xz_dec_init+0x28>

0000000000203fc8 <xz_dec_end>:
  203fc8:	b4000060 	cbz	x0, 203fd4 <xz_dec_end+0xc>
  203fcc:	f9425c00 	ldr	x0, [x0, #1208]
  203fd0:	17fffdbe 	b	2036c8 <xz_dec_lzma2_end>
  203fd4:	d65f03c0 	ret

0000000000203fd8 <mtk_gpt_stop>:
  203fd8:	f9400401 	ldr	x1, [x0, #8]
  203fdc:	b9400020 	ldr	w0, [x1]
  203fe0:	121f7800 	and	w0, w0, #0xfffffffe
  203fe4:	b9000020 	str	w0, [x1]
  203fe8:	d65f03c0 	ret

0000000000203fec <mtk_gpt_start>:
  203fec:	f9400402 	ldr	x2, [x0, #8]
  203ff0:	f0000163 	adrp	x3, 232000 <uuid_null.0+0x73fa>
  203ff4:	9139e863 	add	x3, x3, #0xe7a
  203ff8:	b900005f 	str	wzr, [x2]
  203ffc:	b9400001 	ldr	w1, [x0]
  204000:	8b010861 	add	x1, x3, x1, lsl #2
  204004:	39400424 	ldrb	w4, [x1, #1]
  204008:	39400c26 	ldrb	w6, [x1, #3]
  20400c:	d2800021 	mov	x1, #0x1                   	// #1
  204010:	b8626885 	ldr	w5, [x4, x2]
  204014:	9ac62021 	lsl	x1, x1, x6
  204018:	32000c21 	orr	w1, w1, #0xf
  20401c:	0a2100a1 	bic	w1, w5, w1
  204020:	b8226881 	str	w1, [x4, x2]
  204024:	b9400000 	ldr	w0, [x0]
  204028:	b9400041 	ldr	w1, [x2]
  20402c:	d37ef400 	lsl	x0, x0, #2
  204030:	38606863 	ldrb	w3, [x3, x0]
  204034:	52800060 	mov	w0, #0x3                   	// #3
  204038:	1ac32000 	lsl	w0, w0, w3
  20403c:	32000000 	orr	w0, w0, #0x1
  204040:	2a010000 	orr	w0, w0, w1
  204044:	b9000040 	str	w0, [x2]
  204048:	d65f03c0 	ret

000000000020404c <mtk_gpt_reset>:
  20404c:	f9400402 	ldr	x2, [x0, #8]
  204050:	b9400041 	ldr	w1, [x2]
  204054:	321f0021 	orr	w1, w1, #0x2
  204058:	b9000041 	str	w1, [x2]
  20405c:	2903fc1f 	stp	wzr, wzr, [x0, #28]
  204060:	d65f03c0 	ret

0000000000204064 <mtk_gpt_init>:
  204064:	a9bf7bfd 	stp	x29, x30, [sp, #-16]!
  204068:	aa0003e2 	mov	x2, x0
  20406c:	52884800 	mov	w0, #0x4240                	// #16960
  204070:	72a001e0 	movk	w0, #0xf, lsl #16
  204074:	910003fd 	mov	x29, sp
  204078:	52800141 	mov	w1, #0xa                   	// #10
  20407c:	b9001440 	str	w0, [x2, #20]
  204080:	b9401040 	ldr	w0, [x2, #16]
  204084:	b9401443 	ldr	w3, [x2, #20]
  204088:	1ac10864 	udiv	w4, w3, w1
  20408c:	1b018c83 	msub	w3, w4, w1, w3
  204090:	35000083 	cbnz	w3, 2040a0 <mtk_gpt_init+0x3c>
  204094:	1ac10803 	udiv	w3, w0, w1
  204098:	1b018065 	msub	w5, w3, w1, w0
  20409c:	34000105 	cbz	w5, 2040bc <mtk_gpt_init+0x58>
  2040a0:	b9001840 	str	w0, [x2, #24]
  2040a4:	aa0203e0 	mov	x0, x2
  2040a8:	97ffffcc 	bl	203fd8 <mtk_gpt_stop>
  2040ac:	aa0203e0 	mov	x0, x2
  2040b0:	97ffffe7 	bl	20404c <mtk_gpt_reset>
  2040b4:	a8c17bfd 	ldp	x29, x30, [sp], #16
  2040b8:	17ffffcd 	b	203fec <mtk_gpt_start>
  2040bc:	2a0303e0 	mov	w0, w3
  2040c0:	b9001444 	str	w4, [x2, #20]
  2040c4:	17fffff0 	b	204084 <mtk_gpt_init+0x20>

00000000002040c8 <mtk_gpt_get_counter>:
  2040c8:	39401002 	ldrb	w2, [x0, #4]
  2040cc:	f9400401 	ldr	x1, [x0, #8]
  2040d0:	91002024 	add	x4, x1, #0x8
  2040d4:	36000182 	tbz	w2, #0, 204104 <mtk_gpt_get_counter+0x3c>
  2040d8:	91004021 	add	x1, x1, #0x10
  2040dc:	b9400023 	ldr	w3, [x1]
  2040e0:	b9400082 	ldr	w2, [x4]
  2040e4:	b9001c02 	str	w2, [x0, #28]
  2040e8:	b9400022 	ldr	w2, [x1]
  2040ec:	b9002002 	str	w2, [x0, #32]
  2040f0:	6b03005f 	cmp	w2, w3
  2040f4:	54ffff41 	b.ne	2040dc <mtk_gpt_get_counter+0x14>  // b.any
  2040f8:	29438001 	ldp	w1, w0, [x0, #28]
  2040fc:	aa008020 	orr	x0, x1, x0, lsl #32
  204100:	d65f03c0 	ret
  204104:	b9400822 	ldr	w2, [x1, #8]
  204108:	b9401c01 	ldr	w1, [x0, #28]
  20410c:	6b02003f 	cmp	w1, w2
  204110:	54000089 	b.ls	204120 <mtk_gpt_get_counter+0x58>  // b.plast
  204114:	b9402001 	ldr	w1, [x0, #32]
  204118:	11000421 	add	w1, w1, #0x1
  20411c:	b9002001 	str	w1, [x0, #32]
  204120:	b9001c02 	str	w2, [x0, #28]
  204124:	17fffff5 	b	2040f8 <mtk_gpt_get_counter+0x30>

0000000000204128 <read_u32>:
  204128:	a9bd7bfd 	stp	x29, x30, [sp, #-48]!
  20412c:	910003fd 	mov	x29, sp
  204130:	a90153f3 	stp	x19, x20, [sp, #16]
  204134:	f90013f5 	str	x21, [sp, #32]
  204138:	940000d1 	bl	20447c <uart_dl_api_getc>
  20413c:	2a0003f4 	mov	w20, w0
  204140:	940000cf 	bl	20447c <uart_dl_api_getc>
  204144:	2a0003f3 	mov	w19, w0
  204148:	940000cd 	bl	20447c <uart_dl_api_getc>
  20414c:	2a0003f5 	mov	w21, w0
  204150:	940000cb 	bl	20447c <uart_dl_api_getc>
  204154:	53101e73 	ubfiz	w19, w19, #16, #8
  204158:	12001c00 	and	w0, w0, #0xff
  20415c:	53181eb5 	ubfiz	w21, w21, #8, #8
  204160:	2a146000 	orr	w0, w0, w20, lsl #24
  204164:	2a150273 	orr	w19, w19, w21
  204168:	f94013f5 	ldr	x21, [sp, #32]
  20416c:	2a000260 	orr	w0, w19, w0
  204170:	a94153f3 	ldp	x19, x20, [sp, #16]
  204174:	a8c37bfd 	ldp	x29, x30, [sp], #48
  204178:	d65f03c0 	ret

000000000020417c <read_u16>:
  20417c:	a9be7bfd 	stp	x29, x30, [sp, #-32]!
  204180:	910003fd 	mov	x29, sp
  204184:	f9000bf3 	str	x19, [sp, #16]
  204188:	940000bd 	bl	20447c <uart_dl_api_getc>
  20418c:	2a0003f3 	mov	w19, w0
  204190:	940000bb 	bl	20447c <uart_dl_api_getc>
  204194:	12001c00 	and	w0, w0, #0xff
  204198:	53181e73 	ubfiz	w19, w19, #8, #8
  20419c:	2a000260 	orr	w0, w19, w0
  2041a0:	f9400bf3 	ldr	x19, [sp, #16]
  2041a4:	a8c27bfd 	ldp	x29, x30, [sp], #32
  2041a8:	d65f03c0 	ret

00000000002041ac <write_u32>:
  2041ac:	a9be7bfd 	stp	x29, x30, [sp, #-32]!
  2041b0:	910003fd 	mov	x29, sp
  2041b4:	f9000bf3 	str	x19, [sp, #16]
  2041b8:	2a0003f3 	mov	w19, w0
  2041bc:	53187c00 	lsr	w0, w0, #24
  2041c0:	940000b5 	bl	204494 <uart_dl_api_putc>
  2041c4:	d3505e60 	ubfx	x0, x19, #16, #8
  2041c8:	940000b3 	bl	204494 <uart_dl_api_putc>
  2041cc:	d3483e60 	ubfx	x0, x19, #8, #8
  2041d0:	940000b1 	bl	204494 <uart_dl_api_putc>
  2041d4:	12001e60 	and	w0, w19, #0xff
  2041d8:	f9400bf3 	ldr	x19, [sp, #16]
  2041dc:	a8c27bfd 	ldp	x29, x30, [sp], #32
  2041e0:	140000ad 	b	204494 <uart_dl_api_putc>

00000000002041e4 <write_u16>:
  2041e4:	a9be7bfd 	stp	x29, x30, [sp, #-32]!
  2041e8:	910003fd 	mov	x29, sp
  2041ec:	f9000bf3 	str	x19, [sp, #16]
  2041f0:	12003c13 	and	w19, w0, #0xffff
  2041f4:	53083c00 	ubfx	w0, w0, #8, #8
  2041f8:	940000a7 	bl	204494 <uart_dl_api_putc>
  2041fc:	12001e60 	and	w0, w19, #0xff
  204200:	f9400bf3 	ldr	x19, [sp, #16]
  204204:	a8c27bfd 	ldp	x29, x30, [sp], #32
  204208:	140000a3 	b	204494 <uart_dl_api_putc>

000000000020420c <start_uart_dl>:
  20420c:	a9b87bfd 	stp	x29, x30, [sp, #-128]!
  204210:	910003fd 	mov	x29, sp
  204214:	a90573fb 	stp	x27, x28, [sp, #80]
  204218:	b000019b 	adrp	x27, 235000 <__STACKS_START__+0xa80>
  20421c:	f9036b60 	str	x0, [x27, #1744]
  204220:	a90153f3 	stp	x19, x20, [sp, #16]
  204224:	a9025bf5 	stp	x21, x22, [sp, #32]
  204228:	a90363f7 	stp	x23, x24, [sp, #48]
  20422c:	aa0003f8 	mov	x24, x0
  204230:	d0000120 	adrp	x0, 22a000 <ACTimingTbl_DDR4+0x53a>
  204234:	91307c00 	add	x0, x0, #0xc1f
  204238:	a9046bf9 	stp	x25, x26, [sp, #64]
  20423c:	940090ea 	bl	2285e4 <printf>
  204240:	d0000160 	adrp	x0, 232000 <uuid_null.0+0x73fa>
  204244:	913a2800 	add	x0, x0, #0xe8a
  204248:	f90037e0 	str	x0, [sp, #104]
  20424c:	d0000160 	adrp	x0, 232000 <uuid_null.0+0x73fa>
  204250:	913a1800 	add	x0, x0, #0xe86
  204254:	f9003be0 	str	x0, [sp, #112]
  204258:	52800013 	mov	w19, #0x0                   	// #0
  20425c:	94000088 	bl	20447c <uart_dl_api_getc>
  204260:	3100041f 	cmn	w0, #0x1
  204264:	54ffffc0 	b.eq	20425c <start_uart_dl+0x50>  // b.none
  204268:	f94037e2 	ldr	x2, [sp, #104]
  20426c:	2a1303e1 	mov	w1, w19
  204270:	38734842 	ldrb	w2, [x2, w19, uxtw]
  204274:	6b02001f 	cmp	w0, w2
  204278:	54ffff01 	b.ne	204258 <start_uart_dl+0x4c>  // b.any
  20427c:	f9403be0 	ldr	x0, [sp, #112]
  204280:	11000673 	add	w19, w19, #0x1
  204284:	38616800 	ldrb	w0, [x0, x1]
  204288:	94000083 	bl	204494 <uart_dl_api_putc>
  20428c:	71000e7f 	cmp	w19, #0x3
  204290:	54fffe69 	b.ls	20425c <start_uart_dl+0x50>  // b.plast
  204294:	9400007a 	bl	20447c <uart_dl_api_getc>
  204298:	2a0003e1 	mov	w1, w0
  20429c:	12001c00 	and	w0, w0, #0xff
  2042a0:	71000c1f 	cmp	w0, #0x3
  2042a4:	54000480 	b.eq	204334 <start_uart_dl+0x128>  // b.none
  2042a8:	721e143f 	tst	w1, #0xfc
  2042ac:	54000101 	b.ne	2042cc <start_uart_dl+0xc0>  // b.any
  2042b0:	7100041f 	cmp	w0, #0x1
  2042b4:	540002a0 	b.eq	204308 <start_uart_dl+0xfc>  // b.none
  2042b8:	7100081f 	cmp	w0, #0x2
  2042bc:	540002e0 	b.eq	204318 <start_uart_dl+0x10c>  // b.none
  2042c0:	52801fe0 	mov	w0, #0xff                  	// #255
  2042c4:	94000074 	bl	204494 <uart_dl_api_putc>
  2042c8:	14000000 	b	2042c8 <start_uart_dl+0xbc>
  2042cc:	7100101f 	cmp	w0, #0x4
  2042d0:	54ffff81 	b.ne	2042c0 <start_uart_dl+0xb4>  // b.any
  2042d4:	94000070 	bl	204494 <uart_dl_api_putc>
  2042d8:	b0000180 	adrp	x0, 235000 <__STACKS_START__+0xa80>
  2042dc:	aa1803e2 	mov	x2, x24
  2042e0:	a94153f3 	ldp	x19, x20, [sp, #16]
  2042e4:	a9425bf5 	ldp	x21, x22, [sp, #32]
  2042e8:	a94363f7 	ldp	x23, x24, [sp, #48]
  2042ec:	a9446bf9 	ldp	x25, x26, [sp, #64]
  2042f0:	a94573fb 	ldp	x27, x28, [sp, #80]
  2042f4:	f9436401 	ldr	x1, [x0, #1736]
  2042f8:	d0000120 	adrp	x0, 22a000 <ACTimingTbl_DDR4+0x53a>
  2042fc:	a8c87bfd 	ldp	x29, x30, [sp], #128
  204300:	91311400 	add	x0, x0, #0xc45
  204304:	140090b8 	b	2285e4 <printf>
  204308:	94000063 	bl	204494 <uart_dl_api_putc>
  20430c:	52800200 	mov	w0, #0x10                  	// #16
  204310:	94000061 	bl	204494 <uart_dl_api_putc>
  204314:	17ffffe0 	b	204294 <start_uart_dl+0x88>
  204318:	9400005f 	bl	204494 <uart_dl_api_putc>
  20431c:	97ffff83 	bl	204128 <read_u32>
  204320:	2a0003f3 	mov	w19, w0
  204324:	97ffffa2 	bl	2041ac <write_u32>
  204328:	2a1303e0 	mov	w0, w19
  20432c:	94000060 	bl	2044ac <uart_dl_api_set_baud>
  204330:	17ffffca 	b	204258 <start_uart_dl+0x4c>
  204334:	5280001a 	mov	w26, #0x0                   	// #0
  204338:	52800016 	mov	w22, #0x0                   	// #0
  20433c:	94000056 	bl	204494 <uart_dl_api_putc>
  204340:	f9436b75 	ldr	x21, [x27, #1744]
  204344:	97ffff79 	bl	204128 <read_u32>
  204348:	2a0003f4 	mov	w20, w0
  20434c:	97ffff98 	bl	2041ac <write_u32>
  204350:	6b1a029f 	cmp	w20, w26
  204354:	54000088 	b.hi	204364 <start_uart_dl+0x158>  // b.pmore
  204358:	b0000180 	adrp	x0, 235000 <__STACKS_START__+0xa80>
  20435c:	f9036414 	str	x20, [x0, #1736]
  204360:	17ffffcd 	b	204294 <start_uart_dl+0x88>
  204364:	97ffff71 	bl	204128 <read_u32>
  204368:	2a0003f7 	mov	w23, w0
  20436c:	97ffff90 	bl	2041ac <write_u32>
  204370:	97ffff83 	bl	20417c <read_u16>
  204374:	12003c13 	and	w19, w0, #0xffff
  204378:	2a0003fc 	mov	w28, w0
  20437c:	2a1303e0 	mov	w0, w19
  204380:	97ffff99 	bl	2041e4 <write_u16>
  204384:	97ffff7e 	bl	20417c <read_u16>
  204388:	12003c19 	and	w25, w0, #0xffff
  20438c:	2a1903e0 	mov	w0, w25
  204390:	97ffff95 	bl	2041e4 <write_u16>
  204394:	d2800002 	mov	x2, #0x0                   	// #0
  204398:	6b22227f 	cmp	w19, w2, uxth
  20439c:	54000148 	b.hi	2043c4 <start_uart_dl+0x1b8>  // b.pmore
  2043a0:	6b1702df 	cmp	w22, w23
  2043a4:	540001c0 	b.eq	2043dc <start_uart_dl+0x1d0>  // b.none
  2043a8:	2a1603f7 	mov	w23, w22
  2043ac:	2a1603e0 	mov	w0, w22
  2043b0:	97ffff7f 	bl	2041ac <write_u32>
  2043b4:	52800000 	mov	w0, #0x0                   	// #0
  2043b8:	97ffff8b 	bl	2041e4 <write_u16>
  2043bc:	2a1703f6 	mov	w22, w23
  2043c0:	17ffffe4 	b	204350 <start_uart_dl+0x144>
  2043c4:	f9003fe2 	str	x2, [sp, #120]
  2043c8:	9400002d 	bl	20447c <uart_dl_api_getc>
  2043cc:	f9403fe2 	ldr	x2, [sp, #120]
  2043d0:	38226aa0 	strb	w0, [x21, x2]
  2043d4:	91000442 	add	x2, x2, #0x1
  2043d8:	17fffff0 	b	204398 <start_uart_dl+0x18c>
  2043dc:	12003f82 	and	w2, w28, #0xffff
  2043e0:	aa1503e0 	mov	x0, x21
  2043e4:	0b3c22a1 	add	w1, w21, w28, uxth
  2043e8:	52800013 	mov	w19, #0x0                   	// #0
  2043ec:	4b000023 	sub	w3, w1, w0
  2043f0:	7100047f 	cmp	w3, #0x1
  2043f4:	54000328 	b.hi	204458 <start_uart_dl+0x24c>  // b.pmore
  2043f8:	53017c40 	lsr	w0, w2, #1
  2043fc:	12800021 	mov	w1, #0xfffffffe            	// #-2
  204400:	1b010801 	madd	w1, w0, w1, w2
  204404:	340000a1 	cbz	w1, 204418 <start_uart_dl+0x20c>
  204408:	d37f3800 	ubfiz	x0, x0, #1, #15
  20440c:	38606aa0 	ldrb	w0, [x21, x0]
  204410:	53181c00 	ubfiz	w0, w0, #8, #8
  204414:	0b000273 	add	w19, w19, w0
  204418:	53107e60 	lsr	w0, w19, #16
  20441c:	350002c0 	cbnz	w0, 204474 <start_uart_dl+0x268>
  204420:	12003e73 	and	w19, w19, #0xffff
  204424:	2a1603e0 	mov	w0, w22
  204428:	b9007be2 	str	w2, [sp, #120]
  20442c:	97ffff60 	bl	2041ac <write_u32>
  204430:	2a1303e0 	mov	w0, w19
  204434:	97ffff6c 	bl	2041e4 <write_u16>
  204438:	6b13033f 	cmp	w25, w19
  20443c:	54fffc01 	b.ne	2043bc <start_uart_dl+0x1b0>  // b.any
  204440:	b9407be2 	ldr	w2, [sp, #120]
  204444:	34fffbc2 	cbz	w2, 2043bc <start_uart_dl+0x1b0>
  204448:	110006d7 	add	w23, w22, #0x1
  20444c:	0b02035a 	add	w26, w26, w2
  204450:	8b2222b5 	add	x21, x21, w2, uxth
  204454:	17ffffda 	b	2043bc <start_uart_dl+0x1b0>
  204458:	39400004 	ldrb	w4, [x0]
  20445c:	91000800 	add	x0, x0, #0x2
  204460:	385ff003 	ldurb	w3, [x0, #-1]
  204464:	aa032083 	orr	x3, x4, x3, lsl #8
  204468:	5ac00463 	rev16	w3, w3
  20446c:	0b232273 	add	w19, w19, w3, uxth
  204470:	17ffffdf 	b	2043ec <start_uart_dl+0x1e0>
  204474:	0b332013 	add	w19, w0, w19, uxth
  204478:	17ffffe8 	b	204418 <start_uart_dl+0x20c>

000000000020447c <uart_dl_api_getc>:
  20447c:	d2840280 	mov	x0, #0x2014                	// #8212
  204480:	f2a22000 	movk	x0, #0x1100, lsl #16
  204484:	b9400001 	ldr	w1, [x0]
  204488:	3607ffe1 	tbz	w1, #0, 204484 <uart_dl_api_getc+0x8>
  20448c:	b85ec000 	ldur	w0, [x0, #-20]
  204490:	d65f03c0 	ret

0000000000204494 <uart_dl_api_putc>:
  204494:	d2840281 	mov	x1, #0x2014                	// #8212
  204498:	f2a22001 	movk	x1, #0x1100, lsl #16
  20449c:	b9400022 	ldr	w2, [x1]
  2044a0:	362fffe2 	tbz	w2, #5, 20449c <uart_dl_api_putc+0x8>
  2044a4:	b81ec020 	stur	w0, [x1, #-20]
  2044a8:	d65f03c0 	ret

00000000002044ac <uart_dl_api_set_baud>:
  2044ac:	2a0003e2 	mov	w2, w0
  2044b0:	7100001f 	cmp	w0, #0x0
  2044b4:	52984000 	mov	w0, #0xc200                	// #49664
  2044b8:	d2840281 	mov	x1, #0x2014                	// #8212
  2044bc:	72a00020 	movk	w0, #0x1, lsl #16
  2044c0:	1a801042 	csel	w2, w2, w0, ne	// ne = any
  2044c4:	f2a22001 	movk	x1, #0x1100, lsl #16
  2044c8:	b9400020 	ldr	w0, [x1]
  2044cc:	121b0400 	and	w0, w0, #0x60
  2044d0:	7101801f 	cmp	w0, #0x60
  2044d4:	54ffffa1 	b.ne	2044c8 <uart_dl_api_set_baud+0x1c>  // b.any
  2044d8:	528b4001 	mov	w1, #0x5a00                	// #23040
  2044dc:	d2840000 	mov	x0, #0x2000                	// #8192
  2044e0:	52800023 	mov	w3, #0x1                   	// #1
  2044e4:	72a04c41 	movk	w1, #0x262, lsl #16
  2044e8:	f2a22000 	movk	x0, #0x1100, lsl #16
  2044ec:	17fff36b 	b	201298 <console_hsuart_init>

00000000002044f0 <mtk_boot_dev_setup>:
  2044f0:	a9be7bfd 	stp	x29, x30, [sp, #-32]!
  2044f4:	910003fd 	mov	x29, sp
  2044f8:	a90153f3 	stp	x19, x20, [sp, #16]
  2044fc:	aa0003f3 	mov	x19, x0
  204500:	d2980000 	mov	x0, #0xc000                	// #49152
  204504:	f2a20020 	movk	x0, #0x1001, lsl #16
  204508:	aa0103f4 	mov	x20, x1
  20450c:	52a44001 	mov	w1, #0x22000000            	// #570425344
  204510:	b9000001 	str	w1, [x0]
  204514:	d2a80040 	mov	x0, #0x40020000            	// #1073872896
  204518:	97ffff3d 	bl	20420c <start_uart_dl>
  20451c:	aa1303e0 	mov	x0, x19
  204520:	97fff6b9 	bl	202004 <register_io_dev_memmap>
  204524:	f9400260 	ldr	x0, [x19]
  204528:	aa1403e2 	mov	x2, x20
  20452c:	a94153f3 	ldp	x19, x20, [sp, #16]
  204530:	d2800001 	mov	x1, #0x0                   	// #0
  204534:	a8c27bfd 	ldp	x29, x30, [sp], #32
  204538:	17fff6db 	b	2020a4 <io_dev_open>

000000000020453c <bl2_complete>:
  20453c:	d503201f 	nop
  204540:	d503201f 	nop
  204544:	d65f03c0 	ret

0000000000204548 <check_fip>:
  204548:	a9bc7bfd 	stp	x29, x30, [sp, #-64]!
  20454c:	d2800001 	mov	x1, #0x0                   	// #0
  204550:	910003fd 	mov	x29, sp
  204554:	f90013f5 	str	x21, [sp, #32]
  204558:	b0000195 	adrp	x21, 235000 <__STACKS_START__+0xa80>
  20455c:	a90153f3 	stp	x19, x20, [sp, #16]
  204560:	aa0003f4 	mov	x20, x0
  204564:	f94386a0 	ldr	x0, [x21, #1800]
  204568:	97fff6d5 	bl	2020bc <io_dev_init>
  20456c:	2a0003f3 	mov	w19, w0
  204570:	35000120 	cbnz	w0, 204594 <check_fip+0x4c>
  204574:	f94386a0 	ldr	x0, [x21, #1800]
  204578:	9100e3e2 	add	x2, sp, #0x38
  20457c:	aa1403e1 	mov	x1, x20
  204580:	97fff6dd 	bl	2020f4 <io_open>
  204584:	2a0003f3 	mov	w19, w0
  204588:	35000060 	cbnz	w0, 204594 <check_fip+0x4c>
  20458c:	f9401fe0 	ldr	x0, [sp, #56]
  204590:	97fff726 	bl	202228 <io_close>
  204594:	f94013f5 	ldr	x21, [sp, #32]
  204598:	2a1303e0 	mov	w0, w19
  20459c:	a94153f3 	ldp	x19, x20, [sp, #16]
  2045a0:	a8c47bfd 	ldp	x29, x30, [sp], #64
  2045a4:	d65f03c0 	ret

00000000002045a8 <check_boot_dev>:
  2045a8:	a9bc7bfd 	stp	x29, x30, [sp, #-64]!
  2045ac:	d2800001 	mov	x1, #0x0                   	// #0
  2045b0:	910003fd 	mov	x29, sp
  2045b4:	f90013f5 	str	x21, [sp, #32]
  2045b8:	b0000195 	adrp	x21, 235000 <__STACKS_START__+0xa80>
  2045bc:	a90153f3 	stp	x19, x20, [sp, #16]
  2045c0:	aa0003f4 	mov	x20, x0
  2045c4:	f94392a0 	ldr	x0, [x21, #1824]
  2045c8:	97fff6bd 	bl	2020bc <io_dev_init>
  2045cc:	2a0003f3 	mov	w19, w0
  2045d0:	35000120 	cbnz	w0, 2045f4 <check_boot_dev+0x4c>
  2045d4:	f94392a0 	ldr	x0, [x21, #1824]
  2045d8:	9100e3e2 	add	x2, sp, #0x38
  2045dc:	aa1403e1 	mov	x1, x20
  2045e0:	97fff6c5 	bl	2020f4 <io_open>
  2045e4:	2a0003f3 	mov	w19, w0
  2045e8:	35000060 	cbnz	w0, 2045f4 <check_boot_dev+0x4c>
  2045ec:	f9401fe0 	ldr	x0, [sp, #56]
  2045f0:	97fff70e 	bl	202228 <io_close>
  2045f4:	f94013f5 	ldr	x21, [sp, #32]
  2045f8:	2a1303e0 	mov	w0, w19
  2045fc:	a94153f3 	ldp	x19, x20, [sp, #16]
  204600:	a8c47bfd 	ldp	x29, x30, [sp], #64
  204604:	d65f03c0 	ret

0000000000204608 <bl2_platform_setup>:
  204608:	a9be7bfd 	stp	x29, x30, [sp, #-32]!
  20460c:	910003fd 	mov	x29, sp
  204610:	f9000bf3 	str	x19, [sp, #16]
  204614:	94000205 	bl	204e28 <mtk_timer_init>
  204618:	d28ba800 	mov	x0, #0x5d40                	// #23872
  20461c:	f2a018c0 	movk	x0, #0xc6, lsl #16
  204620:	d51be000 	msr	cntfrq_el0, x0
  204624:	d2980000 	mov	x0, #0xc000                	// #49152
  204628:	52a44001 	mov	w1, #0x22000000            	// #570425344
  20462c:	f2a20020 	movk	x0, #0x1001, lsl #16
  204630:	b9000001 	str	w1, [x0]
  204634:	9400013d 	bl	204b28 <mtk_pin_init>
  204638:	52800000 	mov	w0, #0x0                   	// #0
  20463c:	9400013e 	bl	204b34 <mtk_pll_init>
  204640:	d2811880 	mov	x0, #0x8c4                 	// #2244
  204644:	f2a23e40 	movk	x0, #0x11f2, lsl #16
  204648:	b9400000 	ldr	w0, [x0]
  20464c:	350000c0 	cbnz	w0, 204664 <bl2_platform_setup+0x5c>
  204650:	d2803100 	mov	x0, #0x188                 	// #392
  204654:	528200e1 	mov	w1, #0x1007                	// #4103
  204658:	f2a200c0 	movk	x0, #0x1006, lsl #16
  20465c:	72a48201 	movk	w1, #0x2410, lsl #16
  204660:	b9000001 	str	w1, [x0]
  204664:	d2811900 	mov	x0, #0x8c8                 	// #2248
  204668:	f2a23e40 	movk	x0, #0x11f2, lsl #16
  20466c:	b9400000 	ldr	w0, [x0]
  204670:	350000c0 	cbnz	w0, 204688 <bl2_platform_setup+0x80>
  204674:	d2803100 	mov	x0, #0x188                 	// #392
  204678:	528200e1 	mov	w1, #0x1007                	// #4103
  20467c:	f2a200e0 	movk	x0, #0x1007, lsl #16
  204680:	72a48201 	movk	w1, #0x2410, lsl #16
  204684:	b9000001 	str	w1, [x0]
  204688:	d2860380 	mov	x0, #0x301c                	// #12316
  20468c:	b0000193 	adrp	x19, 235000 <__STACKS_START__+0xa80>
  204690:	f2a20000 	movk	x0, #0x1000, lsl #16
  204694:	b900001f 	str	wzr, [x0]
  204698:	9400005a 	bl	204800 <mtk_mem_init>
  20469c:	97ffffa8 	bl	20453c <bl2_complete>
  2046a0:	b0000181 	adrp	x1, 235000 <__STACKS_START__+0xa80>
  2046a4:	911c8021 	add	x1, x1, #0x720
  2046a8:	b0000180 	adrp	x0, 235000 <__STACKS_START__+0xa80>
  2046ac:	911c6000 	add	x0, x0, #0x718
  2046b0:	97ffff90 	bl	2044f0 <mtk_boot_dev_setup>
  2046b4:	911c4260 	add	x0, x19, #0x710
  2046b8:	97fff5f2 	bl	201e80 <register_io_dev_fip>
  2046bc:	f9438a60 	ldr	x0, [x19, #1808]
  2046c0:	b0000182 	adrp	x2, 235000 <__STACKS_START__+0xa80>
  2046c4:	f9400bf3 	ldr	x19, [sp, #16]
  2046c8:	911c2042 	add	x2, x2, #0x708
  2046cc:	a8c27bfd 	ldp	x29, x30, [sp], #32
  2046d0:	d2800001 	mov	x1, #0x0                   	// #0
  2046d4:	17fff674 	b	2020a4 <io_dev_open>

00000000002046d8 <bl2_plat_preload_setup>:
  2046d8:	d0ffffe2 	adrp	x2, 202000 <memmap_block_read+0x4c>
  2046dc:	52a00801 	mov	w1, #0x400000              	// #4194304
  2046e0:	910b6042 	add	x2, x2, #0x2d8
  2046e4:	d2a84000 	mov	x0, #0x42000000            	// #1107296256
  2046e8:	17fff4a8 	b	201988 <image_decompress_init>

00000000002046ec <bl2_plat_handle_pre_image_load>:
  2046ec:	a9bf7bfd 	stp	x29, x30, [sp, #-16]!
  2046f0:	910003fd 	mov	x29, sp
  2046f4:	97fff44a 	bl	20181c <get_bl_mem_params_node>
  2046f8:	b40000c0 	cbz	x0, 204710 <bl2_plat_handle_pre_image_load+0x24>
  2046fc:	91002000 	add	x0, x0, #0x8
  204700:	97fff4a9 	bl	2019a4 <image_decompress_prepare>
  204704:	52800000 	mov	w0, #0x0                   	// #0
  204708:	a8c17bfd 	ldp	x29, x30, [sp], #16
  20470c:	d65f03c0 	ret
  204710:	12800240 	mov	w0, #0xffffffed            	// #-19
  204714:	17fffffd 	b	204708 <bl2_plat_handle_pre_image_load+0x1c>

0000000000204718 <bl2_plat_handle_post_image_load>:
  204718:	a9bf7bfd 	stp	x29, x30, [sp, #-16]!
  20471c:	910003fd 	mov	x29, sp
  204720:	97fff43f 	bl	20181c <get_bl_mem_params_node>
  204724:	b40000c0 	cbz	x0, 20473c <bl2_plat_handle_post_image_load+0x24>
  204728:	b9400c01 	ldr	w1, [x0, #12]
  20472c:	91002000 	add	x0, x0, #0x8
  204730:	370800a1 	tbnz	w1, #1, 204744 <bl2_plat_handle_post_image_load+0x2c>
  204734:	a8c17bfd 	ldp	x29, x30, [sp], #16
  204738:	17fff4aa 	b	2019e0 <image_decompress>
  20473c:	b9400400 	ldr	w0, [x0, #4]
  204740:	d4207d00 	brk	#0x3e8
  204744:	52800000 	mov	w0, #0x0                   	// #0
  204748:	a8c17bfd 	ldp	x29, x30, [sp], #16
  20474c:	d65f03c0 	ret

0000000000204750 <plat_get_bl_image_load_info>:
  204750:	17fff43f 	b	20184c <get_bl_load_info_from_mem_params_desc>

0000000000204754 <plat_get_next_bl_params>:
  204754:	17fff457 	b	2018b0 <get_next_bl_params_from_mem_params_desc>

0000000000204758 <plat_flush_next_bl_params>:
  204758:	17fff416 	b	2017b0 <flush_bl_params_desc>

000000000020475c <plat_get_image_source>:
  20475c:	a9bc7bfd 	stp	x29, x30, [sp, #-64]!
  204760:	2a0003e0 	mov	w0, w0
  204764:	910003fd 	mov	x29, sp
  204768:	a9025bf5 	stp	x21, x22, [sp, #32]
  20476c:	aa0103f5 	mov	x21, x1
  204770:	d2800301 	mov	x1, #0x18                  	// #24
  204774:	a90153f3 	stp	x19, x20, [sp, #16]
  204778:	90000134 	adrp	x20, 228000 <set_mtk_drm_to_default+0xac>
  20477c:	9b017c13 	mul	x19, x0, x1
  204780:	911c6294 	add	x20, x20, #0x718
  204784:	f9001bf7 	str	x23, [sp, #48]
  204788:	8b130280 	add	x0, x20, x19
  20478c:	aa0203f6 	mov	x22, x2
  204790:	f9400801 	ldr	x1, [x0, #16]
  204794:	f9400417 	ldr	x23, [x0, #8]
  204798:	aa1703e0 	mov	x0, x23
  20479c:	d63f0020 	blr	x1
  2047a0:	f8736a80 	ldr	x0, [x20, x19]
  2047a4:	a94153f3 	ldp	x19, x20, [sp, #16]
  2047a8:	f90002d7 	str	x23, [x22]
  2047ac:	f9401bf7 	ldr	x23, [sp, #48]
  2047b0:	f9400000 	ldr	x0, [x0]
  2047b4:	f90002a0 	str	x0, [x21]
  2047b8:	a9425bf5 	ldp	x21, x22, [sp, #32]
  2047bc:	52800000 	mov	w0, #0x0                   	// #0
  2047c0:	a8c47bfd 	ldp	x29, x30, [sp], #64
  2047c4:	d65f03c0 	ret

00000000002047c8 <bl2_el3_early_platform_setup>:
  2047c8:	52984002 	mov	w2, #0xc200                	// #49664
  2047cc:	528b4001 	mov	w1, #0x5a00                	// #23040
  2047d0:	d2840000 	mov	x0, #0x2000                	// #8192
  2047d4:	b0000184 	adrp	x4, 235000 <__STACKS_START__+0xa80>
  2047d8:	52800023 	mov	w3, #0x1                   	// #1
  2047dc:	911b6084 	add	x4, x4, #0x6d8
  2047e0:	72a00022 	movk	w2, #0x1, lsl #16
  2047e4:	72a04c41 	movk	w1, #0x262, lsl #16
  2047e8:	f2a22000 	movk	x0, #0x1100, lsl #16
  2047ec:	17fff2f9 	b	2013d0 <console_hsuart_register>

00000000002047f0 <bl2_el3_plat_arch_setup>:
  2047f0:	d65f03c0 	ret

00000000002047f4 <plat_is_my_cpu_primary>:
  2047f4:	52800020 	mov	w0, #0x1                   	// #1
  2047f8:	d65f03c0 	ret

00000000002047fc <platform_mem_init>:
  2047fc:	d65f03c0 	ret

0000000000204800 <mtk_mem_init>:
  204800:	d0000180 	adrp	x0, 236000 <LP5_INIT+0x174>
  204804:	52800021 	mov	w1, #0x1                   	// #1
  204808:	b901bc01 	str	w1, [x0, #444]
  20480c:	d0000180 	adrp	x0, 236000 <LP5_INIT+0x174>
  204810:	52810aa1 	mov	w1, #0x855                 	// #2133
  204814:	b901c001 	str	w1, [x0, #448]
  204818:	1400045f 	b	205994 <mtk_mem_init_real>

000000000020481c <mtk_mem_dbg_print>:
  20481c:	a9b77bfd 	stp	x29, x30, [sp, #-144]!
  204820:	910003fd 	mov	x29, sp
  204824:	a9058be1 	stp	x1, x2, [sp, #88]
  204828:	d0000181 	adrp	x1, 236000 <LP5_INIT+0x174>
  20482c:	b941c821 	ldr	w1, [x1, #456]
  204830:	a90693e3 	stp	x3, x4, [sp, #104]
  204834:	a9079be5 	stp	x5, x6, [sp, #120]
  204838:	f90047e7 	str	x7, [sp, #136]
  20483c:	340001c1 	cbz	w1, 204874 <mtk_mem_dbg_print+0x58>
  204840:	910243e1 	add	x1, sp, #0x90
  204844:	a90307e1 	stp	x1, x1, [sp, #48]
  204848:	910143e1 	add	x1, sp, #0x50
  20484c:	f90023e1 	str	x1, [sp, #64]
  204850:	128006e1 	mov	w1, #0xffffffc8            	// #-56
  204854:	b9004be1 	str	w1, [sp, #72]
  204858:	910043e1 	add	x1, sp, #0x10
  20485c:	b9004fff 	str	wzr, [sp, #76]
  204860:	a9430fe2 	ldp	x2, x3, [sp, #48]
  204864:	a9010fe2 	stp	x2, x3, [sp, #16]
  204868:	a9440fe2 	ldp	x2, x3, [sp, #64]
  20486c:	a9020fe2 	stp	x2, x3, [sp, #32]
  204870:	94008e5c 	bl	2281e0 <vprintf>
  204874:	a8c97bfd 	ldp	x29, x30, [sp], #144
  204878:	d65f03c0 	ret

000000000020487c <mt_gpio_find_reg_addr>:
  20487c:	90000121 	adrp	x1, 228000 <set_mtk_drm_to_default+0xac>
  204880:	913a1821 	add	x1, x1, #0xe86
  204884:	8b204c20 	add	x0, x1, w0, uxtw #3
  204888:	79400800 	ldrh	w0, [x0, #4]
  20488c:	371800c0 	tbnz	w0, #3, 2048a4 <mt_gpio_find_reg_addr+0x28>
  204890:	92400c00 	and	x0, x0, #0xf
  204894:	90000121 	adrp	x1, 228000 <set_mtk_drm_to_default+0xac>
  204898:	9120e021 	add	x1, x1, #0x838
  20489c:	b8607820 	ldr	w0, [x1, x0, lsl #2]
  2048a0:	d65f03c0 	ret
  2048a4:	d2800000 	mov	x0, #0x0                   	// #0
  2048a8:	17fffffe 	b	2048a0 <mt_gpio_find_reg_addr+0x24>

00000000002048ac <mt_gpio_set_pull_chip>:
  2048ac:	2a0103e6 	mov	w6, w1
  2048b0:	90000121 	adrp	x1, 228000 <set_mtk_drm_to_default+0xac>
  2048b4:	913a1821 	add	x1, x1, #0xe86
  2048b8:	a9bf7bfd 	stp	x29, x30, [sp, #-16]!
  2048bc:	8b204c25 	add	x5, x1, w0, uxtw #3
  2048c0:	910003fd 	mov	x29, sp
  2048c4:	97ffffee 	bl	20487c <mt_gpio_find_reg_addr>
  2048c8:	79400ca3 	ldrh	w3, [x5, #6]
  2048cc:	394004a7 	ldrb	w7, [x5, #1]
  2048d0:	394008a1 	ldrb	w1, [x5, #2]
  2048d4:	794008a4 	ldrh	w4, [x5, #4]
  2048d8:	8b232000 	add	x0, x0, w3, uxth
  2048dc:	52800023 	mov	w3, #0x1                   	// #1
  2048e0:	927c0c84 	and	x4, x4, #0xf0
  2048e4:	1ac12063 	lsl	w3, w3, w1
  2048e8:	340001e7 	cbz	w7, 204924 <mt_gpio_set_pull_chip+0x78>
  2048ec:	8b040004 	add	x4, x0, x4
  2048f0:	710004df 	cmp	w6, #0x1
  2048f4:	54000121 	b.ne	204918 <mt_gpio_set_pull_chip+0x6c>  // b.any
  2048f8:	b9000483 	str	w3, [x4, #4]
  2048fc:	7100085f 	cmp	w2, #0x2
  204900:	54000061 	b.ne	20490c <mt_gpio_set_pull_chip+0x60>  // b.any
  204904:	b9000403 	str	w3, [x0, #4]
  204908:	14000002 	b	204910 <mt_gpio_set_pull_chip+0x64>
  20490c:	b9000803 	str	w3, [x0, #8]
  204910:	a8c17bfd 	ldp	x29, x30, [sp], #16
  204914:	d65f03c0 	ret
  204918:	b9000883 	str	w3, [x4, #8]
  20491c:	b9001883 	str	w3, [x4, #24]
  204920:	17fffffc 	b	204910 <mt_gpio_set_pull_chip+0x64>
  204924:	cb040004 	sub	x4, x0, x4
  204928:	710004df 	cmp	w6, #0x1
  20492c:	54000101 	b.ne	20494c <mt_gpio_set_pull_chip+0xa0>  // b.any
  204930:	7100085f 	cmp	w2, #0x2
  204934:	54000081 	b.ne	204944 <mt_gpio_set_pull_chip+0x98>  // b.any
  204938:	b9000803 	str	w3, [x0, #8]
  20493c:	b9000483 	str	w3, [x4, #4]
  204940:	17fffff4 	b	204910 <mt_gpio_set_pull_chip+0x64>
  204944:	b9000883 	str	w3, [x4, #8]
  204948:	17ffffef 	b	204904 <mt_gpio_set_pull_chip+0x58>
  20494c:	b9000803 	str	w3, [x0, #8]
  204950:	b9000883 	str	w3, [x4, #8]
  204954:	17ffffef 	b	204910 <mt_gpio_set_pull_chip+0x64>

0000000000204958 <mt_set_gpio_dir>:
  204958:	53057c02 	lsr	w2, w0, #5
  20495c:	52800023 	mov	w3, #0x1                   	// #1
  204960:	1ac02060 	lsl	w0, w3, w0
  204964:	531c6c42 	lsl	w2, w2, #4
  204968:	6b03003f 	cmp	w1, w3
  20496c:	540000c1 	b.ne	204984 <mt_set_gpio_dir+0x2c>  // b.any
  204970:	52800101 	mov	w1, #0x8                   	// #8
  204974:	72a23a01 	movk	w1, #0x11d0, lsl #16
  204978:	0b010042 	add	w2, w2, w1
  20497c:	b9000040 	str	w0, [x2]
  204980:	d65f03c0 	ret
  204984:	52800081 	mov	w1, #0x4                   	// #4
  204988:	17fffffb 	b	204974 <mt_set_gpio_dir+0x1c>

000000000020498c <mt_get_gpio_dir>:
  20498c:	52a023a1 	mov	w1, #0x11d0000             	// #18677760
  204990:	0b401421 	add	w1, w1, w0, lsr #5
  204994:	531c6c21 	lsl	w1, w1, #4
  204998:	b9400022 	ldr	w2, [x1]
  20499c:	52800021 	mov	w1, #0x1                   	// #1
  2049a0:	1ac02020 	lsl	w0, w1, w0
  2049a4:	6a02001f 	tst	w0, w2
  2049a8:	1a9f17e0 	cset	w0, eq	// eq = none
  2049ac:	d65f03c0 	ret

00000000002049b0 <mt_set_gpio_pull>:
  2049b0:	2a0103e2 	mov	w2, w1
  2049b4:	35000061 	cbnz	w1, 2049c0 <mt_set_gpio_pull+0x10>
  2049b8:	52800042 	mov	w2, #0x2                   	// #2
  2049bc:	17ffffbc 	b	2048ac <mt_gpio_set_pull_chip>
  2049c0:	7100043f 	cmp	w1, #0x1
  2049c4:	54ffffc0 	b.eq	2049bc <mt_set_gpio_pull+0xc>  // b.none
  2049c8:	7100083f 	cmp	w1, #0x2
  2049cc:	54000061 	b.ne	2049d8 <mt_set_gpio_pull+0x28>  // b.any
  2049d0:	52800021 	mov	w1, #0x1                   	// #1
  2049d4:	17fffffa 	b	2049bc <mt_set_gpio_pull+0xc>
  2049d8:	d65f03c0 	ret

00000000002049dc <mt_get_gpio_pull>:
  2049dc:	90000121 	adrp	x1, 228000 <set_mtk_drm_to_default+0xac>
  2049e0:	913a1821 	add	x1, x1, #0xe86
  2049e4:	8b204c21 	add	x1, x1, w0, uxtw #3
  2049e8:	a9bf7bfd 	stp	x29, x30, [sp, #-16]!
  2049ec:	910003fd 	mov	x29, sp
  2049f0:	39400426 	ldrb	w6, [x1, #1]
  2049f4:	79400c25 	ldrh	w5, [x1, #6]
  2049f8:	79400823 	ldrh	w3, [x1, #4]
  2049fc:	39400824 	ldrb	w4, [x1, #2]
  204a00:	97ffff9f 	bl	20487c <mt_gpio_find_reg_addr>
  204a04:	927c0c62 	and	x2, x3, #0xf0
  204a08:	8b252001 	add	x1, x0, w5, uxth
  204a0c:	340001e6 	cbz	w6, 204a48 <mt_get_gpio_pull+0x6c>
  204a10:	8b020023 	add	x3, x1, x2
  204a14:	b8626821 	ldr	w1, [x1, x2]
  204a18:	b9401062 	ldr	w2, [x3, #16]
  204a1c:	2a020021 	orr	w1, w1, w2
  204a20:	1ac42421 	lsr	w1, w1, w4
  204a24:	36000241 	tbz	w1, #0, 204a6c <mt_get_gpio_pull+0x90>
  204a28:	b86068a1 	ldr	w1, [x5, x0]
  204a2c:	52800020 	mov	w0, #0x1                   	// #1
  204a30:	1ac42000 	lsl	w0, w0, w4
  204a34:	6a01001f 	tst	w0, w1
  204a38:	1a9f07e0 	cset	w0, ne	// ne = any
  204a3c:	11000400 	add	w0, w0, #0x1
  204a40:	a8c17bfd 	ldp	x29, x30, [sp], #16
  204a44:	d65f03c0 	ret
  204a48:	cb020021 	sub	x1, x1, x2
  204a4c:	b86068a3 	ldr	w3, [x5, x0]
  204a50:	b9400020 	ldr	w0, [x1]
  204a54:	1ac42461 	lsr	w1, w3, w4
  204a58:	f240003f 	tst	x1, #0x1
  204a5c:	1ac42400 	lsr	w0, w0, w4
  204a60:	531f0000 	ubfiz	w0, w0, #1, #1
  204a64:	1a9f0400 	csinc	w0, w0, wzr, eq	// eq = none
  204a68:	17fffff6 	b	204a40 <mt_get_gpio_pull+0x64>
  204a6c:	52800000 	mov	w0, #0x0                   	// #0
  204a70:	17fffff4 	b	204a40 <mt_get_gpio_pull+0x64>

0000000000204a74 <mt_set_gpio_out>:
  204a74:	53057c02 	lsr	w2, w0, #5
  204a78:	52800023 	mov	w3, #0x1                   	// #1
  204a7c:	1ac02060 	lsl	w0, w3, w0
  204a80:	531c6c42 	lsl	w2, w2, #4
  204a84:	350000c1 	cbnz	w1, 204a9c <mt_set_gpio_out+0x28>
  204a88:	52802101 	mov	w1, #0x108                 	// #264
  204a8c:	72a23a01 	movk	w1, #0x11d0, lsl #16
  204a90:	0b010042 	add	w2, w2, w1
  204a94:	b9000040 	str	w0, [x2]
  204a98:	d65f03c0 	ret
  204a9c:	52802081 	mov	w1, #0x104                 	// #260
  204aa0:	17fffffb 	b	204a8c <mt_set_gpio_out+0x18>

0000000000204aa4 <mt_get_gpio_in>:
  204aa4:	52800401 	mov	w1, #0x20                  	// #32
  204aa8:	72a023a1 	movk	w1, #0x11d, lsl #16
  204aac:	0b401421 	add	w1, w1, w0, lsr #5
  204ab0:	531c6c21 	lsl	w1, w1, #4
  204ab4:	b9400022 	ldr	w2, [x1]
  204ab8:	52800021 	mov	w1, #0x1                   	// #1
  204abc:	1ac02020 	lsl	w0, w1, w0
  204ac0:	6a02001f 	tst	w0, w2
  204ac4:	1a9f07e0 	cset	w0, ne	// ne = any
  204ac8:	d65f03c0 	ret

0000000000204acc <mt_set_pinmux_mode>:
  204acc:	531e0802 	ubfiz	w2, w0, #2, #3
  204ad0:	12000c21 	and	w1, w1, #0xf
  204ad4:	528001e4 	mov	w4, #0xf                   	// #15
  204ad8:	53037c00 	lsr	w0, w0, #3
  204adc:	1ac22021 	lsl	w1, w1, w2
  204ae0:	1ac22084 	lsl	w4, w4, w2
  204ae4:	52806102 	mov	w2, #0x308                 	// #776
  204ae8:	72a23a02 	movk	w2, #0x11d0, lsl #16
  204aec:	0b001043 	add	w3, w2, w0, lsl #4
  204af0:	51001042 	sub	w2, w2, #0x4
  204af4:	0b001040 	add	w0, w2, w0, lsl #4
  204af8:	b9000064 	str	w4, [x3]
  204afc:	b9000001 	str	w1, [x0]
  204b00:	d65f03c0 	ret

0000000000204b04 <mt_get_pinmux_mode>:
  204b04:	52800601 	mov	w1, #0x30                  	// #48
  204b08:	72a023a1 	movk	w1, #0x11d, lsl #16
  204b0c:	0b400c21 	add	w1, w1, w0, lsr #3
  204b10:	531e0800 	ubfiz	w0, w0, #2, #3
  204b14:	531c6c21 	lsl	w1, w1, #4
  204b18:	b9400021 	ldr	w1, [x1]
  204b1c:	1ac02420 	lsr	w0, w1, w0
  204b20:	12000c00 	and	w0, w0, #0xf
  204b24:	d65f03c0 	ret

0000000000204b28 <mtk_pin_init>:
  204b28:	90000120 	adrp	x0, 228000 <set_mtk_drm_to_default+0xac>
  204b2c:	911ea000 	add	x0, x0, #0x7a8
  204b30:	17fff3f1 	b	201af4 <gpio_init>

0000000000204b34 <mtk_pll_init>:
  204b34:	a9bd7bfd 	stp	x29, x30, [sp, #-48]!
  204b38:	910003fd 	mov	x29, sp
  204b3c:	a90153f3 	stp	x19, x20, [sp, #16]
  204b40:	d29c4194 	mov	x20, #0xe20c                	// #57868
  204b44:	f2a20034 	movk	x20, #0x1001, lsl #16
  204b48:	aa1403f3 	mov	x19, x20
  204b4c:	f90013f5 	str	x21, [sp, #32]
  204b50:	2a0003f5 	mov	w21, w0
  204b54:	b9400280 	ldr	w0, [x20]
  204b58:	32000000 	orr	w0, w0, #0x1
  204b5c:	b8010660 	str	w0, [x19], #16
  204b60:	b9401280 	ldr	w0, [x20, #16]
  204b64:	32000000 	orr	w0, w0, #0x1
  204b68:	b9001280 	str	w0, [x20, #16]
  204b6c:	b9401260 	ldr	w0, [x19, #16]
  204b70:	32000000 	orr	w0, w0, #0x1
  204b74:	b9001260 	str	w0, [x19, #16]
  204b78:	b9402260 	ldr	w0, [x19, #32]
  204b7c:	32000000 	orr	w0, w0, #0x1
  204b80:	b9002260 	str	w0, [x19, #32]
  204b84:	b9403260 	ldr	w0, [x19, #48]
  204b88:	32000000 	orr	w0, w0, #0x1
  204b8c:	b9003260 	str	w0, [x19, #48]
  204b90:	b9404260 	ldr	w0, [x19, #64]
  204b94:	32000000 	orr	w0, w0, #0x1
  204b98:	b9004260 	str	w0, [x19, #64]
  204b9c:	b9406e60 	ldr	w0, [x19, #108]
  204ba0:	32000000 	orr	w0, w0, #0x1
  204ba4:	b9006e60 	str	w0, [x19, #108]
  204ba8:	b9405660 	ldr	w0, [x19, #84]
  204bac:	32000000 	orr	w0, w0, #0x1
  204bb0:	b9005660 	str	w0, [x19, #84]
  204bb4:	52800020 	mov	w0, #0x1                   	// #1
  204bb8:	97fff3af 	bl	201a74 <udelay>
  204bbc:	b9400280 	ldr	w0, [x20]
  204bc0:	52802281 	mov	w1, #0x114                 	// #276
  204bc4:	52802682 	mov	w2, #0x134                 	// #308
  204bc8:	52802883 	mov	w3, #0x144                 	// #324
  204bcc:	121e7800 	and	w0, w0, #0xfffffffd
  204bd0:	b9000280 	str	w0, [x20]
  204bd4:	b9401280 	ldr	w0, [x20, #16]
  204bd8:	121e7800 	and	w0, w0, #0xfffffffd
  204bdc:	b9001280 	str	w0, [x20, #16]
  204be0:	b9401260 	ldr	w0, [x19, #16]
  204be4:	121e7800 	and	w0, w0, #0xfffffffd
  204be8:	b9001260 	str	w0, [x19, #16]
  204bec:	b9402260 	ldr	w0, [x19, #32]
  204bf0:	121e7800 	and	w0, w0, #0xfffffffd
  204bf4:	b9002260 	str	w0, [x19, #32]
  204bf8:	b9403260 	ldr	w0, [x19, #48]
  204bfc:	121e7800 	and	w0, w0, #0xfffffffd
  204c00:	b9003260 	str	w0, [x19, #48]
  204c04:	b9404260 	ldr	w0, [x19, #64]
  204c08:	121e7800 	and	w0, w0, #0xfffffffd
  204c0c:	b9004260 	str	w0, [x19, #64]
  204c10:	b9406e60 	ldr	w0, [x19, #108]
  204c14:	121e7800 	and	w0, w0, #0xfffffffd
  204c18:	b9006e60 	str	w0, [x19, #108]
  204c1c:	b9405660 	ldr	w0, [x19, #84]
  204c20:	121e7800 	and	w0, w0, #0xfffffffd
  204c24:	b9005660 	str	w0, [x19, #84]
  204c28:	52b04000 	mov	w0, #0x82000000            	// #-2113929216
  204c2c:	b81e8260 	stur	w0, [x19, #-24]
  204c30:	b85e4260 	ldur	w0, [x19, #-28]
  204c34:	2a010000 	orr	w0, w0, w1
  204c38:	b81e4260 	stur	w0, [x19, #-28]
  204c3c:	b85f4260 	ldur	w0, [x19, #-12]
  204c40:	2a010000 	orr	w0, w0, w1
  204c44:	b81f4260 	stur	w0, [x19, #-12]
  204c48:	52802481 	mov	w1, #0x124                 	// #292
  204c4c:	b9400660 	ldr	w0, [x19, #4]
  204c50:	2a010000 	orr	w0, w0, w1
  204c54:	b9000660 	str	w0, [x19, #4]
  204c58:	b9401660 	ldr	w0, [x19, #20]
  204c5c:	2a020000 	orr	w0, w0, w2
  204c60:	b9001660 	str	w0, [x19, #20]
  204c64:	b9402660 	ldr	w0, [x19, #36]
  204c68:	2a030000 	orr	w0, w0, w3
  204c6c:	b9002660 	str	w0, [x19, #36]
  204c70:	52802083 	mov	w3, #0x104                 	// #260
  204c74:	b9403660 	ldr	w0, [x19, #52]
  204c78:	2a030000 	orr	w0, w0, w3
  204c7c:	b9003660 	str	w0, [x19, #52]
  204c80:	b9405e60 	ldr	w0, [x19, #92]
  204c84:	2a020000 	orr	w0, w0, w2
  204c88:	b9005e60 	str	w0, [x19, #92]
  204c8c:	b9404660 	ldr	w0, [x19, #68]
  204c90:	2a010000 	orr	w0, w0, w1
  204c94:	b9004660 	str	w0, [x19, #68]
  204c98:	b85e4260 	ldur	w0, [x19, #-28]
  204c9c:	32000000 	orr	w0, w0, #0x1
  204ca0:	b81e4260 	stur	w0, [x19, #-28]
  204ca4:	b85f4260 	ldur	w0, [x19, #-12]
  204ca8:	32000000 	orr	w0, w0, #0x1
  204cac:	b81f4260 	stur	w0, [x19, #-12]
  204cb0:	b9400660 	ldr	w0, [x19, #4]
  204cb4:	32000000 	orr	w0, w0, #0x1
  204cb8:	b9000660 	str	w0, [x19, #4]
  204cbc:	b9401660 	ldr	w0, [x19, #20]
  204cc0:	32000000 	orr	w0, w0, #0x1
  204cc4:	b9001660 	str	w0, [x19, #20]
  204cc8:	b9402660 	ldr	w0, [x19, #36]
  204ccc:	32000000 	orr	w0, w0, #0x1
  204cd0:	b9002660 	str	w0, [x19, #36]
  204cd4:	b9403660 	ldr	w0, [x19, #52]
  204cd8:	32000000 	orr	w0, w0, #0x1
  204cdc:	b9003660 	str	w0, [x19, #52]
  204ce0:	b9405e60 	ldr	w0, [x19, #92]
  204ce4:	32000000 	orr	w0, w0, #0x1
  204ce8:	b9005e60 	str	w0, [x19, #92]
  204cec:	b9404660 	ldr	w0, [x19, #68]
  204cf0:	32000000 	orr	w0, w0, #0x1
  204cf4:	b9004660 	str	w0, [x19, #68]
  204cf8:	52800280 	mov	w0, #0x14                  	// #20
  204cfc:	97fff35e 	bl	201a74 <udelay>
  204d00:	b85f4260 	ldur	w0, [x19, #-12]
  204d04:	32090000 	orr	w0, w0, #0x800000
  204d08:	b81f4260 	stur	w0, [x19, #-12]
  204d0c:	b9400660 	ldr	w0, [x19, #4]
  204d10:	32090000 	orr	w0, w0, #0x800000
  204d14:	b9000660 	str	w0, [x19, #4]
  204d18:	b9402660 	ldr	w0, [x19, #36]
  204d1c:	32090000 	orr	w0, w0, #0x800000
  204d20:	b9002660 	str	w0, [x19, #36]
  204d24:	b9403660 	ldr	w0, [x19, #52]
  204d28:	32090000 	orr	w0, w0, #0x800000
  204d2c:	b9003660 	str	w0, [x19, #52]
  204d30:	b9404660 	ldr	w0, [x19, #68]
  204d34:	32090000 	orr	w0, w0, #0x800000
  204d38:	b9004660 	str	w0, [x19, #68]
  204d3c:	35000155 	cbnz	w21, 204d64 <mtk_pll_init+0x230>
  204d40:	d2800781 	mov	x1, #0x3c                  	// #60
  204d44:	f2a34041 	movk	x1, #0x1a02, lsl #16
  204d48:	b9400020 	ldr	w0, [x1]
  204d4c:	321f0000 	orr	w0, w0, #0x2
  204d50:	b9000020 	str	w0, [x1]
  204d54:	d2820080 	mov	x0, #0x1004                	// #4100
  204d58:	528000a1 	mov	w1, #0x5                   	// #5
  204d5c:	f2a20000 	movk	x0, #0x1000, lsl #16
  204d60:	b9000001 	str	w1, [x0]
  204d64:	d280c800 	mov	x0, #0x640                 	// #1600
  204d68:	52800242 	mov	w2, #0x12                  	// #18
  204d6c:	f2a20800 	movk	x0, #0x1040, lsl #16
  204d70:	52a02023 	mov	w3, #0x1010000             	// #16842752
  204d74:	a94153f3 	ldp	x19, x20, [sp, #16]
  204d78:	b9400001 	ldr	w1, [x0]
  204d7c:	f94013f5 	ldr	x21, [sp, #32]
  204d80:	121b6821 	and	w1, w1, #0xffffffe0
  204d84:	2a020021 	orr	w1, w1, w2
  204d88:	b9000001 	str	w1, [x0]
  204d8c:	52810002 	mov	w2, #0x800                 	// #2048
  204d90:	b9418001 	ldr	w1, [x0, #384]
  204d94:	72a06002 	movk	w2, #0x300, lsl #16
  204d98:	2a020021 	orr	w1, w1, w2
  204d9c:	b9018001 	str	w1, [x0, #384]
  204da0:	52802022 	mov	w2, #0x101                 	// #257
  204da4:	b9418001 	ldr	w1, [x0, #384]
  204da8:	32170021 	orr	w1, w1, #0x200
  204dac:	b9018001 	str	w1, [x0, #384]
  204db0:	d2960080 	mov	x0, #0xb004                	// #45060
  204db4:	f2a20020 	movk	x0, #0x1001, lsl #16
  204db8:	aa0003e1 	mov	x1, x0
  204dbc:	b8010422 	str	w2, [x1], #16
  204dc0:	52802002 	mov	w2, #0x100                 	// #256
  204dc4:	72a02022 	movk	w2, #0x101, lsl #16
  204dc8:	b9000022 	str	w2, [x1]
  204dcc:	3200c3e1 	mov	w1, #0x1010101             	// #16843009
  204dd0:	b9002003 	str	w3, [x0, #32]
  204dd4:	b9003001 	str	w1, [x0, #48]
  204dd8:	b9004002 	str	w2, [x0, #64]
  204ddc:	529f9c62 	mov	w2, #0xfce3                	// #64739
  204de0:	b9005001 	str	w1, [x0, #80]
  204de4:	72afffc2 	movk	w2, #0x7ffe, lsl #16
  204de8:	b9006001 	str	w1, [x0, #96]
  204dec:	b9007001 	str	w1, [x0, #112]
  204df0:	b9008001 	str	w1, [x0, #128]
  204df4:	52800061 	mov	w1, #0x3                   	// #3
  204df8:	b901bc02 	str	w2, [x0, #444]
  204dfc:	b901c001 	str	w1, [x0, #448]
  204e00:	a8c37bfd 	ldp	x29, x30, [sp], #48
  204e04:	d65f03c0 	ret

0000000000204e08 <get_timer_value>:
  204e08:	a9bf7bfd 	stp	x29, x30, [sp, #-16]!
  204e0c:	90000180 	adrp	x0, 234000 <__RO_END_UNALIGNED__>
  204e10:	91062000 	add	x0, x0, #0x188
  204e14:	910003fd 	mov	x29, sp
  204e18:	97fffcac 	bl	2040c8 <mtk_gpt_get_counter>
  204e1c:	2a2003e0 	mvn	w0, w0
  204e20:	a8c17bfd 	ldp	x29, x30, [sp], #16
  204e24:	d65f03c0 	ret

0000000000204e28 <mtk_timer_init>:
  204e28:	a9bf7bfd 	stp	x29, x30, [sp, #-16]!
  204e2c:	90000180 	adrp	x0, 234000 <__RO_END_UNALIGNED__>
  204e30:	91062000 	add	x0, x0, #0x188
  204e34:	910003fd 	mov	x29, sp
  204e38:	97fffc8b 	bl	204064 <mtk_gpt_init>
  204e3c:	5285a001 	mov	w1, #0x2d00                	// #11520
  204e40:	52884802 	mov	w2, #0x4240                	// #16960
  204e44:	72a02621 	movk	w1, #0x131, lsl #16
  204e48:	72a001e2 	movk	w2, #0xf, lsl #16
  204e4c:	52800140 	mov	w0, #0xa                   	// #10
  204e50:	1ac00842 	udiv	w2, w2, w0
  204e54:	1ac00821 	udiv	w1, w1, w0
  204e58:	1ac00843 	udiv	w3, w2, w0
  204e5c:	1ac00824 	udiv	w4, w1, w0
  204e60:	1b008863 	msub	w3, w3, w0, w2
  204e64:	1b008484 	msub	w4, w4, w0, w1
  204e68:	2a040063 	orr	w3, w3, w4
  204e6c:	34ffff23 	cbz	w3, 204e50 <mtk_timer_init+0x28>
  204e70:	b0000184 	adrp	x4, 235000 <__STACKS_START__+0xa80>
  204e74:	911ca080 	add	x0, x4, #0x728
  204e78:	90000003 	adrp	x3, 204000 <mtk_gpt_start+0x14>
  204e7c:	91382063 	add	x3, x3, #0xe08
  204e80:	f9039483 	str	x3, [x4, #1832]
  204e84:	29010402 	stp	w2, w1, [x0, #8]
  204e88:	a8c17bfd 	ldp	x29, x30, [sp], #16
  204e8c:	17fff317 	b	201ae8 <timer_init>

0000000000204e90 <load_auth_image>:
  204e90:	a9ba7bfd 	stp	x29, x30, [sp, #-96]!
  204e94:	910003fd 	mov	x29, sp
  204e98:	a90153f3 	stp	x19, x20, [sp, #16]
  204e9c:	aa0103f4 	mov	x20, x1
  204ea0:	a9025bf5 	stp	x21, x22, [sp, #32]
  204ea4:	2a0003f5 	mov	w21, w0
  204ea8:	910123e2 	add	x2, sp, #0x48
  204eac:	f9400696 	ldr	x22, [x20, #8]
  204eb0:	9100e3e1 	add	x1, sp, #0x38
  204eb4:	2a1503e0 	mov	w0, w21
  204eb8:	97fffe29 	bl	20475c <plat_get_image_source>
  204ebc:	2a0003f3 	mov	w19, w0
  204ec0:	35000380 	cbnz	w0, 204f30 <load_auth_image+0xa0>
  204ec4:	f9401fe0 	ldr	x0, [sp, #56]
  204ec8:	910103e2 	add	x2, sp, #0x40
  204ecc:	f94027e1 	ldr	x1, [sp, #72]
  204ed0:	97fff489 	bl	2020f4 <io_open>
  204ed4:	2a0003f3 	mov	w19, w0
  204ed8:	350002c0 	cbnz	w0, 204f30 <load_auth_image+0xa0>
  204edc:	f94023e0 	ldr	x0, [sp, #64]
  204ee0:	910143e1 	add	x1, sp, #0x50
  204ee4:	97fff4c1 	bl	2021e8 <io_size>
  204ee8:	2a0003f3 	mov	w19, w0
  204eec:	35000180 	cbnz	w0, 204f1c <load_auth_image+0x8c>
  204ef0:	f9402be2 	ldr	x2, [sp, #80]
  204ef4:	f94023e0 	ldr	x0, [sp, #64]
  204ef8:	b4000122 	cbz	x2, 204f1c <load_auth_image+0x8c>
  204efc:	b9401681 	ldr	w1, [x20, #20]
  204f00:	eb01005f 	cmp	x2, x1
  204f04:	54000248 	b.hi	204f4c <load_auth_image+0xbc>  // b.pmore
  204f08:	b9001282 	str	w2, [x20, #16]
  204f0c:	910163e3 	add	x3, sp, #0x58
  204f10:	aa1603e1 	mov	x1, x22
  204f14:	97fff4bd 	bl	202208 <io_read>
  204f18:	2a0003f3 	mov	w19, w0
  204f1c:	f94023e0 	ldr	x0, [sp, #64]
  204f20:	97fff4c2 	bl	202228 <io_close>
  204f24:	f9401fe0 	ldr	x0, [sp, #56]
  204f28:	97fff46c 	bl	2020d8 <io_dev_close>
  204f2c:	34000153 	cbz	w19, 204f54 <load_auth_image+0xc4>
  204f30:	9400008d 	bl	205164 <plat_try_next_boot_source>
  204f34:	35fffba0 	cbnz	w0, 204ea8 <load_auth_image+0x18>
  204f38:	a9425bf5 	ldp	x21, x22, [sp, #32]
  204f3c:	2a1303e0 	mov	w0, w19
  204f40:	a94153f3 	ldp	x19, x20, [sp, #16]
  204f44:	a8c67bfd 	ldp	x29, x30, [sp], #96
  204f48:	d65f03c0 	ret
  204f4c:	12800353 	mov	w19, #0xffffffe5            	// #-27
  204f50:	17fffff3 	b	204f1c <load_auth_image+0x8c>
  204f54:	f9400680 	ldr	x0, [x20, #8]
  204f58:	b9401281 	ldr	w1, [x20, #16]
  204f5c:	97fff162 	bl	2014e4 <flush_dcache_range>
  204f60:	17fffff6 	b	204f38 <load_auth_image+0xa8>

0000000000204f64 <print_entry_point_info>:
  204f64:	d65f03c0 	ret

0000000000204f68 <tf_log>:
  204f68:	a9b67bfd 	stp	x29, x30, [sp, #-160]!
  204f6c:	910003fd 	mov	x29, sp
  204f70:	a90153f3 	stp	x19, x20, [sp, #16]
  204f74:	aa0003f4 	mov	x20, x0
  204f78:	a9068be1 	stp	x1, x2, [sp, #104]
  204f7c:	b0000181 	adrp	x1, 235000 <__STACKS_START__+0xa80>
  204f80:	a90793e3 	stp	x3, x4, [sp, #120]
  204f84:	b94dc021 	ldr	w1, [x1, #3520]
  204f88:	a9089be5 	stp	x5, x6, [sp, #136]
  204f8c:	f9004fe7 	str	x7, [sp, #152]
  204f90:	39400000 	ldrb	w0, [x0]
  204f94:	6b00003f 	cmp	w1, w0
  204f98:	54000263 	b.cc	204fe4 <tf_log+0x7c>  // b.lo, b.ul, b.last
  204f9c:	94000074 	bl	20516c <plat_log_get_prefix>
  204fa0:	aa0003f3 	mov	x19, x0
  204fa4:	39400260 	ldrb	w0, [x19]
  204fa8:	35000240 	cbnz	w0, 204ff0 <tf_log+0x88>
  204fac:	910283e0 	add	x0, sp, #0xa0
  204fb0:	a90403e0 	stp	x0, x0, [sp, #64]
  204fb4:	910183e0 	add	x0, sp, #0x60
  204fb8:	f9002be0 	str	x0, [sp, #80]
  204fbc:	128006e0 	mov	w0, #0xffffffc8            	// #-56
  204fc0:	b9005be0 	str	w0, [sp, #88]
  204fc4:	b9005fff 	str	wzr, [sp, #92]
  204fc8:	a94407e0 	ldp	x0, x1, [sp, #64]
  204fcc:	a90207e0 	stp	x0, x1, [sp, #32]
  204fd0:	a94507e0 	ldp	x0, x1, [sp, #80]
  204fd4:	a90307e0 	stp	x0, x1, [sp, #48]
  204fd8:	910083e1 	add	x1, sp, #0x20
  204fdc:	91000680 	add	x0, x20, #0x1
  204fe0:	94008c80 	bl	2281e0 <vprintf>
  204fe4:	a94153f3 	ldp	x19, x20, [sp, #16]
  204fe8:	a8ca7bfd 	ldp	x29, x30, [sp], #160
  204fec:	d65f03c0 	ret
  204ff0:	91000673 	add	x19, x19, #0x1
  204ff4:	94008d91 	bl	228638 <putchar>
  204ff8:	17ffffeb 	b	204fa4 <tf_log+0x3c>

0000000000204ffc <console_is_registered>:
  204ffc:	b0000181 	adrp	x1, 235000 <__STACKS_START__+0xa80>
  205000:	f9439c21 	ldr	x1, [x1, #1848]
  205004:	b5000061 	cbnz	x1, 205010 <console_is_registered+0x14>
  205008:	52800000 	mov	w0, #0x0                   	// #0
  20500c:	d65f03c0 	ret
  205010:	eb00003f 	cmp	x1, x0
  205014:	54000060 	b.eq	205020 <console_is_registered+0x24>  // b.none
  205018:	f9400021 	ldr	x1, [x1]
  20501c:	17fffffa 	b	205004 <console_is_registered+0x8>
  205020:	52800020 	mov	w0, #0x1                   	// #1
  205024:	17fffffa 	b	20500c <console_is_registered+0x10>

0000000000205028 <console_register>:
  205028:	a9bf7bfd 	stp	x29, x30, [sp, #-16]!
  20502c:	aa0003e2 	mov	x2, x0
  205030:	910003fd 	mov	x29, sp
  205034:	97fffff2 	bl	204ffc <console_is_registered>
  205038:	7100041f 	cmp	w0, #0x1
  20503c:	540000a0 	b.eq	205050 <console_register+0x28>  // b.none
  205040:	90000180 	adrp	x0, 235000 <__STACKS_START__+0xa80>
  205044:	f9439c01 	ldr	x1, [x0, #1848]
  205048:	f9000041 	str	x1, [x2]
  20504c:	f9039c02 	str	x2, [x0, #1848]
  205050:	52800020 	mov	w0, #0x1                   	// #1
  205054:	a8c17bfd 	ldp	x29, x30, [sp], #16
  205058:	d65f03c0 	ret

000000000020505c <console_putc>:
  20505c:	a9bd7bfd 	stp	x29, x30, [sp, #-48]!
  205060:	910003fd 	mov	x29, sp
  205064:	a9025bf5 	stp	x21, x22, [sp, #32]
  205068:	2a0003f5 	mov	w21, w0
  20506c:	90000180 	adrp	x0, 235000 <__STACKS_START__+0xa80>
  205070:	a90153f3 	stp	x19, x20, [sp, #16]
  205074:	f0000176 	adrp	x22, 234000 <__RO_END_UNALIGNED__>
  205078:	9114fad6 	add	x22, x22, #0x53e
  20507c:	f9439c13 	ldr	x19, [x0, #1848]
  205080:	12800ff4 	mov	w20, #0xffffff80            	// #-128
  205084:	b50000d3 	cbnz	x19, 20509c <console_putc+0x40>
  205088:	a9425bf5 	ldp	x21, x22, [sp, #32]
  20508c:	2a1403e0 	mov	w0, w20
  205090:	a94153f3 	ldp	x19, x20, [sp, #16]
  205094:	a8c37bfd 	ldp	x29, x30, [sp], #48
  205098:	d65f03c0 	ret
  20509c:	f9400660 	ldr	x0, [x19, #8]
  2050a0:	394002c1 	ldrb	w1, [x22]
  2050a4:	ea00003f 	tst	x1, x0
  2050a8:	54000060 	b.eq	2050b4 <console_putc+0x58>  // b.none
  2050ac:	f9400a62 	ldr	x2, [x19, #16]
  2050b0:	b50000a2 	cbnz	x2, 2050c4 <console_putc+0x68>
  2050b4:	2a1403e0 	mov	w0, w20
  2050b8:	f9400273 	ldr	x19, [x19]
  2050bc:	2a0003f4 	mov	w20, w0
  2050c0:	17fffff1 	b	205084 <console_putc+0x28>
  2050c4:	71002abf 	cmp	w21, #0xa
  2050c8:	54000120 	b.eq	2050ec <console_putc+0x90>  // b.none
  2050cc:	f9400a62 	ldr	x2, [x19, #16]
  2050d0:	aa1303e1 	mov	x1, x19
  2050d4:	2a1503e0 	mov	w0, w21
  2050d8:	d63f0040 	blr	x2
  2050dc:	3102029f 	cmn	w20, #0x80
  2050e0:	7a401280 	ccmp	w20, w0, #0x0, ne	// ne = any
  2050e4:	54fffe8d 	b.le	2050b4 <console_putc+0x58>
  2050e8:	17fffff4 	b	2050b8 <console_putc+0x5c>
  2050ec:	3647ff00 	tbz	w0, #8, 2050cc <console_putc+0x70>
  2050f0:	aa1303e1 	mov	x1, x19
  2050f4:	528001a0 	mov	w0, #0xd                   	// #13
  2050f8:	d63f0040 	blr	x2
  2050fc:	36fffe80 	tbz	w0, #31, 2050cc <console_putc+0x70>
  205100:	17fffff7 	b	2050dc <console_putc+0x80>

0000000000205104 <console_flush>:
  205104:	a9be7bfd 	stp	x29, x30, [sp, #-32]!
  205108:	90000180 	adrp	x0, 235000 <__STACKS_START__+0xa80>
  20510c:	910003fd 	mov	x29, sp
  205110:	a90153f3 	stp	x19, x20, [sp, #16]
  205114:	f0000174 	adrp	x20, 234000 <__RO_END_UNALIGNED__>
  205118:	9114fa94 	add	x20, x20, #0x53e
  20511c:	f9439c13 	ldr	x19, [x0, #1848]
  205120:	b5000093 	cbnz	x19, 205130 <console_flush+0x2c>
  205124:	a94153f3 	ldp	x19, x20, [sp, #16]
  205128:	a8c27bfd 	ldp	x29, x30, [sp], #32
  20512c:	d65f03c0 	ret
  205130:	f9400660 	ldr	x0, [x19, #8]
  205134:	39400281 	ldrb	w1, [x20]
  205138:	ea00003f 	tst	x1, x0
  20513c:	540000a0 	b.eq	205150 <console_flush+0x4c>  // b.none
  205140:	f9401261 	ldr	x1, [x19, #32]
  205144:	b4000061 	cbz	x1, 205150 <console_flush+0x4c>
  205148:	aa1303e0 	mov	x0, x19
  20514c:	d63f0020 	blr	x1
  205150:	f9400273 	ldr	x19, [x19]
  205154:	17fffff3 	b	205120 <console_flush+0x1c>

0000000000205158 <bl2_el3_plat_prepare_exit>:
  205158:	d65f03c0 	ret

000000000020515c <plat_error_handler>:
  20515c:	d503207f 	wfi
  205160:	17ffffff 	b	20515c <plat_error_handler>

0000000000205164 <plat_try_next_boot_source>:
  205164:	52800000 	mov	w0, #0x0                   	// #0
  205168:	d65f03c0 	ret

000000000020516c <plat_log_get_prefix>:
  20516c:	7100c81f 	cmp	w0, #0x32
  205170:	52800641 	mov	w1, #0x32                  	// #50
  205174:	1a819000 	csel	w0, w0, w1, ls	// ls = plast
  205178:	52800141 	mov	w1, #0xa                   	// #10
  20517c:	6b01001f 	cmp	w0, w1
  205180:	1a812000 	csel	w0, w0, w1, cs	// cs = hs, nlast
  205184:	1ac10800 	udiv	w0, w0, w1
  205188:	f0000101 	adrp	x1, 228000 <set_mtk_drm_to_default+0xac>
  20518c:	911fa021 	add	x1, x1, #0x7e8
  205190:	51000400 	sub	w0, w0, #0x1
  205194:	f8607820 	ldr	x0, [x1, x0, lsl #3]
  205198:	d65f03c0 	ret

000000000020519c <complex_mem_test>:
  20519c:	a9bb7bfd 	stp	x29, x30, [sp, #-80]!
  2051a0:	d342fc23 	lsr	x3, x1, #2
  2051a4:	910003fd 	mov	x29, sp
  2051a8:	a90153f3 	stp	x19, x20, [sp, #16]
  2051ac:	92407c74 	and	x20, x3, #0xffffffff
  2051b0:	aa0003f3 	mov	x19, x0
  2051b4:	a9025bf5 	stp	x21, x22, [sp, #32]
  2051b8:	a90363f7 	stp	x23, x24, [sp, #48]
  2051bc:	d2800000 	mov	x0, #0x0                   	// #0
  2051c0:	f90023f9 	str	x25, [sp, #64]
  2051c4:	eb14001f 	cmp	x0, x20
  2051c8:	540019a3 	b.cc	2054fc <complex_mem_test+0x360>  // b.lo, b.ul, b.last
  2051cc:	d2800000 	mov	x0, #0x0                   	// #0
  2051d0:	12800004 	mov	w4, #0xffffffff            	// #-1
  2051d4:	eb00029f 	cmp	x20, x0
  2051d8:	54001988 	b.hi	205508 <complex_mem_test+0x36c>  // b.pmore
  2051dc:	d2800000 	mov	x0, #0x0                   	// #0
  2051e0:	eb00029f 	cmp	x20, x0
  2051e4:	540019e8 	b.hi	205520 <complex_mem_test+0x384>  // b.pmore
  2051e8:	d2800000 	mov	x0, #0x0                   	// #0
  2051ec:	12001c02 	and	w2, w0, #0xff
  2051f0:	eb01001f 	cmp	x0, x1
  2051f4:	54001a41 	b.ne	20553c <complex_mem_test+0x3a0>  // b.any
  2051f8:	d2800001 	mov	x1, #0x0                   	// #0
  2051fc:	12001c22 	and	w2, w1, #0xff
  205200:	eb01001f 	cmp	x0, x1
  205204:	54001a21 	b.ne	205548 <complex_mem_test+0x3ac>  // b.any
  205208:	52800001 	mov	w1, #0x0                   	// #0
  20520c:	d2800002 	mov	x2, #0x0                   	// #0
  205210:	12001c58 	and	w24, w2, #0xff
  205214:	eb02001f 	cmp	x0, x2
  205218:	54001a28 	b.hi	20555c <complex_mem_test+0x3c0>  // b.pmore
  20521c:	d341fc00 	lsr	x0, x0, #1
  205220:	d2800002 	mov	x2, #0x0                   	// #0
  205224:	12003c41 	and	w1, w2, #0xffff
  205228:	eb02001f 	cmp	x0, x2
  20522c:	54001b21 	b.ne	205590 <complex_mem_test+0x3f4>  // b.any
  205230:	d2800000 	mov	x0, #0x0                   	// #0
  205234:	12003c01 	and	w1, w0, #0xffff
  205238:	eb00005f 	cmp	x2, x0
  20523c:	54001b01 	b.ne	20559c <complex_mem_test+0x400>  // b.any
  205240:	d2800000 	mov	x0, #0x0                   	// #0
  205244:	2a0003f6 	mov	w22, w0
  205248:	eb00007f 	cmp	x3, x0
  20524c:	54001b21 	b.ne	2055b0 <complex_mem_test+0x414>  // b.any
  205250:	d2800002 	mov	x2, #0x0                   	// #0
  205254:	eb02001f 	cmp	x0, x2
  205258:	54001b21 	b.ne	2055bc <complex_mem_test+0x420>  // b.any
  20525c:	52844221 	mov	w1, #0x2211                	// #8721
  205260:	d2800000 	mov	x0, #0x0                   	// #0
  205264:	72a88661 	movk	w1, #0x4433, lsl #16
  205268:	eb00029f 	cmp	x20, x0
  20526c:	54001b28 	b.hi	2055d0 <complex_mem_test+0x434>  // b.pmore
  205270:	52844222 	mov	w2, #0x2211                	// #8721
  205274:	5294b4a3 	mov	w3, #0xa5a5                	// #42405
  205278:	d2800000 	mov	x0, #0x0                   	// #0
  20527c:	72a88662 	movk	w2, #0x4433, lsl #16
  205280:	72b4b4a3 	movk	w3, #0xa5a5, lsl #16
  205284:	eb00029f 	cmp	x20, x0
  205288:	54001aa8 	b.hi	2055dc <complex_mem_test+0x440>  // b.pmore
  20528c:	5294b4a2 	mov	w2, #0xa5a5                	// #42405
  205290:	d2800000 	mov	x0, #0x0                   	// #0
  205294:	72b4b4a2 	movk	w2, #0xa5a5, lsl #16
  205298:	eb00029f 	cmp	x20, x0
  20529c:	54001ae8 	b.hi	2055f8 <complex_mem_test+0x45c>  // b.pmore
  2052a0:	5294a002 	mov	w2, #0xa500                	// #42240
  2052a4:	91000a61 	add	x1, x19, #0x2
  2052a8:	d2800000 	mov	x0, #0x0                   	// #0
  2052ac:	72b4b4a2 	movk	w2, #0xa5a5, lsl #16
  2052b0:	eb00029f 	cmp	x20, x0
  2052b4:	54001b08 	b.hi	205614 <complex_mem_test+0x478>  // b.pmore
  2052b8:	5294a002 	mov	w2, #0xa500                	// #42240
  2052bc:	91000661 	add	x1, x19, #0x1
  2052c0:	d2800000 	mov	x0, #0x0                   	// #0
  2052c4:	72b4a002 	movk	w2, #0xa500, lsl #16
  2052c8:	eb00029f 	cmp	x20, x0
  2052cc:	54001b08 	b.hi	20562c <complex_mem_test+0x490>  // b.pmore
  2052d0:	91000e61 	add	x1, x19, #0x3
  2052d4:	d2800000 	mov	x0, #0x0                   	// #0
  2052d8:	52b4a002 	mov	w2, #0xa5000000            	// #-1526726656
  2052dc:	eb00029f 	cmp	x20, x0
  2052e0:	54001b28 	b.hi	205644 <complex_mem_test+0x4a8>  // b.pmore
  2052e4:	aa1303e0 	mov	x0, x19
  2052e8:	d2800001 	mov	x1, #0x0                   	// #0
  2052ec:	12800002 	mov	w2, #0xffffffff            	// #-1
  2052f0:	eb01029f 	cmp	x20, x1
  2052f4:	54001b48 	b.hi	20565c <complex_mem_test+0x4c0>  // b.pmore
  2052f8:	d2800000 	mov	x0, #0x0                   	// #0
  2052fc:	12800002 	mov	w2, #0xffffffff            	// #-1
  205300:	eb00029f 	cmp	x20, x0
  205304:	54001ba8 	b.hi	205678 <complex_mem_test+0x4dc>  // b.pmore
  205308:	d2800000 	mov	x0, #0x0                   	// #0
  20530c:	eb00029f 	cmp	x20, x0
  205310:	54001c28 	b.hi	205694 <complex_mem_test+0x4f8>  // b.pmore
  205314:	528b4b41 	mov	w1, #0x5a5a                	// #23130
  205318:	d2800000 	mov	x0, #0x0                   	// #0
  20531c:	72ab4b41 	movk	w1, #0x5a5a, lsl #16
  205320:	eb00029f 	cmp	x20, x0
  205324:	54001c28 	b.hi	2056a8 <complex_mem_test+0x50c>  // b.pmore
  205328:	528b4b42 	mov	w2, #0x5a5a                	// #23130
  20532c:	5294b4a3 	mov	w3, #0xa5a5                	// #42405
  205330:	d2800000 	mov	x0, #0x0                   	// #0
  205334:	72ab4b42 	movk	w2, #0x5a5a, lsl #16
  205338:	72b4b4a3 	movk	w3, #0xa5a5, lsl #16
  20533c:	eb00029f 	cmp	x20, x0
  205340:	54001ba8 	b.hi	2056b4 <complex_mem_test+0x518>  // b.pmore
  205344:	5294b4a2 	mov	w2, #0xa5a5                	// #42405
  205348:	528b4b43 	mov	w3, #0x5a5a                	// #23130
  20534c:	d2800000 	mov	x0, #0x0                   	// #0
  205350:	72b4b4a2 	movk	w2, #0xa5a5, lsl #16
  205354:	72ab4b43 	movk	w3, #0x5a5a, lsl #16
  205358:	eb00029f 	cmp	x20, x0
  20535c:	54001ba8 	b.hi	2056d0 <complex_mem_test+0x534>  // b.pmore
  205360:	528b4b42 	mov	w2, #0x5a5a                	// #23130
  205364:	5294b4a3 	mov	w3, #0xa5a5                	// #42405
  205368:	d2800000 	mov	x0, #0x0                   	// #0
  20536c:	72ab4b42 	movk	w2, #0x5a5a, lsl #16
  205370:	72b4b4a3 	movk	w3, #0xa5a5, lsl #16
  205374:	eb00029f 	cmp	x20, x0
  205378:	54001ba8 	b.hi	2056ec <complex_mem_test+0x550>  // b.pmore
  20537c:	5294b4a2 	mov	w2, #0xa5a5                	// #42405
  205380:	528b4b43 	mov	w3, #0x5a5a                	// #23130
  205384:	d2800000 	mov	x0, #0x0                   	// #0
  205388:	72b4b4a2 	movk	w2, #0xa5a5, lsl #16
  20538c:	72ab4b43 	movk	w3, #0x5a5a, lsl #16
  205390:	eb00029f 	cmp	x20, x0
  205394:	54001ba8 	b.hi	205708 <complex_mem_test+0x56c>  // b.pmore
  205398:	528b4b41 	mov	w1, #0x5a5a                	// #23130
  20539c:	d2800000 	mov	x0, #0x0                   	// #0
  2053a0:	72ab4b41 	movk	w1, #0x5a5a, lsl #16
  2053a4:	eb00029f 	cmp	x20, x0
  2053a8:	54001be8 	b.hi	205724 <complex_mem_test+0x588>  // b.pmore
  2053ac:	531e76d7 	lsl	w23, w22, #2
  2053b0:	528acf01 	mov	w1, #0x5678                	// #22136
  2053b4:	aa1303e0 	mov	x0, x19
  2053b8:	52800f02 	mov	w2, #0x78                  	// #120
  2053bc:	8b374268 	add	x8, x19, w23, uxtw
  2053c0:	52800ac3 	mov	w3, #0x56                  	// #86
  2053c4:	52824684 	mov	w4, #0x1234                	// #4660
  2053c8:	72a24681 	movk	w1, #0x1234, lsl #16
  2053cc:	528acf05 	mov	w5, #0x5678                	// #22136
  2053d0:	52800686 	mov	w6, #0x34                  	// #52
  2053d4:	52800247 	mov	w7, #0x12                  	// #18
  2053d8:	eb00011f 	cmp	x8, x0
  2053dc:	54001ae8 	b.hi	205738 <complex_mem_test+0x59c>  // b.pmore
  2053e0:	528acf01 	mov	w1, #0x5678                	// #22136
  2053e4:	d2800000 	mov	x0, #0x0                   	// #0
  2053e8:	72a24681 	movk	w1, #0x1234, lsl #16
  2053ec:	eb00029f 	cmp	x20, x0
  2053f0:	54001c88 	b.hi	205780 <complex_mem_test+0x5e4>  // b.pmore
  2053f4:	39000278 	strb	w24, [x19]
  2053f8:	f0000115 	adrp	x21, 228000 <set_mtk_drm_to_default+0xac>
  2053fc:	912162b9 	add	x25, x21, #0x858
  205400:	91027f20 	add	x0, x25, #0x9f
  205404:	97fffd06 	bl	20481c <mtk_mem_dbg_print>
  205408:	2a1803e1 	mov	w1, w24
  20540c:	91030320 	add	x0, x25, #0xc0
  205410:	97fffd03 	bl	20481c <mtk_mem_dbg_print>
  205414:	2a1703e4 	mov	w4, w23
  205418:	510006f7 	sub	w23, w23, #0x1
  20541c:	d2800001 	mov	x1, #0x0                   	// #0
  205420:	12001c23 	and	w3, w1, #0xff
  205424:	eb01009f 	cmp	x4, x1
  205428:	540001c9 	b.ls	205460 <complex_mem_test+0x2c4>  // b.plast
  20542c:	11000460 	add	w0, w3, #0x1
  205430:	eb0102ff 	cmp	x23, x1
  205434:	12001c00 	and	w0, w0, #0xff
  205438:	54000069 	b.ls	205444 <complex_mem_test+0x2a8>  // b.plast
  20543c:	92401c02 	and	x2, x0, #0xff
  205440:	38226a60 	strb	w0, [x19, x2]
  205444:	92401c20 	and	x0, x1, #0xff
  205448:	38606a62 	ldrb	w2, [x19, x0]
  20544c:	6b03005f 	cmp	w2, w3
  205450:	54001a20 	b.eq	205794 <complex_mem_test+0x5f8>  // b.none
  205454:	912162a0 	add	x0, x21, #0x858
  205458:	91039400 	add	x0, x0, #0xe5
  20545c:	97fffec3 	bl	204f68 <tf_log>
  205460:	912162b7 	add	x23, x21, #0x858
  205464:	91048ae0 	add	x0, x23, #0x122
  205468:	97fffced 	bl	20481c <mtk_mem_dbg_print>
  20546c:	7900027f 	strh	wzr, [x19]
  205470:	52800001 	mov	w1, #0x0                   	// #0
  205474:	910516e0 	add	x0, x23, #0x145
  205478:	97fffce9 	bl	20481c <mtk_mem_dbg_print>
  20547c:	531f7ac0 	lsl	w0, w22, #1
  205480:	aa1303e4 	mov	x4, x19
  205484:	d2800001 	mov	x1, #0x0                   	// #0
  205488:	2a0003e5 	mov	w5, w0
  20548c:	51000400 	sub	w0, w0, #0x1
  205490:	12003c23 	and	w3, w1, #0xffff
  205494:	eb0100bf 	cmp	x5, x1
  205498:	54000169 	b.ls	2054c4 <complex_mem_test+0x328>  // b.plast
  20549c:	eb01001f 	cmp	x0, x1
  2054a0:	54000069 	b.ls	2054ac <complex_mem_test+0x310>  // b.plast
  2054a4:	11000462 	add	w2, w3, #0x1
  2054a8:	79000482 	strh	w2, [x4, #2]
  2054ac:	78402482 	ldrh	w2, [x4], #2
  2054b0:	6b03005f 	cmp	w2, w3
  2054b4:	54001740 	b.eq	20579c <complex_mem_test+0x600>  // b.none
  2054b8:	912162a0 	add	x0, x21, #0x858
  2054bc:	9105b000 	add	x0, x0, #0x16c
  2054c0:	97fffeaa 	bl	204f68 <tf_log>
  2054c4:	b900027f 	str	wzr, [x19]
  2054c8:	912162b7 	add	x23, x21, #0x858
  2054cc:	9106aae0 	add	x0, x23, #0x1aa
  2054d0:	510006d6 	sub	w22, w22, #0x1
